Archive member included to satisfy reference by file (symbol)

c:/program files/microchip/xc32/v4.20/bin/bin/../../lib/gcc/pic32c/8.3.1/../../../../pic32c/lib/arm/v5te/nofp\libpic32c.a(data_init_wrapper.o)
                              build/lcdc_rgba888_mxt_9x60_wvga/production/_ext/2052985144/cstartup.o (__pic32c_data_initialization)
c:/program files/microchip/xc32/v4.20/bin/bin/../../lib/gcc/pic32c/8.3.1/../../../../pic32c/lib/arm/v5te/nofp\libpic32c.a(data_init_0_1.o)
                              c:/program files/microchip/xc32/v4.20/bin/bin/../../lib/gcc/pic32c/8.3.1/../../../../pic32c/lib/arm/v5te/nofp\libpic32c.a(data_init_wrapper.o) (__pic32c_data_initialization_impl)
c:/program files/microchip/xc32/v4.20/bin/bin/../../lib/gcc/pic32c/8.3.1/arm/v5te/nofp\libgcc.a(_udivsi3.o)
                              build/lcdc_rgba888_mxt_9x60_wvga/production/_ext/305146849/legato_math.o (__aeabi_uidiv)
c:/program files/microchip/xc32/v4.20/bin/bin/../../lib/gcc/pic32c/8.3.1/arm/v5te/nofp\libgcc.a(_divsi3.o)
                              build/lcdc_rgba888_mxt_9x60_wvga/production/_ext/305146849/legato_math.o (__aeabi_idiv)
c:/program files/microchip/xc32/v4.20/bin/bin/../../lib/gcc/pic32c/8.3.1/arm/v5te/nofp\libgcc.a(_dvmd_tls.o)
                              c:/program files/microchip/xc32/v4.20/bin/bin/../../lib/gcc/pic32c/8.3.1/arm/v5te/nofp\libgcc.a(_udivsi3.o) (__aeabi_idiv0)
c:/program files/microchip/xc32/v4.20/bin/bin/../../lib/gcc/pic32c/8.3.1/arm/v5te/nofp\libgcc.a(_arm_addsubsf3.o)
                              build/lcdc_rgba888_mxt_9x60_wvga/production/_ext/305146849/legato_math.o (__aeabi_fsub)
c:/program files/microchip/xc32/v4.20/bin/bin/../../lib/gcc/pic32c/8.3.1/arm/v5te/nofp\libgcc.a(_arm_muldivsf3.o)
                              build/lcdc_rgba888_mxt_9x60_wvga/production/_ext/1165331637/gfx_driver.o (__aeabi_fmul)
c:/program files/microchip/xc32/v4.20/bin/bin/../../lib/gcc/pic32c/8.3.1/arm/v5te/nofp\libgcc.a(_arm_cmpsf2.o)
                              build/lcdc_rgba888_mxt_9x60_wvga/production/_ext/305146849/legato_math.o (__aeabi_fcmplt)
c:/program files/microchip/xc32/v4.20/bin/bin/../../lib/gcc/pic32c/8.3.1/arm/v5te/nofp\libgcc.a(_arm_fixsfsi.o)
                              build/lcdc_rgba888_mxt_9x60_wvga/production/_ext/1165331637/gfx_driver.o (__aeabi_f2iz)
c:/program files/microchip/xc32/v4.20/bin/bin/../../lib/gcc/pic32c/8.3.1/arm/v5te/nofp\libgcc.a(_arm_fixunssfsi.o)
                              build/lcdc_rgba888_mxt_9x60_wvga/production/_ext/1165331637/gfx_driver.o (__aeabi_f2uiz)
c:/program files/microchip/xc32/v4.20/bin/bin/../../lib/gcc/pic32c/8.3.1/arm/v5te/nofp\libgcc.a(_aeabi_uldivmod.o)
                              build/lcdc_rgba888_mxt_9x60_wvga/production/_ext/1812361045/sys_time.o (__aeabi_uldivmod)
c:/program files/microchip/xc32/v4.20/bin/bin/../../lib/gcc/pic32c/8.3.1/arm/v5te/nofp\libgcc.a(_udivmoddi4.o)
                              c:/program files/microchip/xc32/v4.20/bin/bin/../../lib/gcc/pic32c/8.3.1/arm/v5te/nofp\libgcc.a(_aeabi_uldivmod.o) (__udivmoddi4)
c:/program files/microchip/xc32/v4.20/bin/bin/../../lib/gcc/pic32c/8.3.1/../../../../pic32c/lib/arm/v5te/nofp\libm-musl.a(atan.o)
                              build/lcdc_rgba888_mxt_9x60_wvga/production/_ext/305146849/legato_math.o (atan)
c:/program files/microchip/xc32/v4.20/bin/bin/../../lib/gcc/pic32c/8.3.1/../../../../pic32c/lib/arm/v5te/nofp\libm-musl.a(fabs.o)
                              c:/program files/microchip/xc32/v4.20/bin/bin/../../lib/gcc/pic32c/8.3.1/../../../../pic32c/lib/arm/v5te/nofp\libm-musl.a(atan.o) (fabs)
c:/program files/microchip/xc32/v4.20/bin/bin/../../lib/gcc/pic32c/8.3.1/../../../../pic32c/lib/arm/v5te/nofp\libc-musl.a(__libc_start_main.o)
                              build/lcdc_rgba888_mxt_9x60_wvga/production/_ext/2052985144/cstartup.o (__libc_init_array)
c:/program files/microchip/xc32/v4.20/bin/bin/../../lib/gcc/pic32c/8.3.1/../../../../pic32c/lib/arm/v5te/nofp\libc-musl.a(libc.o)
                              c:/program files/microchip/xc32/v4.20/bin/bin/../../lib/gcc/pic32c/8.3.1/../../../../pic32c/lib/arm/v5te/nofp\libc-musl.a(__libc_start_main.o) (__progname_full)
c:/program files/microchip/xc32/v4.20/bin/bin/../../lib/gcc/pic32c/8.3.1/../../../../pic32c/lib/arm/v5te/nofp\libc-musl.a(__sio_printf_doux.o)
                              (_printf_cdnopuxX)
c:/program files/microchip/xc32/v4.20/bin/bin/../../lib/gcc/pic32c/8.3.1/../../../../pic32c/lib/arm/v5te/nofp\libc-musl.a(__sio_sprintf_doux.o)
                              (_sprintf_cdnopuxX)
c:/program files/microchip/xc32/v4.20/bin/bin/../../lib/gcc/pic32c/8.3.1/../../../../pic32c/lib/arm/v5te/nofp\libc-musl.a(__sio_sscanf_dosux.o)
                              (_sscanf_cdnopsuxX)
c:/program files/microchip/xc32/v4.20/bin/bin/../../lib/gcc/pic32c/8.3.1/../../../../pic32c/lib/arm/v5te/nofp\libc-musl.a(__fmt_d.o)
                              c:/program files/microchip/xc32/v4.20/bin/bin/../../lib/gcc/pic32c/8.3.1/../../../../pic32c/lib/arm/v5te/nofp\libc-musl.a(__sio_printf_doux.o) (__fmt_d_needed)
c:/program files/microchip/xc32/v4.20/bin/bin/../../lib/gcc/pic32c/8.3.1/../../../../pic32c/lib/arm/v5te/nofp\libc-musl.a(__fmt_o.o)
                              c:/program files/microchip/xc32/v4.20/bin/bin/../../lib/gcc/pic32c/8.3.1/../../../../pic32c/lib/arm/v5te/nofp\libc-musl.a(__sio_printf_doux.o) (__fmt_o_needed)
c:/program files/microchip/xc32/v4.20/bin/bin/../../lib/gcc/pic32c/8.3.1/../../../../pic32c/lib/arm/v5te/nofp\libc-musl.a(__fmt_s.o)
                              c:/program files/microchip/xc32/v4.20/bin/bin/../../lib/gcc/pic32c/8.3.1/../../../../pic32c/lib/arm/v5te/nofp\libc-musl.a(__sio_printf_doux.o) (__fmt_s_needed)
c:/program files/microchip/xc32/v4.20/bin/bin/../../lib/gcc/pic32c/8.3.1/../../../../pic32c/lib/arm/v5te/nofp\libc-musl.a(__fmt_u.o)
                              c:/program files/microchip/xc32/v4.20/bin/bin/../../lib/gcc/pic32c/8.3.1/../../../../pic32c/lib/arm/v5te/nofp\libc-musl.a(__fmt_d.o) (__cvt_u)
c:/program files/microchip/xc32/v4.20/bin/bin/../../lib/gcc/pic32c/8.3.1/../../../../pic32c/lib/arm/v5te/nofp\libc-musl.a(__fmt_x.o)
                              c:/program files/microchip/xc32/v4.20/bin/bin/../../lib/gcc/pic32c/8.3.1/../../../../pic32c/lib/arm/v5te/nofp\libc-musl.a(__sio_printf_doux.o) (__fmt_x_needed)
c:/program files/microchip/xc32/v4.20/bin/bin/../../lib/gcc/pic32c/8.3.1/../../../../pic32c/lib/arm/v5te/nofp\libc-musl.a(__pop_int.o)
                              c:/program files/microchip/xc32/v4.20/bin/bin/../../lib/gcc/pic32c/8.3.1/../../../../pic32c/lib/arm/v5te/nofp\libc-musl.a(__sio_printf_doux.o) (__pop_int_needed)
c:/program files/microchip/xc32/v4.20/bin/bin/../../lib/gcc/pic32c/8.3.1/../../../../pic32c/lib/arm/v5te/nofp\libc-musl.a(__pop_ptr.o)
                              c:/program files/microchip/xc32/v4.20/bin/bin/../../lib/gcc/pic32c/8.3.1/../../../../pic32c/lib/arm/v5te/nofp\libc-musl.a(__sio_printf_doux.o) (__pop_ptr_needed)
c:/program files/microchip/xc32/v4.20/bin/bin/../../lib/gcc/pic32c/8.3.1/../../../../pic32c/lib/arm/v5te/nofp\libc-musl.a(__printf_core.o)
                              c:/program files/microchip/xc32/v4.20/bin/bin/../../lib/gcc/pic32c/8.3.1/../../../../pic32c/lib/arm/v5te/nofp\libc-musl.a(__fmt_d.o) (__pad)
c:/program files/microchip/xc32/v4.20/bin/bin/../../lib/gcc/pic32c/8.3.1/../../../../pic32c/lib/arm/v5te/nofp\libc-musl.a(__scan_d.o)
                              c:/program files/microchip/xc32/v4.20/bin/bin/../../lib/gcc/pic32c/8.3.1/../../../../pic32c/lib/arm/v5te/nofp\libc-musl.a(__sio_sscanf_dosux.o) (__scan_d_needed)
c:/program files/microchip/xc32/v4.20/bin/bin/../../lib/gcc/pic32c/8.3.1/../../../../pic32c/lib/arm/v5te/nofp\libc-musl.a(__scan_i.o)
                              c:/program files/microchip/xc32/v4.20/bin/bin/../../lib/gcc/pic32c/8.3.1/../../../../pic32c/lib/arm/v5te/nofp\libc-musl.a(__scan_d.o) (__scan_i_needed)
c:/program files/microchip/xc32/v4.20/bin/bin/../../lib/gcc/pic32c/8.3.1/../../../../pic32c/lib/arm/v5te/nofp\libc-musl.a(__scan_o.o)
                              c:/program files/microchip/xc32/v4.20/bin/bin/../../lib/gcc/pic32c/8.3.1/../../../../pic32c/lib/arm/v5te/nofp\libc-musl.a(__sio_sscanf_dosux.o) (__scan_o_needed)
c:/program files/microchip/xc32/v4.20/bin/bin/../../lib/gcc/pic32c/8.3.1/../../../../pic32c/lib/arm/v5te/nofp\libc-musl.a(__scan_s.o)
                              c:/program files/microchip/xc32/v4.20/bin/bin/../../lib/gcc/pic32c/8.3.1/../../../../pic32c/lib/arm/v5te/nofp\libc-musl.a(__sio_sscanf_dosux.o) (__scan_s_needed)
c:/program files/microchip/xc32/v4.20/bin/bin/../../lib/gcc/pic32c/8.3.1/../../../../pic32c/lib/arm/v5te/nofp\libc-musl.a(__scan_u.o)
                              c:/program files/microchip/xc32/v4.20/bin/bin/../../lib/gcc/pic32c/8.3.1/../../../../pic32c/lib/arm/v5te/nofp\libc-musl.a(__sio_sscanf_dosux.o) (__scan_u_needed)
c:/program files/microchip/xc32/v4.20/bin/bin/../../lib/gcc/pic32c/8.3.1/../../../../pic32c/lib/arm/v5te/nofp\libc-musl.a(__scan_x.o)
                              c:/program files/microchip/xc32/v4.20/bin/bin/../../lib/gcc/pic32c/8.3.1/../../../../pic32c/lib/arm/v5te/nofp\libc-musl.a(__sio_sscanf_dosux.o) (__scan_x_needed)
c:/program files/microchip/xc32/v4.20/bin/bin/../../lib/gcc/pic32c/8.3.1/../../../../pic32c/lib/arm/v5te/nofp\libc-musl.a(__scanf_core.o)
                              c:/program files/microchip/xc32/v4.20/bin/bin/../../lib/gcc/pic32c/8.3.1/../../../../pic32c/lib/arm/v5te/nofp\libc-musl.a(__scan_d.o) (__skipws)
c:/program files/microchip/xc32/v4.20/bin/bin/../../lib/gcc/pic32c/8.3.1/../../../../pic32c/lib/arm/v5te/nofp\libc-musl.a(stdout.o)
                              c:/program files/microchip/xc32/v4.20/bin/bin/../../lib/gcc/pic32c/8.3.1/../../../../pic32c/lib/arm/v5te/nofp\libc-musl.a(__sio_printf_doux.o) (_stdout)
c:/program files/microchip/xc32/v4.20/bin/bin/../../lib/gcc/pic32c/8.3.1/../../../../pic32c/lib/arm/v5te/nofp\libc-musl.a(putchar.o)
                              build/lcdc_rgba888_mxt_9x60_wvga/production/_ext/28088523/legato_variableheap.o (putchar)
c:/program files/microchip/xc32/v4.20/bin/bin/../../lib/gcc/pic32c/8.3.1/../../../../pic32c/lib/arm/v5te/nofp\libc-musl.a(puts.o)
                              build/lcdc_rgba888_mxt_9x60_wvga/production/_ext/28088523/legato_variableheap.o (puts)
c:/program files/microchip/xc32/v4.20/bin/bin/../../lib/gcc/pic32c/8.3.1/../../../../pic32c/lib/arm/v5te/nofp\libc-musl.a(atoi.o)
                              c:/program files/microchip/xc32/v4.20/bin/bin/../../lib/gcc/pic32c/8.3.1/../../../../pic32c/lib/arm/v5te/nofp\libc-musl.a(__printf_core.o) (atoi)
c:/program files/microchip/xc32/v4.20/bin/bin/../../lib/gcc/pic32c/8.3.1/../../../../pic32c/lib/arm/v5te/nofp\libc-musl.a(strtol.o)
                              c:/program files/microchip/xc32/v4.20/bin/bin/../../lib/gcc/pic32c/8.3.1/../../../../pic32c/lib/arm/v5te/nofp\libc-musl.a(__scan_i.o) (strtoull)
c:/program files/microchip/xc32/v4.20/bin/bin/../../lib/gcc/pic32c/8.3.1/../../../../pic32c/lib/arm/v5te/nofp\libc-musl.a(memcpy.o)
                              build/lcdc_rgba888_mxt_9x60_wvga/production/_ext/1959449242/drv_maxtouch.o (memcpy)
c:/program files/microchip/xc32/v4.20/bin/bin/../../lib/gcc/pic32c/8.3.1/../../../../pic32c/lib/arm/v5te/nofp\libc-musl.a(memset.o)
                              build/lcdc_rgba888_mxt_9x60_wvga/production/_ext/1959449242/drv_maxtouch.o (memset)
c:/program files/microchip/xc32/v4.20/bin/bin/../../lib/gcc/pic32c/8.3.1/../../../../pic32c/lib/arm/v5te/nofp\libc-musl.a(strlen.o)
                              build/lcdc_rgba888_mxt_9x60_wvga/production/_ext/1872343871/lodepng.o (strlen)
c:/program files/microchip/xc32/v4.20/bin/bin/../../lib/gcc/pic32c/8.3.1/../../../../pic32c/lib/arm/v5te/nofp\libc-musl.a(strcmp.o)
                              build/lcdc_rgba888_mxt_9x60_wvga/production/_ext/1959449242/drv_maxtouch.o (strcmp)
c:/program files/microchip/xc32/v4.20/bin/bin/../../lib/gcc/pic32c/8.3.1/../../../../pic32c/lib/arm/v5te/nofp\libc-musl.a(strncmp.o)
                              build/lcdc_rgba888_mxt_9x60_wvga/production/_ext/1959449242/drv_maxtouch.o (strncmp)
c:/program files/microchip/xc32/v4.20/bin/bin/../../lib/gcc/pic32c/8.3.1/../../../../pic32c/lib/arm/v5te/nofp\libc-musl.a(strrchr.o)
                              build/lcdc_rgba888_mxt_9x60_wvga/production/_ext/1959449242/drv_maxtouch.o (strrchr)
c:/program files/microchip/xc32/v4.20/bin/bin/../../lib/gcc/pic32c/8.3.1/../../../../pic32c/lib/arm/v5te/nofp\libc-musl.a(strtok.o)
                              build/lcdc_rgba888_mxt_9x60_wvga/production/_ext/1959449242/drv_maxtouch.o (strtok)
c:/program files/microchip/xc32/v4.20/bin/bin/../../lib/gcc/pic32c/8.3.1/../../../../pic32c/lib/arm/v5te/nofp\libc-musl.a(isxdigit.o)
                              c:/program files/microchip/xc32/v4.20/bin/bin/../../lib/gcc/pic32c/8.3.1/../../../../pic32c/lib/arm/v5te/nofp\libc-musl.a(__scan_i.o) (isxdigit)
c:/program files/microchip/xc32/v4.20/bin/bin/../../lib/gcc/pic32c/8.3.1/../../../../pic32c/lib/arm/v5te/nofp\libc-musl.a(tolower.o)
                              c:/program files/microchip/xc32/v4.20/bin/bin/../../lib/gcc/pic32c/8.3.1/../../../../pic32c/lib/arm/v5te/nofp\libc-musl.a(__printf_core.o) (tolower)
c:/program files/microchip/xc32/v4.20/bin/bin/../../lib/gcc/pic32c/8.3.1/../../../../pic32c/lib/arm/v5te/nofp\libc-musl.a(toupper.o)
                              c:/program files/microchip/xc32/v4.20/bin/bin/../../lib/gcc/pic32c/8.3.1/../../../../pic32c/lib/arm/v5te/nofp\libc-musl.a(__fmt_x.o) (toupper)
c:/program files/microchip/xc32/v4.20/bin/bin/../../lib/gcc/pic32c/8.3.1/../../../../pic32c/lib/arm/v5te/nofp\libc-musl.a(__environ.o)
                              c:/program files/microchip/xc32/v4.20/bin/bin/../../lib/gcc/pic32c/8.3.1/../../../../pic32c/lib/arm/v5te/nofp\libc-musl.a(__libc_start_main.o) (__environ)
c:/program files/microchip/xc32/v4.20/bin/bin/../../lib/gcc/pic32c/8.3.1/../../../../pic32c/lib/arm/v5te/nofp\libc-musl.a(__errno_location.o)
                              c:/program files/microchip/xc32/v4.20/bin/bin/../../lib/gcc/pic32c/8.3.1/../../../../pic32c/lib/arm/v5te/nofp\libc-musl.a(__printf_core.o) (__errno_val)
c:/program files/microchip/xc32/v4.20/bin/bin/../../lib/gcc/pic32c/8.3.1/../../../../pic32c/lib/arm/v5te/nofp\libc-musl.a(intscan.o)
                              c:/program files/microchip/xc32/v4.20/bin/bin/../../lib/gcc/pic32c/8.3.1/../../../../pic32c/lib/arm/v5te/nofp\libc-musl.a(strtol.o) (__intscan)
c:/program files/microchip/xc32/v4.20/bin/bin/../../lib/gcc/pic32c/8.3.1/../../../../pic32c/lib/arm/v5te/nofp\libc-musl.a(shgetc.o)
                              c:/program files/microchip/xc32/v4.20/bin/bin/../../lib/gcc/pic32c/8.3.1/../../../../pic32c/lib/arm/v5te/nofp\libc-musl.a(__scanf_core.o) (__shlim)
c:/program files/microchip/xc32/v4.20/bin/bin/../../lib/gcc/pic32c/8.3.1/../../../../pic32c/lib/arm/v5te/nofp\libc-musl.a(__int_vfprintf.o)
                              c:/program files/microchip/xc32/v4.20/bin/bin/../../lib/gcc/pic32c/8.3.1/../../../../pic32c/lib/arm/v5te/nofp\libc-musl.a(__sio_printf_doux.o) (__vfprintf)
c:/program files/microchip/xc32/v4.20/bin/bin/../../lib/gcc/pic32c/8.3.1/../../../../pic32c/lib/arm/v5te/nofp\libc-musl.a(__int_vsprintf.o)
                              c:/program files/microchip/xc32/v4.20/bin/bin/../../lib/gcc/pic32c/8.3.1/../../../../pic32c/lib/arm/v5te/nofp\libc-musl.a(__sio_sprintf_doux.o) (__vsprintf)
c:/program files/microchip/xc32/v4.20/bin/bin/../../lib/gcc/pic32c/8.3.1/../../../../pic32c/lib/arm/v5te/nofp\libc-musl.a(__int_vsscanf.o)
                              c:/program files/microchip/xc32/v4.20/bin/bin/../../lib/gcc/pic32c/8.3.1/../../../../pic32c/lib/arm/v5te/nofp\libc-musl.a(__sio_sscanf_dosux.o) (__vsscanf)
c:/program files/microchip/xc32/v4.20/bin/bin/../../lib/gcc/pic32c/8.3.1/../../../../pic32c/lib/arm/v5te/nofp\libc-musl.a(__string_read.o)
                              c:/program files/microchip/xc32/v4.20/bin/bin/../../lib/gcc/pic32c/8.3.1/../../../../pic32c/lib/arm/v5te/nofp\libc-musl.a(__int_vsscanf.o) (__string_read)
c:/program files/microchip/xc32/v4.20/bin/bin/../../lib/gcc/pic32c/8.3.1/../../../../pic32c/lib/arm/v5te/nofp\libc-musl.a(__uflow.o)
                              c:/program files/microchip/xc32/v4.20/bin/bin/../../lib/gcc/pic32c/8.3.1/../../../../pic32c/lib/arm/v5te/nofp\libc-musl.a(shgetc.o) (__uflow)
c:/program files/microchip/xc32/v4.20/bin/bin/../../lib/gcc/pic32c/8.3.1/../../../../pic32c/lib/arm/v5te/nofp\libc-musl.a(fputs.o)
                              c:/program files/microchip/xc32/v4.20/bin/bin/../../lib/gcc/pic32c/8.3.1/../../../../pic32c/lib/arm/v5te/nofp\libc-musl.a(puts.o) (fputs)
c:/program files/microchip/xc32/v4.20/bin/bin/../../lib/gcc/pic32c/8.3.1/../../../../pic32c/lib/arm/v5te/nofp\libc-musl.a(__io_init_needed.o)
                              c:/program files/microchip/xc32/v4.20/bin/bin/../../lib/gcc/pic32c/8.3.1/../../../../pic32c/lib/arm/v5te/nofp\libc-musl.a(stdout.o) (__io_init_needed)
c:/program files/microchip/xc32/v4.20/bin/bin/../../lib/gcc/pic32c/8.3.1/../../../../pic32c/lib/arm/v5te/nofp\libc-musl.a(__io_rw_needed.o)
                              c:/program files/microchip/xc32/v4.20/bin/bin/../../lib/gcc/pic32c/8.3.1/../../../../pic32c/lib/arm/v5te/nofp\libc-musl.a(__scanf_core.o) (__io_rw_needed)
c:/program files/microchip/xc32/v4.20/bin/bin/../../lib/gcc/pic32c/8.3.1/../../../../pic32c/lib/arm/v5te/nofp\libc-musl.a(__pop_float.o)
                              c:/program files/microchip/xc32/v4.20/bin/bin/../../lib/gcc/pic32c/8.3.1/../../../../pic32c/lib/arm/v5te/nofp\libc-musl.a(__printf_core.o) (__pop_float)
c:/program files/microchip/xc32/v4.20/bin/bin/../../lib/gcc/pic32c/8.3.1/../../../../pic32c/lib/arm/v5te/nofp\libc-musl.a(__push_float.o)
                              c:/program files/microchip/xc32/v4.20/bin/bin/../../lib/gcc/pic32c/8.3.1/../../../../pic32c/lib/arm/v5te/nofp\libc-musl.a(__scanf_core.o) (__push_float)
c:/program files/microchip/xc32/v4.20/bin/bin/../../lib/gcc/pic32c/8.3.1/../../../../pic32c/lib/arm/v5te/nofp\libc-musl.a(__push_int.o)
                              c:/program files/microchip/xc32/v4.20/bin/bin/../../lib/gcc/pic32c/8.3.1/../../../../pic32c/lib/arm/v5te/nofp\libc-musl.a(__scanf_core.o) (__push_int)
c:/program files/microchip/xc32/v4.20/bin/bin/../../lib/gcc/pic32c/8.3.1/../../../../pic32c/lib/arm/v5te/nofp\libc-musl.a(__towrite_rw.o)
                              c:/program files/microchip/xc32/v4.20/bin/bin/../../lib/gcc/pic32c/8.3.1/../../../../pic32c/lib/arm/v5te/nofp\libc-musl.a(__io_rw_needed.o) (__towrite_rw_needed)
c:/program files/microchip/xc32/v4.20/bin/bin/../../lib/gcc/pic32c/8.3.1/../../../../pic32c/lib/arm/v5te/nofp\libc-musl.a(fwrite.o)
                              c:/program files/microchip/xc32/v4.20/bin/bin/../../lib/gcc/pic32c/8.3.1/../../../../pic32c/lib/arm/v5te/nofp\libc-musl.a(fputs.o) (fwrite)
c:/program files/microchip/xc32/v4.20/bin/bin/../../lib/gcc/pic32c/8.3.1/../../../../pic32c/lib/arm/v5te/nofp\libc-musl.a(putc.o)
                              c:/program files/microchip/xc32/v4.20/bin/bin/../../lib/gcc/pic32c/8.3.1/../../../../pic32c/lib/arm/v5te/nofp\libc-musl.a(putchar.o) (fputc)
c:/program files/microchip/xc32/v4.20/bin/bin/../../lib/gcc/pic32c/8.3.1/../../../../pic32c/lib/arm/v5te/nofp\libc-musl.a(memrchr.o)
                              c:/program files/microchip/xc32/v4.20/bin/bin/../../lib/gcc/pic32c/8.3.1/../../../../pic32c/lib/arm/v5te/nofp\libc-musl.a(strrchr.o) (__memrchr)
c:/program files/microchip/xc32/v4.20/bin/bin/../../lib/gcc/pic32c/8.3.1/../../../../pic32c/lib/arm/v5te/nofp\libc-musl.a(memchr.o)
                              c:/program files/microchip/xc32/v4.20/bin/bin/../../lib/gcc/pic32c/8.3.1/../../../../pic32c/lib/arm/v5te/nofp\libc-musl.a(__string_read.o) (memchr)
c:/program files/microchip/xc32/v4.20/bin/bin/../../lib/gcc/pic32c/8.3.1/../../../../pic32c/lib/arm/v5te/nofp\libc-musl.a(strcspn.o)
                              c:/program files/microchip/xc32/v4.20/bin/bin/../../lib/gcc/pic32c/8.3.1/../../../../pic32c/lib/arm/v5te/nofp\libc-musl.a(strtok.o) (strcspn)
c:/program files/microchip/xc32/v4.20/bin/bin/../../lib/gcc/pic32c/8.3.1/../../../../pic32c/lib/arm/v5te/nofp\libc-musl.a(strspn.o)
                              c:/program files/microchip/xc32/v4.20/bin/bin/../../lib/gcc/pic32c/8.3.1/../../../../pic32c/lib/arm/v5te/nofp\libc-musl.a(strtok.o) (strspn)
c:/program files/microchip/xc32/v4.20/bin/bin/../../lib/gcc/pic32c/8.3.1/../../../../pic32c/lib/arm/v5te/nofp\libc-musl.a(__int_vfscanf.o)
                              c:/program files/microchip/xc32/v4.20/bin/bin/../../lib/gcc/pic32c/8.3.1/../../../../pic32c/lib/arm/v5te/nofp\libc-musl.a(__int_vsscanf.o) (__vfscanf)
c:/program files/microchip/xc32/v4.20/bin/bin/../../lib/gcc/pic32c/8.3.1/../../../../pic32c/lib/arm/v5te/nofp\libc-musl.a(__int_vsnprintf.o)
                              c:/program files/microchip/xc32/v4.20/bin/bin/../../lib/gcc/pic32c/8.3.1/../../../../pic32c/lib/arm/v5te/nofp\libc-musl.a(__int_vsprintf.o) (__vsnprintf)
c:/program files/microchip/xc32/v4.20/bin/bin/../../lib/gcc/pic32c/8.3.1/../../../../pic32c/lib/arm/v5te/nofp\libc-musl.a(__toread.o)
                              c:/program files/microchip/xc32/v4.20/bin/bin/../../lib/gcc/pic32c/8.3.1/../../../../pic32c/lib/arm/v5te/nofp\libc-musl.a(__uflow.o) (__toread)
c:/program files/microchip/xc32/v4.20/bin/bin/../../lib/gcc/pic32c/8.3.1/../../../../pic32c/lib/arm/v5te/nofp\libc-musl.a(__fopen_rw.o)
                              c:/program files/microchip/xc32/v4.20/bin/bin/../../lib/gcc/pic32c/8.3.1/../../../../pic32c/lib/arm/v5te/nofp\libc-musl.a(__io_rw_needed.o) (__fopen_rw_needed)
c:/program files/microchip/xc32/v4.20/bin/bin/../../lib/gcc/pic32c/8.3.1/../../../../pic32c/lib/arm/v5te/nofp\libc-musl.a(__ftello_rw.o)
                              c:/program files/microchip/xc32/v4.20/bin/bin/../../lib/gcc/pic32c/8.3.1/../../../../pic32c/lib/arm/v5te/nofp\libc-musl.a(__io_rw_needed.o) (__ftello_adj_rw_needed)
c:/program files/microchip/xc32/v4.20/bin/bin/../../lib/gcc/pic32c/8.3.1/../../../../pic32c/lib/arm/v5te/nofp\libc-musl.a(__init_stdio.o)
                              c:/program files/microchip/xc32/v4.20/bin/bin/../../lib/gcc/pic32c/8.3.1/../../../../pic32c/lib/arm/v5te/nofp\libc-musl.a(__io_init_needed.o) (__init_stdio_needed)
c:/program files/microchip/xc32/v4.20/bin/bin/../../lib/gcc/pic32c/8.3.1/../../../../pic32c/lib/arm/v5te/nofp\libc-musl.a(__io_buf_needed.o)
                              c:/program files/microchip/xc32/v4.20/bin/bin/../../lib/gcc/pic32c/8.3.1/../../../../pic32c/lib/arm/v5te/nofp\libc-musl.a(__io_rw_needed.o) (__io_buf_needed)
c:/program files/microchip/xc32/v4.20/bin/bin/../../lib/gcc/pic32c/8.3.1/../../../../pic32c/lib/arm/v5te/nofp\libc-musl.a(__io_file_needed.o)
                              c:/program files/microchip/xc32/v4.20/bin/bin/../../lib/gcc/pic32c/8.3.1/../../../../pic32c/lib/arm/v5te/nofp\libc-musl.a(__io_init_needed.o) (__io_file_needed)
c:/program files/microchip/xc32/v4.20/bin/bin/../../lib/gcc/pic32c/8.3.1/../../../../pic32c/lib/arm/v5te/nofp\libc-musl.a(__io_std_needed.o)
                              c:/program files/microchip/xc32/v4.20/bin/bin/../../lib/gcc/pic32c/8.3.1/../../../../pic32c/lib/arm/v5te/nofp\libc-musl.a(__io_buf_needed.o) (__io_std_needed)
c:/program files/microchip/xc32/v4.20/bin/bin/../../lib/gcc/pic32c/8.3.1/../../../../pic32c/lib/arm/v5te/nofp\libc-musl.a(__out.o)
                              c:/program files/microchip/xc32/v4.20/bin/bin/../../lib/gcc/pic32c/8.3.1/../../../../pic32c/lib/arm/v5te/nofp\libc-musl.a(__fopen_rw.o) (__stdio_write_unbuffered)
c:/program files/microchip/xc32/v4.20/bin/bin/../../lib/gcc/pic32c/8.3.1/../../../../pic32c/lib/arm/v5te/nofp\libc-musl.a(__putc.o)
                              c:/program files/microchip/xc32/v4.20/bin/bin/../../lib/gcc/pic32c/8.3.1/../../../../pic32c/lib/arm/v5te/nofp\libc-musl.a(__io_buf_needed.o) (__putc_needed)
c:/program files/microchip/xc32/v4.20/bin/bin/../../lib/gcc/pic32c/8.3.1/../../../../pic32c/lib/arm/v5te/nofp\libc-musl.a(__stderr.o)
                              c:/program files/microchip/xc32/v4.20/bin/bin/../../lib/gcc/pic32c/8.3.1/../../../../pic32c/lib/arm/v5te/nofp\libc-musl.a(__io_std_needed.o) (__init_stderr_needed)
c:/program files/microchip/xc32/v4.20/bin/bin/../../lib/gcc/pic32c/8.3.1/../../../../pic32c/lib/arm/v5te/nofp\libc-musl.a(__stdio_close.o)
                              c:/program files/microchip/xc32/v4.20/bin/bin/../../lib/gcc/pic32c/8.3.1/../../../../pic32c/lib/arm/v5te/nofp\libc-musl.a(__fopen_rw.o) (__stdio_close_rw)
c:/program files/microchip/xc32/v4.20/bin/bin/../../lib/gcc/pic32c/8.3.1/../../../../pic32c/lib/arm/v5te/nofp\libc-musl.a(__stdio_exit.o)
                              c:/program files/microchip/xc32/v4.20/bin/bin/../../lib/gcc/pic32c/8.3.1/../../../../pic32c/lib/arm/v5te/nofp\libc-musl.a(__toread.o) (__stdio_exit_needed)
c:/program files/microchip/xc32/v4.20/bin/bin/../../lib/gcc/pic32c/8.3.1/../../../../pic32c/lib/arm/v5te/nofp\libc-musl.a(__stdio_read.o)
                              c:/program files/microchip/xc32/v4.20/bin/bin/../../lib/gcc/pic32c/8.3.1/../../../../pic32c/lib/arm/v5te/nofp\libc-musl.a(__fopen_rw.o) (__stdio_read)
c:/program files/microchip/xc32/v4.20/bin/bin/../../lib/gcc/pic32c/8.3.1/../../../../pic32c/lib/arm/v5te/nofp\libc-musl.a(__stdio_seek.o)
                              c:/program files/microchip/xc32/v4.20/bin/bin/../../lib/gcc/pic32c/8.3.1/../../../../pic32c/lib/arm/v5te/nofp\libc-musl.a(__fopen_rw.o) (__stdio_seek_rw)
c:/program files/microchip/xc32/v4.20/bin/bin/../../lib/gcc/pic32c/8.3.1/../../../../pic32c/lib/arm/v5te/nofp\libc-musl.a(__stdout.o)
                              c:/program files/microchip/xc32/v4.20/bin/bin/../../lib/gcc/pic32c/8.3.1/../../../../pic32c/lib/arm/v5te/nofp\libc-musl.a(__io_std_needed.o) (__init_stdout_needed)
c:/program files/microchip/xc32/v4.20/bin/bin/../../lib/gcc/pic32c/8.3.1/../../../../pic32c/lib/arm/v5te/nofp\libc-musl.a(strchrnul.o)
                              c:/program files/microchip/xc32/v4.20/bin/bin/../../lib/gcc/pic32c/8.3.1/../../../../pic32c/lib/arm/v5te/nofp\libc-musl.a(strcspn.o) (__strchrnul)
c:/program files/microchip/xc32/v4.20/bin/bin/../../lib/gcc/pic32c/8.3.1/../../../../pic32c/lib/arm/v5te/nofp\libc-musl.a(readv.o)
                              c:/program files/microchip/xc32/v4.20/bin/bin/../../lib/gcc/pic32c/8.3.1/../../../../pic32c/lib/arm/v5te/nofp\libc-musl.a(__stdio_read.o) (readv)
c:/program files/microchip/xc32/v4.20/bin/bin/../../lib/gcc/pic32c/8.3.1/../../../../pic32c/lib/arm/v5te/nofp\libc-musl.a(malloc.o)
                              c:/program files/microchip/xc32/v4.20/bin/bin/../../lib/gcc/pic32c/8.3.1/../../../../pic32c/lib/arm/v5te/nofp\libc-musl.a(__fopen_rw.o) (malloc)
c:/program files/microchip/xc32/v4.20/bin/bin/../../lib/gcc/pic32c/8.3.1/../../../../pic32c/lib/arm/v5te/nofp\libc-musl.a(expand_heap.o)
                              c:/program files/microchip/xc32/v4.20/bin/bin/../../lib/gcc/pic32c/8.3.1/../../../../pic32c/lib/arm/v5te/nofp\libc-musl.a(malloc.o) (__expand_heap)
c:/program files/microchip/xc32/v4.20/bin/bin/../../lib/gcc/pic32c/8.3.1/../../../../pic32c/lib/arm/v5te/nofp\libc-musl.a(__overflow.o)
                              c:/program files/microchip/xc32/v4.20/bin/bin/../../lib/gcc/pic32c/8.3.1/../../../../pic32c/lib/arm/v5te/nofp\libc-musl.a(__putc.o) (__overflow)
c:/program files/microchip/xc32/v4.20/bin/bin/../../lib/gcc/pic32c/8.3.1/../../../../pic32c/lib/arm/v5te/nofp\libc-musl.a(__fclose.o)
                              c:/program files/microchip/xc32/v4.20/bin/bin/../../lib/gcc/pic32c/8.3.1/../../../../pic32c/lib/arm/v5te/nofp\libc-musl.a(__io_buf_needed.o) (__fclose_needed)
c:/program files/microchip/xc32/v4.20/bin/bin/../../lib/gcc/pic32c/8.3.1/../../../../pic32c/lib/arm/v5te/nofp\libc-musl.a(__fopen.o)
                              c:/program files/microchip/xc32/v4.20/bin/bin/../../lib/gcc/pic32c/8.3.1/../../../../pic32c/lib/arm/v5te/nofp\libc-musl.a(__io_std_needed.o) (__fopen_needed)
c:/program files/microchip/xc32/v4.20/bin/bin/../../lib/gcc/pic32c/8.3.1/../../../../pic32c/lib/arm/v5te/nofp\libc-musl.a(__fseeko.o)
                              c:/program files/microchip/xc32/v4.20/bin/bin/../../lib/gcc/pic32c/8.3.1/../../../../pic32c/lib/arm/v5te/nofp\libc-musl.a(__io_buf_needed.o) (__fseeko_needed)
c:/program files/microchip/xc32/v4.20/bin/bin/../../lib/gcc/pic32c/8.3.1/../../../../pic32c/lib/arm/v5te/nofp\libc-musl.a(__ftello.o)
                              c:/program files/microchip/xc32/v4.20/bin/bin/../../lib/gcc/pic32c/8.3.1/../../../../pic32c/lib/arm/v5te/nofp\libc-musl.a(__io_buf_needed.o) (__ftello_adj_needed)
c:/program files/microchip/xc32/v4.20/bin/bin/../../lib/gcc/pic32c/8.3.1/../../../../pic32c/lib/arm/v5te/nofp\libc-musl.a(__fwrite.o)
                              c:/program files/microchip/xc32/v4.20/bin/bin/../../lib/gcc/pic32c/8.3.1/../../../../pic32c/lib/arm/v5te/nofp\libc-musl.a(__io_std_needed.o) (__fwrite_needed)
c:/program files/microchip/xc32/v4.20/bin/bin/../../lib/gcc/pic32c/8.3.1/../../../../pic32c/lib/arm/v5te/nofp\libc-musl.a(__towrite.o)
                              c:/program files/microchip/xc32/v4.20/bin/bin/../../lib/gcc/pic32c/8.3.1/../../../../pic32c/lib/arm/v5te/nofp\libc-musl.a(__overflow.o) (__towrite)
c:/program files/microchip/xc32/v4.20/bin/bin/../../lib/gcc/pic32c/8.3.1/../../../../pic32c/lib/arm/v5te/nofp\libpic32c.a(close.o)
                              c:/program files/microchip/xc32/v4.20/bin/bin/../../lib/gcc/pic32c/8.3.1/../../../../pic32c/lib/arm/v5te/nofp\libc-musl.a(__stdio_close.o) (close)
c:/program files/microchip/xc32/v4.20/bin/bin/../../lib/gcc/pic32c/8.3.1/../../../../pic32c/lib/arm/v5te/nofp\libpic32c.a(lseek.o)
                              c:/program files/microchip/xc32/v4.20/bin/bin/../../lib/gcc/pic32c/8.3.1/../../../../pic32c/lib/arm/v5te/nofp\libc-musl.a(__stdio_close.o) (lseek)
c:/program files/microchip/xc32/v4.20/bin/bin/../../lib/gcc/pic32c/8.3.1/../../../../pic32c/lib/arm/v5te/nofp\libpic32c.a(sbrk.o)
                              c:/program files/microchip/xc32/v4.20/bin/bin/../../lib/gcc/pic32c/8.3.1/../../../../pic32c/lib/arm/v5te/nofp\libc-musl.a(expand_heap.o) (_sbrk)
c:/program files/microchip/xc32/v4.20/bin/bin/../../lib/gcc/pic32c/8.3.1/arm/v5te/nofp\libgcc.a(_arm_addsubdf3.o)
                              c:/program files/microchip/xc32/v4.20/bin/bin/../../lib/gcc/pic32c/8.3.1/../../../../pic32c/lib/arm/v5te/nofp\libm-musl.a(atan.o) (__aeabi_dsub)
c:/program files/microchip/xc32/v4.20/bin/bin/../../lib/gcc/pic32c/8.3.1/arm/v5te/nofp\libgcc.a(_arm_muldivdf3.o)
                              c:/program files/microchip/xc32/v4.20/bin/bin/../../lib/gcc/pic32c/8.3.1/../../../../pic32c/lib/arm/v5te/nofp\libm-musl.a(atan.o) (__aeabi_dmul)
c:/program files/microchip/xc32/v4.20/bin/bin/../../lib/gcc/pic32c/8.3.1/arm/v5te/nofp\libgcc.a(_arm_truncdfsf2.o)
                              c:/program files/microchip/xc32/v4.20/bin/bin/../../lib/gcc/pic32c/8.3.1/../../../../pic32c/lib/arm/v5te/nofp\libm-musl.a(atan.o) (__aeabi_d2f)

Microchip PIC32 Memory-Usage Report
        --------------------------------------------------------------------------
         Total Program Memory used  :           0           0  
        --------------------------------------------------------------------------


RAM Data-Memory Usage
section                    address  length [bytes]      (dec)  Description
-------                 ----------  -------------------------  -----------
.text                   0x23f00000       0x43d9b8     4446648   
.dinit                  0x2433d9b8         0x17b0        6064   
.data                   0x2433f168          0xba4        2980  Initialized data 
.ARM.exidx              0x2433fd0c            0x8           8   
.relocate               0x2433fd14           0x3c          60   
.region_cache_aligned_c 0x2433fd14            0xc          12   
.bss                    0x24340000        0x509f0      330224  Uninitialized data 
.region_cache_aligned   0x243909f0           0x10          16   
.stacks                 0x24390a00         0x2140        8512   
         Total RAM used  :    0x49289c     4794524  4.1% of 0x7000000
        --------------------------------------------------------------------------
            Total Data Memory used  :    0x49289c     4794524  4.1% of 0x7000000
        --------------------------------------------------------------------------


Dynamic Data-Memory Reservation
section                    address  length [bytes]      (dec)  Description
-------                 ----------  -------------------------  -----------
heap                    0x24392b48          0x200         512  Reserved for heap 
stack                   0x24392d60      0x3c6d298    63361688  Reserved for stack 

        --------------------------------------------------------------------------

Discarded input sections

 .text          0x00000000        0x0 c:/program files/microchip/xc32/v4.20/bin/bin/../../lib/gcc/pic32c/8.3.1/arm/v5te/nofp/crti.o
 .data          0x00000000        0x0 c:/program files/microchip/xc32/v4.20/bin/bin/../../lib/gcc/pic32c/8.3.1/arm/v5te/nofp/crti.o
 .bss           0x00000000        0x0 c:/program files/microchip/xc32/v4.20/bin/bin/../../lib/gcc/pic32c/8.3.1/arm/v5te/nofp/crti.o
 .xc_stack_usage.hdr
                0x00000000        0xe c:/program files/microchip/xc32/v4.20/bin/bin/../../lib/gcc/pic32c/8.3.1/arm/v5te/nofp/crti.o
 .xc_stack_usage
                0x00000000       0x26 c:/program files/microchip/xc32/v4.20/bin/bin/../../lib/gcc/pic32c/8.3.1/arm/v5te/nofp/crti.o
 .data          0x00000000        0x4 c:/program files/microchip/xc32/v4.20/bin/bin/../../lib/gcc/pic32c/8.3.1/arm/v5te/nofp/crtbegin.o
 .xc_stack_usage
                0x00000000       0x3c c:/program files/microchip/xc32/v4.20/bin/bin/../../lib/gcc/pic32c/8.3.1/arm/v5te/nofp/crtbegin.o
 .xc_stack_usage.hdr
                0x00000000        0xe c:/program files/microchip/xc32/v4.20/bin/bin/../../lib/gcc/pic32c/8.3.1/arm/v5te/nofp/crtbegin.o
 .text          0x00000000        0x0 build/lcdc_rgba888_mxt_9x60_wvga/production/_ext/236556520/bsp.o
 .data          0x00000000        0x0 build/lcdc_rgba888_mxt_9x60_wvga/production/_ext/236556520/bsp.o
 .bss           0x00000000        0x0 build/lcdc_rgba888_mxt_9x60_wvga/production/_ext/236556520/bsp.o
 .text          0x00000000        0x0 build/lcdc_rgba888_mxt_9x60_wvga/production/_ext/103208383/drv_i2c.o
 .data          0x00000000        0x0 build/lcdc_rgba888_mxt_9x60_wvga/production/_ext/103208383/drv_i2c.o
 .bss           0x00000000        0x0 build/lcdc_rgba888_mxt_9x60_wvga/production/_ext/103208383/drv_i2c.o
 .text.DRV_I2C_Status
                0x00000000       0x18 build/lcdc_rgba888_mxt_9x60_wvga/production/_ext/103208383/drv_i2c.o
 .text.DRV_I2C_TransferSetup
                0x00000000       0x38 build/lcdc_rgba888_mxt_9x60_wvga/production/_ext/103208383/drv_i2c.o
 .text.DRV_I2C_ErrorGet
                0x00000000       0x88 build/lcdc_rgba888_mxt_9x60_wvga/production/_ext/103208383/drv_i2c.o
 .text.DRV_I2C_WriteReadTransferAdd
                0x00000000       0x34 build/lcdc_rgba888_mxt_9x60_wvga/production/_ext/103208383/drv_i2c.o
 .text.DRV_I2C_QueuePurge
                0x00000000       0xb0 build/lcdc_rgba888_mxt_9x60_wvga/production/_ext/103208383/drv_i2c.o
 .text.DRV_I2C_TransferStatusGet
                0x00000000       0x80 build/lcdc_rgba888_mxt_9x60_wvga/production/_ext/103208383/drv_i2c.o
 .text          0x00000000        0x0 build/lcdc_rgba888_mxt_9x60_wvga/production/_ext/1959449242/drv_maxtouch.o
 .data          0x00000000        0x0 build/lcdc_rgba888_mxt_9x60_wvga/production/_ext/1959449242/drv_maxtouch.o
 .bss           0x00000000        0x0 build/lcdc_rgba888_mxt_9x60_wvga/production/_ext/1959449242/drv_maxtouch.o
 .text.DRV_MAXTOUCH_Status
                0x00000000       0x10 build/lcdc_rgba888_mxt_9x60_wvga/production/_ext/1959449242/drv_maxtouch.o
 .text.DRV_MAXTOUCH_Close
                0x00000000       0x58 build/lcdc_rgba888_mxt_9x60_wvga/production/_ext/1959449242/drv_maxtouch.o
 .text.DRV_MAXTOUCH_Deinitialize
                0x00000000       0x38 build/lcdc_rgba888_mxt_9x60_wvga/production/_ext/1959449242/drv_maxtouch.o
 .text.DRV_MAXTOUCH_Reinitialize
                0x00000000       0x20 build/lcdc_rgba888_mxt_9x60_wvga/production/_ext/1959449242/drv_maxtouch.o
 .text.DRV_MAXTOUCH_SoftReset
                0x00000000       0x54 build/lcdc_rgba888_mxt_9x60_wvga/production/_ext/1959449242/drv_maxtouch.o
 .text.DRV_MAXTOUCH_ConfigSave
                0x00000000       0x50 build/lcdc_rgba888_mxt_9x60_wvga/production/_ext/1959449242/drv_maxtouch.o
 .text.mxt_get_object
                0x00000000       0x54 build/lcdc_rgba888_mxt_9x60_wvga/production/_ext/1959449242/drv_maxtouch.o
 .text.mxt_prepare_cfg_mem
                0x00000000      0x1e4 build/lcdc_rgba888_mxt_9x60_wvga/production/_ext/1959449242/drv_maxtouch.o
 .text.mxt_load_xcfg_file
                0x00000000      0x384 build/lcdc_rgba888_mxt_9x60_wvga/production/_ext/1959449242/drv_maxtouch.o
 .text.mxt_configure_objects
                0x00000000      0x310 build/lcdc_rgba888_mxt_9x60_wvga/production/_ext/1959449242/drv_maxtouch.o
 .text.DRV_MAXTOUCH_ConfigParse
                0x00000000       0x78 build/lcdc_rgba888_mxt_9x60_wvga/production/_ext/1959449242/drv_maxtouch.o
 .text.DRV_MAXTOUCH_ConfigLoad
                0x00000000       0x78 build/lcdc_rgba888_mxt_9x60_wvga/production/_ext/1959449242/drv_maxtouch.o
 .text.mxt_obj_size
                0x00000000        0xc build/lcdc_rgba888_mxt_9x60_wvga/production/_ext/1959449242/drv_maxtouch.o
 .text.mxt_obj_instances
                0x00000000        0xc build/lcdc_rgba888_mxt_9x60_wvga/production/_ext/1959449242/drv_maxtouch.o
 .rodata        0x00000000       0xcc build/lcdc_rgba888_mxt_9x60_wvga/production/_ext/1959449242/drv_maxtouch.o
 .text          0x00000000        0x0 build/lcdc_rgba888_mxt_9x60_wvga/production/_ext/1165331637/gfx_driver.o
 .data          0x00000000        0x0 build/lcdc_rgba888_mxt_9x60_wvga/production/_ext/1165331637/gfx_driver.o
 .bss           0x00000000        0x0 build/lcdc_rgba888_mxt_9x60_wvga/production/_ext/1165331637/gfx_driver.o
 .text.no_conv  0x00000000        0x4 build/lcdc_rgba888_mxt_9x60_wvga/production/_ext/1165331637/gfx_driver.o
 .text.gs8_rgb332
                0x00000000       0x10 build/lcdc_rgba888_mxt_9x60_wvga/production/_ext/1165331637/gfx_driver.o
 .text.gs8_rgb565
                0x00000000       0x20 build/lcdc_rgba888_mxt_9x60_wvga/production/_ext/1165331637/gfx_driver.o
 .text.gs8_rgba5551
                0x00000000       0x28 build/lcdc_rgba888_mxt_9x60_wvga/production/_ext/1165331637/gfx_driver.o
 .text.gs8_rgb888
                0x00000000       0x10 build/lcdc_rgba888_mxt_9x60_wvga/production/_ext/1165331637/gfx_driver.o
 .text.gs8_rgba8888
                0x00000000       0x14 build/lcdc_rgba888_mxt_9x60_wvga/production/_ext/1165331637/gfx_driver.o
 .text.gs8_argb8888
                0x00000000       0x14 build/lcdc_rgba888_mxt_9x60_wvga/production/_ext/1165331637/gfx_driver.o
 .text.rgb332_rgb565
                0x00000000       0x2c build/lcdc_rgba888_mxt_9x60_wvga/production/_ext/1165331637/gfx_driver.o
 .text.rgb332_rgba5551
                0x00000000       0x2c build/lcdc_rgba888_mxt_9x60_wvga/production/_ext/1165331637/gfx_driver.o
 .text.rgb332_rgb888
                0x00000000       0x30 build/lcdc_rgba888_mxt_9x60_wvga/production/_ext/1165331637/gfx_driver.o
 .text.rgb332_rgba8888
                0x00000000       0x2c build/lcdc_rgba888_mxt_9x60_wvga/production/_ext/1165331637/gfx_driver.o
 .text.rgb332_argb8888
                0x00000000       0x30 build/lcdc_rgba888_mxt_9x60_wvga/production/_ext/1165331637/gfx_driver.o
 .text.rgb565_rgb332
                0x00000000       0x20 build/lcdc_rgba888_mxt_9x60_wvga/production/_ext/1165331637/gfx_driver.o
 .text.rgb565_rgba5551
                0x00000000       0x20 build/lcdc_rgba888_mxt_9x60_wvga/production/_ext/1165331637/gfx_driver.o
 .text.rgb565_rgb888
                0x00000000       0x24 build/lcdc_rgba888_mxt_9x60_wvga/production/_ext/1165331637/gfx_driver.o
 .text.rgb565_rgba8888
                0x00000000       0x24 build/lcdc_rgba888_mxt_9x60_wvga/production/_ext/1165331637/gfx_driver.o
 .text.rgb565_argb8888
                0x00000000       0x28 build/lcdc_rgba888_mxt_9x60_wvga/production/_ext/1165331637/gfx_driver.o
 .text.rgba5551_gs8
                0x00000000        0x4 build/lcdc_rgba888_mxt_9x60_wvga/production/_ext/1165331637/gfx_driver.o
 .text.rgba5551_rgb332
                0x00000000       0x20 build/lcdc_rgba888_mxt_9x60_wvga/production/_ext/1165331637/gfx_driver.o
 .text.rgba5551_rgb565
                0x00000000       0x1c build/lcdc_rgba888_mxt_9x60_wvga/production/_ext/1165331637/gfx_driver.o
 .text.rgba5551_rgb888
                0x00000000       0x30 build/lcdc_rgba888_mxt_9x60_wvga/production/_ext/1165331637/gfx_driver.o
 .text.rgba5551_rgba8888
                0x00000000       0x40 build/lcdc_rgba888_mxt_9x60_wvga/production/_ext/1165331637/gfx_driver.o
 .text.rgba5551_argb8888
                0x00000000       0x40 build/lcdc_rgba888_mxt_9x60_wvga/production/_ext/1165331637/gfx_driver.o
 .text.rgb888_gs8
                0x00000000        0x4 build/lcdc_rgba888_mxt_9x60_wvga/production/_ext/1165331637/gfx_driver.o
 .text.rgb888_rgb332
                0x00000000       0x24 build/lcdc_rgba888_mxt_9x60_wvga/production/_ext/1165331637/gfx_driver.o
 .text.rgb888_rgb565
                0x00000000       0x20 build/lcdc_rgba888_mxt_9x60_wvga/production/_ext/1165331637/gfx_driver.o
 .text.rgb888_rgba5551
                0x00000000       0x28 build/lcdc_rgba888_mxt_9x60_wvga/production/_ext/1165331637/gfx_driver.o
 .text.rgb888_rgba8888
                0x00000000        0xc build/lcdc_rgba888_mxt_9x60_wvga/production/_ext/1165331637/gfx_driver.o
 .text.rgb888_argb8888
                0x00000000        0x8 build/lcdc_rgba888_mxt_9x60_wvga/production/_ext/1165331637/gfx_driver.o
 .text.rgba8888_gs8
                0x00000000        0x4 build/lcdc_rgba888_mxt_9x60_wvga/production/_ext/1165331637/gfx_driver.o
 .text.rgba8888_rgb332
                0x00000000       0x20 build/lcdc_rgba888_mxt_9x60_wvga/production/_ext/1165331637/gfx_driver.o
 .text.rgba8888_rgb565
                0x00000000       0x20 build/lcdc_rgba888_mxt_9x60_wvga/production/_ext/1165331637/gfx_driver.o
 .text.rgba8888_rgba5551
                0x00000000       0x34 build/lcdc_rgba888_mxt_9x60_wvga/production/_ext/1165331637/gfx_driver.o
 .text.rgba8888_rgb888
                0x00000000        0x8 build/lcdc_rgba888_mxt_9x60_wvga/production/_ext/1165331637/gfx_driver.o
 .text.rgba8888_argb8888
                0x00000000        0x8 build/lcdc_rgba888_mxt_9x60_wvga/production/_ext/1165331637/gfx_driver.o
 .text.argb8888_rgba5551
                0x00000000       0x34 build/lcdc_rgba888_mxt_9x60_wvga/production/_ext/1165331637/gfx_driver.o
 .text.argb8888_rgb888
                0x00000000        0x8 build/lcdc_rgba888_mxt_9x60_wvga/production/_ext/1165331637/gfx_driver.o
 .text.argb8888_rgba8888
                0x00000000        0x8 build/lcdc_rgba888_mxt_9x60_wvga/production/_ext/1165331637/gfx_driver.o
 .text.gfxIndexGet1bpp
                0x00000000       0x20 build/lcdc_rgba888_mxt_9x60_wvga/production/_ext/1165331637/gfx_driver.o
 .text.gfxIndexGet4bpp
                0x00000000       0x18 build/lcdc_rgba888_mxt_9x60_wvga/production/_ext/1165331637/gfx_driver.o
 .text.gfxIndexGet
                0x00000000       0x64 build/lcdc_rgba888_mxt_9x60_wvga/production/_ext/1165331637/gfx_driver.o
 .text.gfxGet1byte
                0x00000000        0x8 build/lcdc_rgba888_mxt_9x60_wvga/production/_ext/1165331637/gfx_driver.o
 .text.gfxGet2byte
                0x00000000        0x8 build/lcdc_rgba888_mxt_9x60_wvga/production/_ext/1165331637/gfx_driver.o
 .text.gfxGet3byte
                0x00000000       0x1c build/lcdc_rgba888_mxt_9x60_wvga/production/_ext/1165331637/gfx_driver.o
 .text.gfxGet4byte
                0x00000000        0x8 build/lcdc_rgba888_mxt_9x60_wvga/production/_ext/1165331637/gfx_driver.o
 .text.gfxSet1byte
                0x00000000        0xc build/lcdc_rgba888_mxt_9x60_wvga/production/_ext/1165331637/gfx_driver.o
 .text.gfxSet2byte
                0x00000000        0xc build/lcdc_rgba888_mxt_9x60_wvga/production/_ext/1165331637/gfx_driver.o
 .text.gfxSet3byte
                0x00000000       0x1c build/lcdc_rgba888_mxt_9x60_wvga/production/_ext/1165331637/gfx_driver.o
 .text.gfxSet4byte
                0x00000000        0xc build/lcdc_rgba888_mxt_9x60_wvga/production/_ext/1165331637/gfx_driver.o
 .text.rgb332_gs8
                0x00000000       0x9c build/lcdc_rgba888_mxt_9x60_wvga/production/_ext/1165331637/gfx_driver.o
 .text.rgb565_gs8
                0x00000000       0x9c build/lcdc_rgba888_mxt_9x60_wvga/production/_ext/1165331637/gfx_driver.o
 .text.gfxColorChannelRed
                0x00000000       0x20 build/lcdc_rgba888_mxt_9x60_wvga/production/_ext/1165331637/gfx_driver.o
 .text.gfxColorChannelGreen
                0x00000000       0x20 build/lcdc_rgba888_mxt_9x60_wvga/production/_ext/1165331637/gfx_driver.o
 .text.gfxColorChannelBlue
                0x00000000       0x20 build/lcdc_rgba888_mxt_9x60_wvga/production/_ext/1165331637/gfx_driver.o
 .text.gfxColorChannelAlpha
                0x00000000       0x30 build/lcdc_rgba888_mxt_9x60_wvga/production/_ext/1165331637/gfx_driver.o
 .text.gfxScaleIntegerSigned
                0x00000000       0x44 build/lcdc_rgba888_mxt_9x60_wvga/production/_ext/1165331637/gfx_driver.o
 .text.gfxScaleInteger
                0x00000000       0x44 build/lcdc_rgba888_mxt_9x60_wvga/production/_ext/1165331637/gfx_driver.o
 .text.gfxPixelBufferOffsetGet_Unsafe
                0x00000000       0x24 build/lcdc_rgba888_mxt_9x60_wvga/production/_ext/1165331637/gfx_driver.o
 .text.gfxPixelBufferGet_Unsafe
                0x00000000       0x64 build/lcdc_rgba888_mxt_9x60_wvga/production/_ext/1165331637/gfx_driver.o
 .text.gfxPixelBufferGet
                0x00000000       0x34 build/lcdc_rgba888_mxt_9x60_wvga/production/_ext/1165331637/gfx_driver.o
 .text.gfxPixelBufferGetIndex
                0x00000000       0x40 build/lcdc_rgba888_mxt_9x60_wvga/production/_ext/1165331637/gfx_driver.o
 .text.gfxPixelBufferGetIndex_Unsafe
                0x00000000       0x2c build/lcdc_rgba888_mxt_9x60_wvga/production/_ext/1165331637/gfx_driver.o
 .text.gfxPixelBuffer_SetLocked
                0x00000000       0x2c build/lcdc_rgba888_mxt_9x60_wvga/production/_ext/1165331637/gfx_driver.o
 .text.gfxColorConvert
                0x00000000       0x28 build/lcdc_rgba888_mxt_9x60_wvga/production/_ext/1165331637/gfx_driver.o
 .data.gfxIndexGet_FnTable
                0x00000000       0x18 build/lcdc_rgba888_mxt_9x60_wvga/production/_ext/1165331637/gfx_driver.o
 .data.gfxPixelGet_FnTable
                0x00000000       0x10 build/lcdc_rgba888_mxt_9x60_wvga/production/_ext/1165331637/gfx_driver.o
 .data.gfxPixelSet_FnTable
                0x00000000       0x10 build/lcdc_rgba888_mxt_9x60_wvga/production/_ext/1165331637/gfx_driver.o
 .data.gfx_color_convert_table
                0x00000000      0x1e4 build/lcdc_rgba888_mxt_9x60_wvga/production/_ext/1165331637/gfx_driver.o
 .text          0x00000000        0x0 build/lcdc_rgba888_mxt_9x60_wvga/production/_ext/129784465/drv_gfx_lcdc.o
 .data          0x00000000        0x0 build/lcdc_rgba888_mxt_9x60_wvga/production/_ext/129784465/drv_gfx_lcdc.o
 .bss           0x00000000        0x0 build/lcdc_rgba888_mxt_9x60_wvga/production/_ext/129784465/drv_gfx_lcdc.o
 .text.LCDC_BrightnessRangeGet
                0x00000000       0x18 build/lcdc_rgba888_mxt_9x60_wvga/production/_ext/129784465/drv_gfx_lcdc.o
 .rodata        0x00000000        0x8 build/lcdc_rgba888_mxt_9x60_wvga/production/_ext/129784465/drv_gfx_lcdc.o
 .bss.waitForAlphaSetting
                0x00000000        0xc build/lcdc_rgba888_mxt_9x60_wvga/production/_ext/129784465/drv_gfx_lcdc.o
 .data.DRIVER_NAME
                0x00000000        0x4 build/lcdc_rgba888_mxt_9x60_wvga/production/_ext/129784465/drv_gfx_lcdc.o
 .text          0x00000000        0x0 build/lcdc_rgba888_mxt_9x60_wvga/production/_ext/305146849/legato_math.o
 .data          0x00000000        0x0 build/lcdc_rgba888_mxt_9x60_wvga/production/_ext/305146849/legato_math.o
 .bss           0x00000000        0x0 build/lcdc_rgba888_mxt_9x60_wvga/production/_ext/305146849/legato_math.o
 .text.leEllipsePoint
                0x00000000       0xb8 build/lcdc_rgba888_mxt_9x60_wvga/production/_ext/305146849/legato_math.o
 .text.leAtan   0x00000000        0xc build/lcdc_rgba888_mxt_9x60_wvga/production/_ext/305146849/legato_math.o
 .text.leMinf   0x00000000       0x20 build/lcdc_rgba888_mxt_9x60_wvga/production/_ext/305146849/legato_math.o
 .text.leMaxf   0x00000000       0x20 build/lcdc_rgba888_mxt_9x60_wvga/production/_ext/305146849/legato_math.o
 .text.leClampf
                0x00000000       0x50 build/lcdc_rgba888_mxt_9x60_wvga/production/_ext/305146849/legato_math.o
 .text.lePercentOfDec
                0x00000000       0x68 build/lcdc_rgba888_mxt_9x60_wvga/production/_ext/305146849/legato_math.o
 .text.leScaleIntegerSigned
                0x00000000       0x44 build/lcdc_rgba888_mxt_9x60_wvga/production/_ext/305146849/legato_math.o
 .text.leAbsoluteValue
                0x00000000        0xc build/lcdc_rgba888_mxt_9x60_wvga/production/_ext/305146849/legato_math.o
 .text.leDivideRounding
                0x00000000       0x78 build/lcdc_rgba888_mxt_9x60_wvga/production/_ext/305146849/legato_math.o
 .text.leSortPointsX
                0x00000000       0x34 build/lcdc_rgba888_mxt_9x60_wvga/production/_ext/305146849/legato_math.o
 .text.leSortPointsY
                0x00000000       0x34 build/lcdc_rgba888_mxt_9x60_wvga/production/_ext/305146849/legato_math.o
 .text.leGetXGivenYOnLine
                0x00000000       0x54 build/lcdc_rgba888_mxt_9x60_wvga/production/_ext/305146849/legato_math.o
 .text.leGetYGivenXOnLine
                0x00000000       0x58 build/lcdc_rgba888_mxt_9x60_wvga/production/_ext/305146849/legato_math.o
 .text.leNormalizeAngles
                0x00000000       0x80 build/lcdc_rgba888_mxt_9x60_wvga/production/_ext/305146849/legato_math.o
 .text.leDegreesFromPercent
                0x00000000       0x2c build/lcdc_rgba888_mxt_9x60_wvga/production/_ext/305146849/legato_math.o
 .text.leDegreesToPercent
                0x00000000       0x18 build/lcdc_rgba888_mxt_9x60_wvga/production/_ext/305146849/legato_math.o
 .text          0x00000000        0x0 build/lcdc_rgba888_mxt_9x60_wvga/production/_ext/305146849/legato_color_blend.o
 .data          0x00000000        0x0 build/lcdc_rgba888_mxt_9x60_wvga/production/_ext/305146849/legato_color_blend.o
 .bss           0x00000000        0x0 build/lcdc_rgba888_mxt_9x60_wvga/production/_ext/305146849/legato_color_blend.o
 .text          0x00000000        0x0 build/lcdc_rgba888_mxt_9x60_wvga/production/_ext/305146849/legato_color_convert.o
 .data          0x00000000        0x0 build/lcdc_rgba888_mxt_9x60_wvga/production/_ext/305146849/legato_color_convert.o
 .bss           0x00000000        0x0 build/lcdc_rgba888_mxt_9x60_wvga/production/_ext/305146849/legato_color_convert.o
 .text          0x00000000        0x0 build/lcdc_rgba888_mxt_9x60_wvga/production/_ext/305146849/legato_rect.o
 .data          0x00000000        0x0 build/lcdc_rgba888_mxt_9x60_wvga/production/_ext/305146849/legato_rect.o
 .bss           0x00000000        0x0 build/lcdc_rgba888_mxt_9x60_wvga/production/_ext/305146849/legato_rect.o
 .text.leRectFromPoints
                0x00000000       0x58 build/lcdc_rgba888_mxt_9x60_wvga/production/_ext/305146849/legato_rect.o
 .text.leRectToPoints
                0x00000000       0x3c build/lcdc_rgba888_mxt_9x60_wvga/production/_ext/305146849/legato_rect.o
 .text.leRectSplit
                0x00000000      0x184 build/lcdc_rgba888_mxt_9x60_wvga/production/_ext/305146849/legato_rect.o
 .text          0x00000000        0x0 build/lcdc_rgba888_mxt_9x60_wvga/production/_ext/305146849/legato_color_value.o
 .data          0x00000000        0x0 build/lcdc_rgba888_mxt_9x60_wvga/production/_ext/305146849/legato_color_value.o
 .bss           0x00000000        0x0 build/lcdc_rgba888_mxt_9x60_wvga/production/_ext/305146849/legato_color_value.o
 .text.leColorValue
                0x00000000       0x34 build/lcdc_rgba888_mxt_9x60_wvga/production/_ext/305146849/legato_color_value.o
 .rodata.values
                0x00000000       0x48 build/lcdc_rgba888_mxt_9x60_wvga/production/_ext/305146849/legato_color_value.o
 .debug_info    0x00000000      0x7d2 build/lcdc_rgba888_mxt_9x60_wvga/production/_ext/305146849/legato_color_value.o
 .debug_abbrev  0x00000000      0x17d build/lcdc_rgba888_mxt_9x60_wvga/production/_ext/305146849/legato_color_value.o
 .debug_loc     0x00000000       0x87 build/lcdc_rgba888_mxt_9x60_wvga/production/_ext/305146849/legato_color_value.o
 .debug_aranges
                0x00000000       0x20 build/lcdc_rgba888_mxt_9x60_wvga/production/_ext/305146849/legato_color_value.o
 .debug_ranges  0x00000000       0x10 build/lcdc_rgba888_mxt_9x60_wvga/production/_ext/305146849/legato_color_value.o
 .debug_line    0x00000000      0x10d build/lcdc_rgba888_mxt_9x60_wvga/production/_ext/305146849/legato_color_value.o
 .debug_str     0x00000000       0x30 build/lcdc_rgba888_mxt_9x60_wvga/production/_ext/305146849/legato_color_value.o
 .comment       0x00000000       0x2c build/lcdc_rgba888_mxt_9x60_wvga/production/_ext/305146849/legato_color_value.o
 .debug_frame   0x00000000       0x28 build/lcdc_rgba888_mxt_9x60_wvga/production/_ext/305146849/legato_color_value.o
 .ARM.attributes
                0x00000000       0x2c build/lcdc_rgba888_mxt_9x60_wvga/production/_ext/305146849/legato_color_value.o
 .text          0x00000000        0x0 build/lcdc_rgba888_mxt_9x60_wvga/production/_ext/305146849/legato_utils.o
 .data          0x00000000        0x0 build/lcdc_rgba888_mxt_9x60_wvga/production/_ext/305146849/legato_utils.o
 .bss           0x00000000        0x0 build/lcdc_rgba888_mxt_9x60_wvga/production/_ext/305146849/legato_utils.o
 .text.leUtils_PointToScreenSpace
                0x00000000       0x44 build/lcdc_rgba888_mxt_9x60_wvga/production/_ext/305146849/legato_utils.o
 .text.leUtils_PointScreenToLocalSpace
                0x00000000       0x70 build/lcdc_rgba888_mxt_9x60_wvga/production/_ext/305146849/legato_utils.o
 .text.leUtils_RectToParentSpace
                0x00000000       0x48 build/lcdc_rgba888_mxt_9x60_wvga/production/_ext/305146849/legato_utils.o
 .text.leUtils_RectFromParentSpace
                0x00000000       0x48 build/lcdc_rgba888_mxt_9x60_wvga/production/_ext/305146849/legato_utils.o
 .text.leUtils_ChildIntersectsParent
                0x00000000       0x64 build/lcdc_rgba888_mxt_9x60_wvga/production/_ext/305146849/legato_utils.o
 .text.leUtils_GetNextHighestWidget
                0x00000000       0x7c build/lcdc_rgba888_mxt_9x60_wvga/production/_ext/305146849/legato_utils.o
 .text.leUtils_PointLogicalToScratch
                0x00000000        0x4 build/lcdc_rgba888_mxt_9x60_wvga/production/_ext/305146849/legato_utils.o
 .text.leUtils_RectLogicalToScratch
                0x00000000        0x4 build/lcdc_rgba888_mxt_9x60_wvga/production/_ext/305146849/legato_utils.o
 .text          0x00000000        0x0 build/lcdc_rgba888_mxt_9x60_wvga/production/_ext/305146849/legato_pixelbuffer.o
 .data          0x00000000        0x0 build/lcdc_rgba888_mxt_9x60_wvga/production/_ext/305146849/legato_pixelbuffer.o
 .bss           0x00000000        0x0 build/lcdc_rgba888_mxt_9x60_wvga/production/_ext/305146849/legato_pixelbuffer.o
 .text.lePixelBufferGetIndex
                0x00000000       0x40 build/lcdc_rgba888_mxt_9x60_wvga/production/_ext/305146849/legato_pixelbuffer.o
 .text          0x00000000        0x0 build/lcdc_rgba888_mxt_9x60_wvga/production/_ext/305146849/legato_color_lerp.o
 .data          0x00000000        0x0 build/lcdc_rgba888_mxt_9x60_wvga/production/_ext/305146849/legato_color_lerp.o
 .bss           0x00000000        0x0 build/lcdc_rgba888_mxt_9x60_wvga/production/_ext/305146849/legato_color_lerp.o
 .text          0x00000000        0x0 build/lcdc_rgba888_mxt_9x60_wvga/production/_ext/305146849/legato_error.o
 .data          0x00000000        0x0 build/lcdc_rgba888_mxt_9x60_wvga/production/_ext/305146849/legato_error.o
 .bss           0x00000000        0x0 build/lcdc_rgba888_mxt_9x60_wvga/production/_ext/305146849/legato_error.o
 .debug_info    0x00000000      0x45b build/lcdc_rgba888_mxt_9x60_wvga/production/_ext/305146849/legato_error.o
 .debug_abbrev  0x00000000       0xb5 build/lcdc_rgba888_mxt_9x60_wvga/production/_ext/305146849/legato_error.o
 .debug_aranges
                0x00000000       0x18 build/lcdc_rgba888_mxt_9x60_wvga/production/_ext/305146849/legato_error.o
 .debug_line    0x00000000       0xb8 build/lcdc_rgba888_mxt_9x60_wvga/production/_ext/305146849/legato_error.o
 .debug_str     0x00000000        0x9 build/lcdc_rgba888_mxt_9x60_wvga/production/_ext/305146849/legato_error.o
 .comment       0x00000000       0x2c build/lcdc_rgba888_mxt_9x60_wvga/production/_ext/305146849/legato_error.o
 .ARM.attributes
                0x00000000       0x32 build/lcdc_rgba888_mxt_9x60_wvga/production/_ext/305146849/legato_error.o
 .text          0x00000000        0x0 build/lcdc_rgba888_mxt_9x60_wvga/production/_ext/305146849/legato_color.o
 .data          0x00000000        0x0 build/lcdc_rgba888_mxt_9x60_wvga/production/_ext/305146849/legato_color.o
 .bss           0x00000000        0x0 build/lcdc_rgba888_mxt_9x60_wvga/production/_ext/305146849/legato_color.o
 .text.leColorChannelRed
                0x00000000       0x20 build/lcdc_rgba888_mxt_9x60_wvga/production/_ext/305146849/legato_color.o
 .text.leColorChannelGreen
                0x00000000       0x20 build/lcdc_rgba888_mxt_9x60_wvga/production/_ext/305146849/legato_color.o
 .text.leColorChannelBlue
                0x00000000       0x20 build/lcdc_rgba888_mxt_9x60_wvga/production/_ext/305146849/legato_color.o
 .text          0x00000000        0x0 build/lcdc_rgba888_mxt_9x60_wvga/production/_ext/1618192685/legato_state.o
 .data          0x00000000        0x0 build/lcdc_rgba888_mxt_9x60_wvga/production/_ext/1618192685/legato_state.o
 .bss           0x00000000        0x0 build/lcdc_rgba888_mxt_9x60_wvga/production/_ext/1618192685/legato_state.o
 .text.updateWidgetLanguage
                0x00000000       0x44 build/lcdc_rgba888_mxt_9x60_wvga/production/_ext/1618192685/legato_state.o
 .text.leShutdown
                0x00000000       0xa0 build/lcdc_rgba888_mxt_9x60_wvga/production/_ext/1618192685/legato_state.o
 .text.leLayerCount
                0x00000000       0x24 build/lcdc_rgba888_mxt_9x60_wvga/production/_ext/1618192685/legato_state.o
 .text.leRemoveLayer
                0x00000000       0x84 build/lcdc_rgba888_mxt_9x60_wvga/production/_ext/1618192685/legato_state.o
 .text.leSetLayerRenderHorizontal
                0x00000000       0x5c build/lcdc_rgba888_mxt_9x60_wvga/production/_ext/1618192685/legato_state.o
 .text.leGetLayerClearMode
                0x00000000       0x54 build/lcdc_rgba888_mxt_9x60_wvga/production/_ext/1618192685/legato_state.o
 .text.leSetLayerClearMode
                0x00000000       0x5c build/lcdc_rgba888_mxt_9x60_wvga/production/_ext/1618192685/legato_state.o
 .text.leGetStringTable
                0x00000000       0x10 build/lcdc_rgba888_mxt_9x60_wvga/production/_ext/1618192685/legato_state.o
 .text.leGetStringLanguage
                0x00000000       0x10 build/lcdc_rgba888_mxt_9x60_wvga/production/_ext/1618192685/legato_state.o
 .text.leSetStringLanguage
                0x00000000       0x5c build/lcdc_rgba888_mxt_9x60_wvga/production/_ext/1618192685/legato_state.o
 .text.leGetDefaultScheme
                0x00000000        0xc build/lcdc_rgba888_mxt_9x60_wvga/production/_ext/1618192685/legato_state.o
 .text.leEdit_StartEdit
                0x00000000       0x30 build/lcdc_rgba888_mxt_9x60_wvga/production/_ext/1618192685/legato_state.o
 .text.leEdit_EndEdit
                0x00000000       0x28 build/lcdc_rgba888_mxt_9x60_wvga/production/_ext/1618192685/legato_state.o
 .text.leEdit_Clear
                0x00000000       0x28 build/lcdc_rgba888_mxt_9x60_wvga/production/_ext/1618192685/legato_state.o
 .text.leEdit_Accept
                0x00000000       0x28 build/lcdc_rgba888_mxt_9x60_wvga/production/_ext/1618192685/legato_state.o
 .text.leEdit_Set
                0x00000000       0x30 build/lcdc_rgba888_mxt_9x60_wvga/production/_ext/1618192685/legato_state.o
 .text.leEdit_Append
                0x00000000       0x30 build/lcdc_rgba888_mxt_9x60_wvga/production/_ext/1618192685/legato_state.o
 .text.leEdit_Backspace
                0x00000000       0x28 build/lcdc_rgba888_mxt_9x60_wvga/production/_ext/1618192685/legato_state.o
 .text          0x00000000        0x0 build/lcdc_rgba888_mxt_9x60_wvga/production/_ext/1618192685/legato_stream.o
 .data          0x00000000        0x0 build/lcdc_rgba888_mxt_9x60_wvga/production/_ext/1618192685/legato_stream.o
 .bss           0x00000000        0x0 build/lcdc_rgba888_mxt_9x60_wvga/production/_ext/1618192685/legato_stream.o
 .debug_info    0x00000000      0x45a build/lcdc_rgba888_mxt_9x60_wvga/production/_ext/1618192685/legato_stream.o
 .debug_abbrev  0x00000000       0xb5 build/lcdc_rgba888_mxt_9x60_wvga/production/_ext/1618192685/legato_stream.o
 .debug_aranges
                0x00000000       0x18 build/lcdc_rgba888_mxt_9x60_wvga/production/_ext/1618192685/legato_stream.o
 .debug_line    0x00000000       0xb8 build/lcdc_rgba888_mxt_9x60_wvga/production/_ext/1618192685/legato_stream.o
 .debug_str     0x00000000        0x9 build/lcdc_rgba888_mxt_9x60_wvga/production/_ext/1618192685/legato_stream.o
 .comment       0x00000000       0x2c build/lcdc_rgba888_mxt_9x60_wvga/production/_ext/1618192685/legato_stream.o
 .ARM.attributes
                0x00000000       0x32 build/lcdc_rgba888_mxt_9x60_wvga/production/_ext/1618192685/legato_stream.o
 .text          0x00000000        0x0 build/lcdc_rgba888_mxt_9x60_wvga/production/_ext/1618192685/legato_scheme.o
 .data          0x00000000        0x0 build/lcdc_rgba888_mxt_9x60_wvga/production/_ext/1618192685/legato_scheme.o
 .bss           0x00000000        0x0 build/lcdc_rgba888_mxt_9x60_wvga/production/_ext/1618192685/legato_scheme.o
 .text.leScheme_Initialize
                0x00000000       0x20 build/lcdc_rgba888_mxt_9x60_wvga/production/_ext/1618192685/legato_scheme.o
 .text.leScheme_GetColor
                0x00000000       0x1c build/lcdc_rgba888_mxt_9x60_wvga/production/_ext/1618192685/legato_scheme.o
 .text          0x00000000        0x0 build/lcdc_rgba888_mxt_9x60_wvga/production/_ext/1618192685/legato_event.o
 .data          0x00000000        0x0 build/lcdc_rgba888_mxt_9x60_wvga/production/_ext/1618192685/legato_event.o
 .bss           0x00000000        0x0 build/lcdc_rgba888_mxt_9x60_wvga/production/_ext/1618192685/legato_event.o
 .text.leEvent_Shutdown
                0x00000000       0x14 build/lcdc_rgba888_mxt_9x60_wvga/production/_ext/1618192685/legato_event.o
 .text.leEvent_GetCount
                0x00000000       0x10 build/lcdc_rgba888_mxt_9x60_wvga/production/_ext/1618192685/legato_event.o
 .text.leEvent_SetFilter
                0x00000000       0x14 build/lcdc_rgba888_mxt_9x60_wvga/production/_ext/1618192685/legato_event.o
 .text.leEvent_ClearList
                0x00000000       0x18 build/lcdc_rgba888_mxt_9x60_wvga/production/_ext/1618192685/legato_event.o
 .text          0x00000000        0x0 build/lcdc_rgba888_mxt_9x60_wvga/production/_ext/1618192685/legato_input.o
 .data          0x00000000        0x0 build/lcdc_rgba888_mxt_9x60_wvga/production/_ext/1618192685/legato_input.o
 .bss           0x00000000        0x0 build/lcdc_rgba888_mxt_9x60_wvga/production/_ext/1618192685/legato_input.o
 .text._leGetInputState
                0x00000000        0xc build/lcdc_rgba888_mxt_9x60_wvga/production/_ext/1618192685/legato_input.o
 .text.leInput_Shutdown
                0x00000000        0x4 build/lcdc_rgba888_mxt_9x60_wvga/production/_ext/1618192685/legato_input.o
 .text.leInput_GetEnabled
                0x00000000       0x10 build/lcdc_rgba888_mxt_9x60_wvga/production/_ext/1618192685/legato_input.o
 .text.leInput_SetEnabled
                0x00000000       0x14 build/lcdc_rgba888_mxt_9x60_wvga/production/_ext/1618192685/legato_input.o
 .text          0x00000000        0x0 build/lcdc_rgba888_mxt_9x60_wvga/production/_ext/109670485/legato_rectarray.o
 .data          0x00000000        0x0 build/lcdc_rgba888_mxt_9x60_wvga/production/_ext/109670485/legato_rectarray.o
 .bss           0x00000000        0x0 build/lcdc_rgba888_mxt_9x60_wvga/production/_ext/109670485/legato_rectarray.o
 .text._shuffleRight
                0x00000000       0xa4 build/lcdc_rgba888_mxt_9x60_wvga/production/_ext/109670485/legato_rectarray.o
 .text.leRectArray_PushFront
                0x00000000       0x78 build/lcdc_rgba888_mxt_9x60_wvga/production/_ext/109670485/legato_rectarray.o
 .text.leRectArray_PopFront
                0x00000000       0x38 build/lcdc_rgba888_mxt_9x60_wvga/production/_ext/109670485/legato_rectarray.o
 .text.leRectArray_PopBack
                0x00000000       0x34 build/lcdc_rgba888_mxt_9x60_wvga/production/_ext/109670485/legato_rectarray.o
 .text.leRectArray_InsertAt
                0x00000000       0xa8 build/lcdc_rgba888_mxt_9x60_wvga/production/_ext/109670485/legato_rectarray.o
 .text.leRectArray_PadRectangles
                0x00000000       0x14 build/lcdc_rgba888_mxt_9x60_wvga/production/_ext/109670485/legato_rectarray.o
 .text.leRectArray_PadRectangleHeight
                0x00000000       0xdc build/lcdc_rgba888_mxt_9x60_wvga/production/_ext/109670485/legato_rectarray.o
 .text.leRectArray_CropToArea
                0x00000000       0xd4 build/lcdc_rgba888_mxt_9x60_wvga/production/_ext/109670485/legato_rectarray.o
 .text          0x00000000        0x0 build/lcdc_rgba888_mxt_9x60_wvga/production/_ext/109670485/legato_array.o
 .data          0x00000000        0x0 build/lcdc_rgba888_mxt_9x60_wvga/production/_ext/109670485/legato_array.o
 .bss           0x00000000        0x0 build/lcdc_rgba888_mxt_9x60_wvga/production/_ext/109670485/legato_array.o
 .text.leArray_PushFront
                0x00000000       0x70 build/lcdc_rgba888_mxt_9x60_wvga/production/_ext/109670485/legato_array.o
 .text.leArray_PopFront
                0x00000000       0x38 build/lcdc_rgba888_mxt_9x60_wvga/production/_ext/109670485/legato_array.o
 .text.leArray_PopBack
                0x00000000       0x34 build/lcdc_rgba888_mxt_9x60_wvga/production/_ext/109670485/legato_array.o
 .text.leArray_Set
                0x00000000       0x1c build/lcdc_rgba888_mxt_9x60_wvga/production/_ext/109670485/legato_array.o
 .text.leArray_Copy
                0x00000000       0x74 build/lcdc_rgba888_mxt_9x60_wvga/production/_ext/109670485/legato_array.o
 .text          0x00000000        0x0 build/lcdc_rgba888_mxt_9x60_wvga/production/_ext/109670485/legato_list.o
 .data          0x00000000        0x0 build/lcdc_rgba888_mxt_9x60_wvga/production/_ext/109670485/legato_list.o
 .bss           0x00000000        0x0 build/lcdc_rgba888_mxt_9x60_wvga/production/_ext/109670485/legato_list.o
 .text.leList_Assign
                0x00000000       0x58 build/lcdc_rgba888_mxt_9x60_wvga/production/_ext/109670485/legato_list.o
 .text.leList_PushFront
                0x00000000       0x74 build/lcdc_rgba888_mxt_9x60_wvga/production/_ext/109670485/legato_list.o
 .text.leList_PopFront
                0x00000000       0x5c build/lcdc_rgba888_mxt_9x60_wvga/production/_ext/109670485/legato_list.o
 .text.leList_Find
                0x00000000       0x6c build/lcdc_rgba888_mxt_9x60_wvga/production/_ext/109670485/legato_list.o
 .text.leList_InsertAt
                0x00000000       0xc4 build/lcdc_rgba888_mxt_9x60_wvga/production/_ext/109670485/legato_list.o
 .text.leList_RemoveAt
                0x00000000       0xa0 build/lcdc_rgba888_mxt_9x60_wvga/production/_ext/109670485/legato_list.o
 .text.leList_Clear
                0x00000000       0x40 build/lcdc_rgba888_mxt_9x60_wvga/production/_ext/109670485/legato_list.o
 .text.leList_Copy
                0x00000000       0xa8 build/lcdc_rgba888_mxt_9x60_wvga/production/_ext/109670485/legato_list.o
 .text          0x00000000        0x0 build/lcdc_rgba888_mxt_9x60_wvga/production/_ext/1618103421/legato_rasterfont_liberationmono1.o
 .data          0x00000000        0x0 build/lcdc_rgba888_mxt_9x60_wvga/production/_ext/1618103421/legato_rasterfont_liberationmono1.o
 .bss           0x00000000        0x0 build/lcdc_rgba888_mxt_9x60_wvga/production/_ext/1618103421/legato_rasterfont_liberationmono1.o
 .debug_info    0x00000000      0x46e build/lcdc_rgba888_mxt_9x60_wvga/production/_ext/1618103421/legato_rasterfont_liberationmono1.o
 .debug_abbrev  0x00000000       0xb5 build/lcdc_rgba888_mxt_9x60_wvga/production/_ext/1618103421/legato_rasterfont_liberationmono1.o
 .debug_aranges
                0x00000000       0x18 build/lcdc_rgba888_mxt_9x60_wvga/production/_ext/1618103421/legato_rasterfont_liberationmono1.o
 .debug_line    0x00000000       0xb8 build/lcdc_rgba888_mxt_9x60_wvga/production/_ext/1618103421/legato_rasterfont_liberationmono1.o
 .debug_str     0x00000000        0x9 build/lcdc_rgba888_mxt_9x60_wvga/production/_ext/1618103421/legato_rasterfont_liberationmono1.o
 .comment       0x00000000       0x2c build/lcdc_rgba888_mxt_9x60_wvga/production/_ext/1618103421/legato_rasterfont_liberationmono1.o
 .ARM.attributes
                0x00000000       0x32 build/lcdc_rgba888_mxt_9x60_wvga/production/_ext/1618103421/legato_rasterfont_liberationmono1.o
 .text          0x00000000        0x0 build/lcdc_rgba888_mxt_9x60_wvga/production/_ext/1618103421/legato_rasterfont_stream.o
 .data          0x00000000        0x0 build/lcdc_rgba888_mxt_9x60_wvga/production/_ext/1618103421/legato_rasterfont_stream.o
 .bss           0x00000000        0x0 build/lcdc_rgba888_mxt_9x60_wvga/production/_ext/1618103421/legato_rasterfont_stream.o
 .debug_info    0x00000000      0xcf5 build/lcdc_rgba888_mxt_9x60_wvga/production/_ext/1618103421/legato_rasterfont_stream.o
 .debug_abbrev  0x00000000      0x17b build/lcdc_rgba888_mxt_9x60_wvga/production/_ext/1618103421/legato_rasterfont_stream.o
 .debug_aranges
                0x00000000       0x18 build/lcdc_rgba888_mxt_9x60_wvga/production/_ext/1618103421/legato_rasterfont_stream.o
 .debug_line    0x00000000      0x10d build/lcdc_rgba888_mxt_9x60_wvga/production/_ext/1618103421/legato_rasterfont_stream.o
 .debug_str     0x00000000       0x8b build/lcdc_rgba888_mxt_9x60_wvga/production/_ext/1618103421/legato_rasterfont_stream.o
 .comment       0x00000000       0x2c build/lcdc_rgba888_mxt_9x60_wvga/production/_ext/1618103421/legato_rasterfont_stream.o
 .ARM.attributes
                0x00000000       0x32 build/lcdc_rgba888_mxt_9x60_wvga/production/_ext/1618103421/legato_rasterfont_stream.o
 .text          0x00000000        0x0 build/lcdc_rgba888_mxt_9x60_wvga/production/_ext/1618103421/legato_font.o
 .data          0x00000000        0x0 build/lcdc_rgba888_mxt_9x60_wvga/production/_ext/1618103421/legato_font.o
 .bss           0x00000000        0x0 build/lcdc_rgba888_mxt_9x60_wvga/production/_ext/1618103421/legato_font.o
 .text.leFont_GetGlyphRect
                0x00000000       0x34 build/lcdc_rgba888_mxt_9x60_wvga/production/_ext/1618103421/legato_font.o
 .text          0x00000000        0x0 build/lcdc_rgba888_mxt_9x60_wvga/production/_ext/1618103421/legato_rasterfont_liberationmono8.o
 .data          0x00000000        0x0 build/lcdc_rgba888_mxt_9x60_wvga/production/_ext/1618103421/legato_rasterfont_liberationmono8.o
 .bss           0x00000000        0x0 build/lcdc_rgba888_mxt_9x60_wvga/production/_ext/1618103421/legato_rasterfont_liberationmono8.o
 .debug_info    0x00000000      0x46e build/lcdc_rgba888_mxt_9x60_wvga/production/_ext/1618103421/legato_rasterfont_liberationmono8.o
 .debug_abbrev  0x00000000       0xb5 build/lcdc_rgba888_mxt_9x60_wvga/production/_ext/1618103421/legato_rasterfont_liberationmono8.o
 .debug_aranges
                0x00000000       0x18 build/lcdc_rgba888_mxt_9x60_wvga/production/_ext/1618103421/legato_rasterfont_liberationmono8.o
 .debug_line    0x00000000       0xb8 build/lcdc_rgba888_mxt_9x60_wvga/production/_ext/1618103421/legato_rasterfont_liberationmono8.o
 .debug_str     0x00000000        0x9 build/lcdc_rgba888_mxt_9x60_wvga/production/_ext/1618103421/legato_rasterfont_liberationmono8.o
 .comment       0x00000000       0x2c build/lcdc_rgba888_mxt_9x60_wvga/production/_ext/1618103421/legato_rasterfont_liberationmono8.o
 .ARM.attributes
                0x00000000       0x32 build/lcdc_rgba888_mxt_9x60_wvga/production/_ext/1618103421/legato_rasterfont_liberationmono8.o
 .text          0x00000000        0x0 build/lcdc_rgba888_mxt_9x60_wvga/production/_ext/644506877/le_gen_fonts.o
 .data          0x00000000        0x0 build/lcdc_rgba888_mxt_9x60_wvga/production/_ext/644506877/le_gen_fonts.o
 .bss           0x00000000        0x0 build/lcdc_rgba888_mxt_9x60_wvga/production/_ext/644506877/le_gen_fonts.o
 .text          0x00000000        0x0 build/lcdc_rgba888_mxt_9x60_wvga/production/_ext/1497821479/le_gen_images.o
 .data          0x00000000        0x0 build/lcdc_rgba888_mxt_9x60_wvga/production/_ext/1497821479/le_gen_images.o
 .bss           0x00000000        0x0 build/lcdc_rgba888_mxt_9x60_wvga/production/_ext/1497821479/le_gen_images.o
 .data.Battery0
                0x00000000       0x3c build/lcdc_rgba888_mxt_9x60_wvga/production/_ext/1497821479/le_gen_images.o
 .data.Battery1
                0x00000000       0x3c build/lcdc_rgba888_mxt_9x60_wvga/production/_ext/1497821479/le_gen_images.o
 .data.Battery10
                0x00000000       0x3c build/lcdc_rgba888_mxt_9x60_wvga/production/_ext/1497821479/le_gen_images.o
 .data.Battery2
                0x00000000       0x3c build/lcdc_rgba888_mxt_9x60_wvga/production/_ext/1497821479/le_gen_images.o
 .data.Battery3
                0x00000000       0x3c build/lcdc_rgba888_mxt_9x60_wvga/production/_ext/1497821479/le_gen_images.o
 .data.Battery4
                0x00000000       0x3c build/lcdc_rgba888_mxt_9x60_wvga/production/_ext/1497821479/le_gen_images.o
 .data.Battery6
                0x00000000       0x3c build/lcdc_rgba888_mxt_9x60_wvga/production/_ext/1497821479/le_gen_images.o
 .data.Battery7
                0x00000000       0x3c build/lcdc_rgba888_mxt_9x60_wvga/production/_ext/1497821479/le_gen_images.o
 .data.Battery8
                0x00000000       0x3c build/lcdc_rgba888_mxt_9x60_wvga/production/_ext/1497821479/le_gen_images.o
 .data.Battery9
                0x00000000       0x3c build/lcdc_rgba888_mxt_9x60_wvga/production/_ext/1497821479/le_gen_images.o
 .data.MHGS_logo_smaller
                0x00000000       0x3c build/lcdc_rgba888_mxt_9x60_wvga/production/_ext/1497821479/le_gen_images.o
 .data.QuickstartDown_WQVGA
                0x00000000       0x3c build/lcdc_rgba888_mxt_9x60_wvga/production/_ext/1497821479/le_gen_images.o
 .data.QuickstartUp_WQVGA
                0x00000000       0x3c build/lcdc_rgba888_mxt_9x60_wvga/production/_ext/1497821479/le_gen_images.o
 .data.mchpLogo_small
                0x00000000       0x3c build/lcdc_rgba888_mxt_9x60_wvga/production/_ext/1497821479/le_gen_images.o
 .data.round_power_off
                0x00000000       0x3c build/lcdc_rgba888_mxt_9x60_wvga/production/_ext/1497821479/le_gen_images.o
 .data.round_power_on
                0x00000000       0x3c build/lcdc_rgba888_mxt_9x60_wvga/production/_ext/1497821479/le_gen_images.o
 .rodata.Battery0_data
                0x00000000     0x334c build/lcdc_rgba888_mxt_9x60_wvga/production/_ext/1497821479/le_gen_images.o
 .rodata.Battery10_data
                0x00000000     0x5b18 build/lcdc_rgba888_mxt_9x60_wvga/production/_ext/1497821479/le_gen_images.o
 .rodata.Battery1_data
                0x00000000     0x3350 build/lcdc_rgba888_mxt_9x60_wvga/production/_ext/1497821479/le_gen_images.o
 .rodata.Battery2_data
                0x00000000     0x3364 build/lcdc_rgba888_mxt_9x60_wvga/production/_ext/1497821479/le_gen_images.o
 .rodata.Battery3_data
                0x00000000     0x3374 build/lcdc_rgba888_mxt_9x60_wvga/production/_ext/1497821479/le_gen_images.o
 .rodata.Battery4_data
                0x00000000     0x3734 build/lcdc_rgba888_mxt_9x60_wvga/production/_ext/1497821479/le_gen_images.o
 .rodata.Battery6_data
                0x00000000     0x4810 build/lcdc_rgba888_mxt_9x60_wvga/production/_ext/1497821479/le_gen_images.o
 .rodata.Battery7_data
                0x00000000     0x4a84 build/lcdc_rgba888_mxt_9x60_wvga/production/_ext/1497821479/le_gen_images.o
 .rodata.Battery8_data
                0x00000000     0x50f8 build/lcdc_rgba888_mxt_9x60_wvga/production/_ext/1497821479/le_gen_images.o
 .rodata.Battery9_data
                0x00000000     0x5564 build/lcdc_rgba888_mxt_9x60_wvga/production/_ext/1497821479/le_gen_images.o
 .rodata.MHGS_logo_smaller_data
                0x00000000    0x1db50 build/lcdc_rgba888_mxt_9x60_wvga/production/_ext/1497821479/le_gen_images.o
 .rodata.QuickstartDown_WQVGA_data
                0x00000000     0xb900 build/lcdc_rgba888_mxt_9x60_wvga/production/_ext/1497821479/le_gen_images.o
 .rodata.QuickstartUp_WQVGA_data
                0x00000000     0xb900 build/lcdc_rgba888_mxt_9x60_wvga/production/_ext/1497821479/le_gen_images.o
 .rodata.mchpLogo_small_data
                0x00000000     0x3480 build/lcdc_rgba888_mxt_9x60_wvga/production/_ext/1497821479/le_gen_images.o
 .rodata.round_power_off_data
                0x00000000     0x15bc build/lcdc_rgba888_mxt_9x60_wvga/production/_ext/1497821479/le_gen_images.o
 .rodata.round_power_on_data
                0x00000000     0x1680 build/lcdc_rgba888_mxt_9x60_wvga/production/_ext/1497821479/le_gen_images.o
 .text          0x00000000        0x0 build/lcdc_rgba888_mxt_9x60_wvga/production/_ext/534613472/le_gen_screen_Screen0.o
 .data          0x00000000        0x0 build/lcdc_rgba888_mxt_9x60_wvga/production/_ext/534613472/le_gen_screen_Screen0.o
 .bss           0x00000000        0x0 build/lcdc_rgba888_mxt_9x60_wvga/production/_ext/534613472/le_gen_screen_Screen0.o
 .text.screenDestroy_Screen0
                0x00000000       0x20 build/lcdc_rgba888_mxt_9x60_wvga/production/_ext/534613472/le_gen_screen_Screen0.o
 .text.screenGetRoot_Screen0
                0x00000000       0x60 build/lcdc_rgba888_mxt_9x60_wvga/production/_ext/534613472/le_gen_screen_Screen0.o
 .text          0x00000000        0x0 build/lcdc_rgba888_mxt_9x60_wvga/production/_ext/534613472/le_gen_screen_Screen1.o
 .data          0x00000000        0x0 build/lcdc_rgba888_mxt_9x60_wvga/production/_ext/534613472/le_gen_screen_Screen1.o
 .bss           0x00000000        0x0 build/lcdc_rgba888_mxt_9x60_wvga/production/_ext/534613472/le_gen_screen_Screen1.o
 .text.screenDestroy_Screen1
                0x00000000       0x20 build/lcdc_rgba888_mxt_9x60_wvga/production/_ext/534613472/le_gen_screen_Screen1.o
 .text.screenGetRoot_Screen1
                0x00000000       0x60 build/lcdc_rgba888_mxt_9x60_wvga/production/_ext/534613472/le_gen_screen_Screen1.o
 .text          0x00000000        0x0 build/lcdc_rgba888_mxt_9x60_wvga/production/_ext/706129189/le_gen_init.o
 .data          0x00000000        0x0 build/lcdc_rgba888_mxt_9x60_wvga/production/_ext/706129189/le_gen_init.o
 .bss           0x00000000        0x0 build/lcdc_rgba888_mxt_9x60_wvga/production/_ext/706129189/le_gen_init.o
 .text.legato_isChangingScreens
                0x00000000       0x18 build/lcdc_rgba888_mxt_9x60_wvga/production/_ext/706129189/le_gen_init.o
 .text          0x00000000        0x0 build/lcdc_rgba888_mxt_9x60_wvga/production/_ext/706129189/le_gen_globalpalette.o
 .data          0x00000000        0x0 build/lcdc_rgba888_mxt_9x60_wvga/production/_ext/706129189/le_gen_globalpalette.o
 .bss           0x00000000        0x0 build/lcdc_rgba888_mxt_9x60_wvga/production/_ext/706129189/le_gen_globalpalette.o
 .text          0x00000000        0x0 build/lcdc_rgba888_mxt_9x60_wvga/production/_ext/706129189/le_gen_scheme.o
 .data          0x00000000        0x0 build/lcdc_rgba888_mxt_9x60_wvga/production/_ext/706129189/le_gen_scheme.o
 .bss           0x00000000        0x0 build/lcdc_rgba888_mxt_9x60_wvga/production/_ext/706129189/le_gen_scheme.o
 .rodata.BlueScheme
                0x00000000      0x2c8 build/lcdc_rgba888_mxt_9x60_wvga/production/_ext/706129189/le_gen_scheme.o
 .rodata.GreenScheme
                0x00000000      0x2c8 build/lcdc_rgba888_mxt_9x60_wvga/production/_ext/706129189/le_gen_scheme.o
 .rodata.RedScheme
                0x00000000      0x2c8 build/lcdc_rgba888_mxt_9x60_wvga/production/_ext/706129189/le_gen_scheme.o
 .text          0x00000000        0x0 build/lcdc_rgba888_mxt_9x60_wvga/production/_ext/706129189/le_gen_stringtable.o
 .data          0x00000000        0x0 build/lcdc_rgba888_mxt_9x60_wvga/production/_ext/706129189/le_gen_stringtable.o
 .bss           0x00000000        0x0 build/lcdc_rgba888_mxt_9x60_wvga/production/_ext/706129189/le_gen_stringtable.o
 .text          0x00000000        0x0 build/lcdc_rgba888_mxt_9x60_wvga/production/_ext/706129189/le_gen_harmony.o
 .data          0x00000000        0x0 build/lcdc_rgba888_mxt_9x60_wvga/production/_ext/706129189/le_gen_harmony.o
 .bss           0x00000000        0x0 build/lcdc_rgba888_mxt_9x60_wvga/production/_ext/706129189/le_gen_harmony.o
 .text          0x00000000        0x0 build/lcdc_rgba888_mxt_9x60_wvga/production/_ext/2086705360/legato_imagedecoder_jpeg.o
 .data          0x00000000        0x0 build/lcdc_rgba888_mxt_9x60_wvga/production/_ext/2086705360/legato_imagedecoder_jpeg.o
 .bss           0x00000000        0x0 build/lcdc_rgba888_mxt_9x60_wvga/production/_ext/2086705360/legato_imagedecoder_jpeg.o
 .text          0x00000000        0x0 build/lcdc_rgba888_mxt_9x60_wvga/production/_ext/2086705360/legato_imagedecoder_jpeg_common.o
 .data          0x00000000        0x0 build/lcdc_rgba888_mxt_9x60_wvga/production/_ext/2086705360/legato_imagedecoder_jpeg_common.o
 .bss           0x00000000        0x0 build/lcdc_rgba888_mxt_9x60_wvga/production/_ext/2086705360/legato_imagedecoder_jpeg_common.o
 .text.JPEG_bInterpretResourceHeader
                0x00000000       0x3c build/lcdc_rgba888_mxt_9x60_wvga/production/_ext/2086705360/legato_imagedecoder_jpeg_common.o
 .bss.JPEG_JpegDecoder
                0x00000000      0xa10 build/lcdc_rgba888_mxt_9x60_wvga/production/_ext/2086705360/legato_imagedecoder_jpeg_common.o
 .text          0x00000000        0x0 build/lcdc_rgba888_mxt_9x60_wvga/production/_ext/2086705360/jidctint.o
 .data          0x00000000        0x0 build/lcdc_rgba888_mxt_9x60_wvga/production/_ext/2086705360/jidctint.o
 .bss           0x00000000        0x0 build/lcdc_rgba888_mxt_9x60_wvga/production/_ext/2086705360/jidctint.o
 .text          0x00000000        0x0 build/lcdc_rgba888_mxt_9x60_wvga/production/_ext/2086794059/legato_imagedecoder_mono_read_stream.o
 .data          0x00000000        0x0 build/lcdc_rgba888_mxt_9x60_wvga/production/_ext/2086794059/legato_imagedecoder_mono_read_stream.o
 .bss           0x00000000        0x0 build/lcdc_rgba888_mxt_9x60_wvga/production/_ext/2086794059/legato_imagedecoder_mono_read_stream.o
 .debug_info    0x00000000      0x477 build/lcdc_rgba888_mxt_9x60_wvga/production/_ext/2086794059/legato_imagedecoder_mono_read_stream.o
 .debug_abbrev  0x00000000       0xb5 build/lcdc_rgba888_mxt_9x60_wvga/production/_ext/2086794059/legato_imagedecoder_mono_read_stream.o
 .debug_aranges
                0x00000000       0x18 build/lcdc_rgba888_mxt_9x60_wvga/production/_ext/2086794059/legato_imagedecoder_mono_read_stream.o
 .debug_line    0x00000000       0xb8 build/lcdc_rgba888_mxt_9x60_wvga/production/_ext/2086794059/legato_imagedecoder_mono_read_stream.o
 .debug_str     0x00000000        0x9 build/lcdc_rgba888_mxt_9x60_wvga/production/_ext/2086794059/legato_imagedecoder_mono_read_stream.o
 .comment       0x00000000       0x2c build/lcdc_rgba888_mxt_9x60_wvga/production/_ext/2086794059/legato_imagedecoder_mono_read_stream.o
 .ARM.attributes
                0x00000000       0x32 build/lcdc_rgba888_mxt_9x60_wvga/production/_ext/2086794059/legato_imagedecoder_mono_read_stream.o
 .text          0x00000000        0x0 build/lcdc_rgba888_mxt_9x60_wvga/production/_ext/2086794059/legato_imagedecoder_mono_read_internal.o
 .data          0x00000000        0x0 build/lcdc_rgba888_mxt_9x60_wvga/production/_ext/2086794059/legato_imagedecoder_mono_read_internal.o
 .bss           0x00000000        0x0 build/lcdc_rgba888_mxt_9x60_wvga/production/_ext/2086794059/legato_imagedecoder_mono_read_internal.o
 .text          0x00000000        0x0 build/lcdc_rgba888_mxt_9x60_wvga/production/_ext/2086794059/legato_imagedecoder_mono.o
 .data          0x00000000        0x0 build/lcdc_rgba888_mxt_9x60_wvga/production/_ext/2086794059/legato_imagedecoder_mono.o
 .bss           0x00000000        0x0 build/lcdc_rgba888_mxt_9x60_wvga/production/_ext/2086794059/legato_imagedecoder_mono.o
 .text          0x00000000        0x0 build/lcdc_rgba888_mxt_9x60_wvga/production/_ext/1872343871/lodepng.o
 .data          0x00000000        0x0 build/lcdc_rgba888_mxt_9x60_wvga/production/_ext/1872343871/lodepng.o
 .bss           0x00000000        0x0 build/lcdc_rgba888_mxt_9x60_wvga/production/_ext/1872343871/lodepng.o
 .text.lodepng_decompress_settings_init
                0x00000000       0x18 build/lcdc_rgba888_mxt_9x60_wvga/production/_ext/1872343871/lodepng.o
 .text.lodepng_chunk_length
                0x00000000        0xc build/lcdc_rgba888_mxt_9x60_wvga/production/_ext/1872343871/lodepng.o
 .text.lodepng_chunk_type
                0x00000000       0x28 build/lcdc_rgba888_mxt_9x60_wvga/production/_ext/1872343871/lodepng.o
 .text.lodepng_chunk_ancillary
                0x00000000       0x10 build/lcdc_rgba888_mxt_9x60_wvga/production/_ext/1872343871/lodepng.o
 .text.lodepng_chunk_private
                0x00000000       0x10 build/lcdc_rgba888_mxt_9x60_wvga/production/_ext/1872343871/lodepng.o
 .text.lodepng_chunk_safetocopy
                0x00000000       0x10 build/lcdc_rgba888_mxt_9x60_wvga/production/_ext/1872343871/lodepng.o
 .text.lodepng_chunk_data
                0x00000000        0x8 build/lcdc_rgba888_mxt_9x60_wvga/production/_ext/1872343871/lodepng.o
 .text.lodepng_chunk_data_const
                0x00000000        0x8 build/lcdc_rgba888_mxt_9x60_wvga/production/_ext/1872343871/lodepng.o
 .text.lodepng_chunk_generate_crc
                0x00000000       0x44 build/lcdc_rgba888_mxt_9x60_wvga/production/_ext/1872343871/lodepng.o
 .text.lodepng_chunk_next
                0x00000000       0x18 build/lcdc_rgba888_mxt_9x60_wvga/production/_ext/1872343871/lodepng.o
 .text.lodepng_chunk_create
                0x00000000       0xe8 build/lcdc_rgba888_mxt_9x60_wvga/production/_ext/1872343871/lodepng.o
 .text.lodepng_color_mode_cleanup
                0x00000000        0xc build/lcdc_rgba888_mxt_9x60_wvga/production/_ext/1872343871/lodepng.o
 .text.lodepng_palette_add
                0x00000000       0x94 build/lcdc_rgba888_mxt_9x60_wvga/production/_ext/1872343871/lodepng.o
 .text.lodepng_get_channels
                0x00000000       0x10 build/lcdc_rgba888_mxt_9x60_wvga/production/_ext/1872343871/lodepng.o
 .text.lodepng_is_greyscale_type
                0x00000000       0x14 build/lcdc_rgba888_mxt_9x60_wvga/production/_ext/1872343871/lodepng.o
 .text.lodepng_is_alpha_type
                0x00000000       0x10 build/lcdc_rgba888_mxt_9x60_wvga/production/_ext/1872343871/lodepng.o
 .text.lodepng_is_palette_type
                0x00000000       0x14 build/lcdc_rgba888_mxt_9x60_wvga/production/_ext/1872343871/lodepng.o
 .text.lodepng_has_palette_alpha
                0x00000000       0x58 build/lcdc_rgba888_mxt_9x60_wvga/production/_ext/1872343871/lodepng.o
 .text.lodepng_can_have_alpha
                0x00000000       0x3c build/lcdc_rgba888_mxt_9x60_wvga/production/_ext/1872343871/lodepng.o
 .text.lodepng_get_raw_size_lct
                0x00000000       0x3c build/lcdc_rgba888_mxt_9x60_wvga/production/_ext/1872343871/lodepng.o
 .text.lodepng_clear_text
                0x00000000        0xc build/lcdc_rgba888_mxt_9x60_wvga/production/_ext/1872343871/lodepng.o
 .text.lodepng_clear_itext
                0x00000000        0xc build/lcdc_rgba888_mxt_9x60_wvga/production/_ext/1872343871/lodepng.o
 .text.lodepng_info_copy
                0x00000000      0x1c8 build/lcdc_rgba888_mxt_9x60_wvga/production/_ext/1872343871/lodepng.o
 .text.lodepng_info_swap
                0x00000000       0x4c build/lcdc_rgba888_mxt_9x60_wvga/production/_ext/1872343871/lodepng.o
 .text.lodepng_decode32
                0x00000000       0x2c build/lcdc_rgba888_mxt_9x60_wvga/production/_ext/1872343871/lodepng.o
 .text.lodepng_decode24
                0x00000000       0x2c build/lcdc_rgba888_mxt_9x60_wvga/production/_ext/1872343871/lodepng.o
 .text.lodepng_state_copy
                0x00000000       0x64 build/lcdc_rgba888_mxt_9x60_wvga/production/_ext/1872343871/lodepng.o
 .bss.lodepng_default_decompress_settings
                0x00000000       0x10 build/lcdc_rgba888_mxt_9x60_wvga/production/_ext/1872343871/lodepng.o
 .data.LODEPNG_VERSION_STRING
                0x00000000        0x4 build/lcdc_rgba888_mxt_9x60_wvga/production/_ext/1872343871/lodepng.o
 .text          0x00000000        0x0 build/lcdc_rgba888_mxt_9x60_wvga/production/_ext/1872343871/legato_imagedecoder_png.o
 .data          0x00000000        0x0 build/lcdc_rgba888_mxt_9x60_wvga/production/_ext/1872343871/legato_imagedecoder_png.o
 .bss           0x00000000        0x0 build/lcdc_rgba888_mxt_9x60_wvga/production/_ext/1872343871/legato_imagedecoder_png.o
 .text          0x00000000        0x0 build/lcdc_rgba888_mxt_9x60_wvga/production/_ext/1872342336/legato_imagedecoder_raw_setup.o
 .data          0x00000000        0x0 build/lcdc_rgba888_mxt_9x60_wvga/production/_ext/1872342336/legato_imagedecoder_raw_setup.o
 .bss           0x00000000        0x0 build/lcdc_rgba888_mxt_9x60_wvga/production/_ext/1872342336/legato_imagedecoder_raw_setup.o
 .text          0x00000000        0x0 build/lcdc_rgba888_mxt_9x60_wvga/production/_ext/1872342336/legato_imagedecoder_raw_scale.o
 .data          0x00000000        0x0 build/lcdc_rgba888_mxt_9x60_wvga/production/_ext/1872342336/legato_imagedecoder_raw_scale.o
 .bss           0x00000000        0x0 build/lcdc_rgba888_mxt_9x60_wvga/production/_ext/1872342336/legato_imagedecoder_raw_scale.o
 .text          0x00000000        0x0 build/lcdc_rgba888_mxt_9x60_wvga/production/_ext/1872342336/legato_imagedecoder_raw.o
 .data          0x00000000        0x0 build/lcdc_rgba888_mxt_9x60_wvga/production/_ext/1872342336/legato_imagedecoder_raw.o
 .bss           0x00000000        0x0 build/lcdc_rgba888_mxt_9x60_wvga/production/_ext/1872342336/legato_imagedecoder_raw.o
 .text          0x00000000        0x0 build/lcdc_rgba888_mxt_9x60_wvga/production/_ext/1872342336/legato_imagedecoder_raw_read_internal.o
 .data          0x00000000        0x0 build/lcdc_rgba888_mxt_9x60_wvga/production/_ext/1872342336/legato_imagedecoder_raw_read_internal.o
 .bss           0x00000000        0x0 build/lcdc_rgba888_mxt_9x60_wvga/production/_ext/1872342336/legato_imagedecoder_raw_read_internal.o
 .text          0x00000000        0x0 build/lcdc_rgba888_mxt_9x60_wvga/production/_ext/1872342336/legato_imagedecoder_raw_write.o
 .data          0x00000000        0x0 build/lcdc_rgba888_mxt_9x60_wvga/production/_ext/1872342336/legato_imagedecoder_raw_write.o
 .bss           0x00000000        0x0 build/lcdc_rgba888_mxt_9x60_wvga/production/_ext/1872342336/legato_imagedecoder_raw_write.o
 .text          0x00000000        0x0 build/lcdc_rgba888_mxt_9x60_wvga/production/_ext/1872342336/legato_imagedecoder_raw_blend.o
 .data          0x00000000        0x0 build/lcdc_rgba888_mxt_9x60_wvga/production/_ext/1872342336/legato_imagedecoder_raw_blend.o
 .bss           0x00000000        0x0 build/lcdc_rgba888_mxt_9x60_wvga/production/_ext/1872342336/legato_imagedecoder_raw_blend.o
 .text          0x00000000        0x0 build/lcdc_rgba888_mxt_9x60_wvga/production/_ext/1872342336/legato_imagedecoder_raw_mask.o
 .data          0x00000000        0x0 build/lcdc_rgba888_mxt_9x60_wvga/production/_ext/1872342336/legato_imagedecoder_raw_mask.o
 .bss           0x00000000        0x0 build/lcdc_rgba888_mxt_9x60_wvga/production/_ext/1872342336/legato_imagedecoder_raw_mask.o
 .text          0x00000000        0x0 build/lcdc_rgba888_mxt_9x60_wvga/production/_ext/1872342336/legato_imagedecoder_raw_convert.o
 .data          0x00000000        0x0 build/lcdc_rgba888_mxt_9x60_wvga/production/_ext/1872342336/legato_imagedecoder_raw_convert.o
 .bss           0x00000000        0x0 build/lcdc_rgba888_mxt_9x60_wvga/production/_ext/1872342336/legato_imagedecoder_raw_convert.o
 .text          0x00000000        0x0 build/lcdc_rgba888_mxt_9x60_wvga/production/_ext/1872342336/legato_imagedecoder_raw_rotate.o
 .data          0x00000000        0x0 build/lcdc_rgba888_mxt_9x60_wvga/production/_ext/1872342336/legato_imagedecoder_raw_rotate.o
 .bss           0x00000000        0x0 build/lcdc_rgba888_mxt_9x60_wvga/production/_ext/1872342336/legato_imagedecoder_raw_rotate.o
 .text          0x00000000        0x0 build/lcdc_rgba888_mxt_9x60_wvga/production/_ext/1872342336/legato_imagedecoder_raw_read_stream_rleindex.o
 .data          0x00000000        0x0 build/lcdc_rgba888_mxt_9x60_wvga/production/_ext/1872342336/legato_imagedecoder_raw_read_stream_rleindex.o
 .bss           0x00000000        0x0 build/lcdc_rgba888_mxt_9x60_wvga/production/_ext/1872342336/legato_imagedecoder_raw_read_stream_rleindex.o
 .debug_info    0x00000000      0x47e build/lcdc_rgba888_mxt_9x60_wvga/production/_ext/1872342336/legato_imagedecoder_raw_read_stream_rleindex.o
 .debug_abbrev  0x00000000       0xb5 build/lcdc_rgba888_mxt_9x60_wvga/production/_ext/1872342336/legato_imagedecoder_raw_read_stream_rleindex.o
 .debug_aranges
                0x00000000       0x18 build/lcdc_rgba888_mxt_9x60_wvga/production/_ext/1872342336/legato_imagedecoder_raw_read_stream_rleindex.o
 .debug_line    0x00000000       0xb8 build/lcdc_rgba888_mxt_9x60_wvga/production/_ext/1872342336/legato_imagedecoder_raw_read_stream_rleindex.o
 .debug_str     0x00000000        0x9 build/lcdc_rgba888_mxt_9x60_wvga/production/_ext/1872342336/legato_imagedecoder_raw_read_stream_rleindex.o
 .comment       0x00000000       0x2c build/lcdc_rgba888_mxt_9x60_wvga/production/_ext/1872342336/legato_imagedecoder_raw_read_stream_rleindex.o
 .ARM.attributes
                0x00000000       0x32 build/lcdc_rgba888_mxt_9x60_wvga/production/_ext/1872342336/legato_imagedecoder_raw_read_stream_rleindex.o
 .text          0x00000000        0x0 build/lcdc_rgba888_mxt_9x60_wvga/production/_ext/1872342336/legato_imagedecoder_raw_palette_internal.o
 .data          0x00000000        0x0 build/lcdc_rgba888_mxt_9x60_wvga/production/_ext/1872342336/legato_imagedecoder_raw_palette_internal.o
 .bss           0x00000000        0x0 build/lcdc_rgba888_mxt_9x60_wvga/production/_ext/1872342336/legato_imagedecoder_raw_palette_internal.o
 .text          0x00000000        0x0 build/lcdc_rgba888_mxt_9x60_wvga/production/_ext/1872342336/legato_imagedecoder_raw_read_stream_index.o
 .data          0x00000000        0x0 build/lcdc_rgba888_mxt_9x60_wvga/production/_ext/1872342336/legato_imagedecoder_raw_read_stream_index.o
 .bss           0x00000000        0x0 build/lcdc_rgba888_mxt_9x60_wvga/production/_ext/1872342336/legato_imagedecoder_raw_read_stream_index.o
 .debug_info    0x00000000      0x47b build/lcdc_rgba888_mxt_9x60_wvga/production/_ext/1872342336/legato_imagedecoder_raw_read_stream_index.o
 .debug_abbrev  0x00000000       0xb5 build/lcdc_rgba888_mxt_9x60_wvga/production/_ext/1872342336/legato_imagedecoder_raw_read_stream_index.o
 .debug_aranges
                0x00000000       0x18 build/lcdc_rgba888_mxt_9x60_wvga/production/_ext/1872342336/legato_imagedecoder_raw_read_stream_index.o
 .debug_line    0x00000000       0xb8 build/lcdc_rgba888_mxt_9x60_wvga/production/_ext/1872342336/legato_imagedecoder_raw_read_stream_index.o
 .debug_str     0x00000000        0x9 build/lcdc_rgba888_mxt_9x60_wvga/production/_ext/1872342336/legato_imagedecoder_raw_read_stream_index.o
 .comment       0x00000000       0x2c build/lcdc_rgba888_mxt_9x60_wvga/production/_ext/1872342336/legato_imagedecoder_raw_read_stream_index.o
 .ARM.attributes
                0x00000000       0x32 build/lcdc_rgba888_mxt_9x60_wvga/production/_ext/1872342336/legato_imagedecoder_raw_read_stream_index.o
 .text          0x00000000        0x0 build/lcdc_rgba888_mxt_9x60_wvga/production/_ext/1872342336/legato_imagedecoder_raw_read_stream_color.o
 .data          0x00000000        0x0 build/lcdc_rgba888_mxt_9x60_wvga/production/_ext/1872342336/legato_imagedecoder_raw_read_stream_color.o
 .bss           0x00000000        0x0 build/lcdc_rgba888_mxt_9x60_wvga/production/_ext/1872342336/legato_imagedecoder_raw_read_stream_color.o
 .debug_info    0x00000000      0x47b build/lcdc_rgba888_mxt_9x60_wvga/production/_ext/1872342336/legato_imagedecoder_raw_read_stream_color.o
 .debug_abbrev  0x00000000       0xb5 build/lcdc_rgba888_mxt_9x60_wvga/production/_ext/1872342336/legato_imagedecoder_raw_read_stream_color.o
 .debug_aranges
                0x00000000       0x18 build/lcdc_rgba888_mxt_9x60_wvga/production/_ext/1872342336/legato_imagedecoder_raw_read_stream_color.o
 .debug_line    0x00000000       0xb8 build/lcdc_rgba888_mxt_9x60_wvga/production/_ext/1872342336/legato_imagedecoder_raw_read_stream_color.o
 .debug_str     0x00000000        0x9 build/lcdc_rgba888_mxt_9x60_wvga/production/_ext/1872342336/legato_imagedecoder_raw_read_stream_color.o
 .comment       0x00000000       0x2c build/lcdc_rgba888_mxt_9x60_wvga/production/_ext/1872342336/legato_imagedecoder_raw_read_stream_color.o
 .ARM.attributes
                0x00000000       0x32 build/lcdc_rgba888_mxt_9x60_wvga/production/_ext/1872342336/legato_imagedecoder_raw_read_stream_color.o
 .text          0x00000000        0x0 build/lcdc_rgba888_mxt_9x60_wvga/production/_ext/1872342336/legato_imagedecoder_raw_read_stream_rlecolor.o
 .data          0x00000000        0x0 build/lcdc_rgba888_mxt_9x60_wvga/production/_ext/1872342336/legato_imagedecoder_raw_read_stream_rlecolor.o
 .bss           0x00000000        0x0 build/lcdc_rgba888_mxt_9x60_wvga/production/_ext/1872342336/legato_imagedecoder_raw_read_stream_rlecolor.o
 .debug_info    0x00000000      0x47e build/lcdc_rgba888_mxt_9x60_wvga/production/_ext/1872342336/legato_imagedecoder_raw_read_stream_rlecolor.o
 .debug_abbrev  0x00000000       0xb5 build/lcdc_rgba888_mxt_9x60_wvga/production/_ext/1872342336/legato_imagedecoder_raw_read_stream_rlecolor.o
 .debug_aranges
                0x00000000       0x18 build/lcdc_rgba888_mxt_9x60_wvga/production/_ext/1872342336/legato_imagedecoder_raw_read_stream_rlecolor.o
 .debug_line    0x00000000       0xb8 build/lcdc_rgba888_mxt_9x60_wvga/production/_ext/1872342336/legato_imagedecoder_raw_read_stream_rlecolor.o
 .debug_str     0x00000000        0x9 build/lcdc_rgba888_mxt_9x60_wvga/production/_ext/1872342336/legato_imagedecoder_raw_read_stream_rlecolor.o
 .comment       0x00000000       0x2c build/lcdc_rgba888_mxt_9x60_wvga/production/_ext/1872342336/legato_imagedecoder_raw_read_stream_rlecolor.o
 .ARM.attributes
                0x00000000       0x32 build/lcdc_rgba888_mxt_9x60_wvga/production/_ext/1872342336/legato_imagedecoder_raw_read_stream_rlecolor.o
 .text          0x00000000        0x0 build/lcdc_rgba888_mxt_9x60_wvga/production/_ext/1872342336/legato_imagedecoder_raw_palette_stream.o
 .data          0x00000000        0x0 build/lcdc_rgba888_mxt_9x60_wvga/production/_ext/1872342336/legato_imagedecoder_raw_palette_stream.o
 .bss           0x00000000        0x0 build/lcdc_rgba888_mxt_9x60_wvga/production/_ext/1872342336/legato_imagedecoder_raw_palette_stream.o
 .debug_info    0x00000000      0xd08 build/lcdc_rgba888_mxt_9x60_wvga/production/_ext/1872342336/legato_imagedecoder_raw_palette_stream.o
 .debug_abbrev  0x00000000      0x17b build/lcdc_rgba888_mxt_9x60_wvga/production/_ext/1872342336/legato_imagedecoder_raw_palette_stream.o
 .debug_aranges
                0x00000000       0x18 build/lcdc_rgba888_mxt_9x60_wvga/production/_ext/1872342336/legato_imagedecoder_raw_palette_stream.o
 .debug_line    0x00000000      0x10d build/lcdc_rgba888_mxt_9x60_wvga/production/_ext/1872342336/legato_imagedecoder_raw_palette_stream.o
 .debug_str     0x00000000       0x8b build/lcdc_rgba888_mxt_9x60_wvga/production/_ext/1872342336/legato_imagedecoder_raw_palette_stream.o
 .comment       0x00000000       0x2c build/lcdc_rgba888_mxt_9x60_wvga/production/_ext/1872342336/legato_imagedecoder_raw_palette_stream.o
 .ARM.attributes
                0x00000000       0x32 build/lcdc_rgba888_mxt_9x60_wvga/production/_ext/1872342336/legato_imagedecoder_raw_palette_stream.o
 .text          0x00000000        0x0 build/lcdc_rgba888_mxt_9x60_wvga/production/_ext/1381099687/legato_image_utils.o
 .data          0x00000000        0x0 build/lcdc_rgba888_mxt_9x60_wvga/production/_ext/1381099687/legato_image_utils.o
 .bss           0x00000000        0x0 build/lcdc_rgba888_mxt_9x60_wvga/production/_ext/1381099687/legato_image_utils.o
 .text          0x00000000        0x0 build/lcdc_rgba888_mxt_9x60_wvga/production/_ext/1381099687/legato_image.o
 .data          0x00000000        0x0 build/lcdc_rgba888_mxt_9x60_wvga/production/_ext/1381099687/legato_image.o
 .bss           0x00000000        0x0 build/lcdc_rgba888_mxt_9x60_wvga/production/_ext/1381099687/legato_image.o
 .text.leImage_Free
                0x00000000       0x40 build/lcdc_rgba888_mxt_9x60_wvga/production/_ext/1381099687/legato_image.o
 .text.leImage_Resize
                0x00000000      0x10c build/lcdc_rgba888_mxt_9x60_wvga/production/_ext/1381099687/legato_image.o
 .text.leImage_ResizeDraw
                0x00000000       0xc4 build/lcdc_rgba888_mxt_9x60_wvga/production/_ext/1381099687/legato_image.o
 .text.leImage_Copy
                0x00000000       0xac build/lcdc_rgba888_mxt_9x60_wvga/production/_ext/1381099687/legato_image.o
 .text.leImage_Render
                0x00000000       0xbc build/lcdc_rgba888_mxt_9x60_wvga/production/_ext/1381099687/legato_image.o
 .text.leImage_Rotate
                0x00000000       0xb4 build/lcdc_rgba888_mxt_9x60_wvga/production/_ext/1381099687/legato_image.o
 .text.leImage_RotateDraw
                0x00000000       0xbc build/lcdc_rgba888_mxt_9x60_wvga/production/_ext/1381099687/legato_image.o
 .text.leProcessImage
                0x00000000       0x9c build/lcdc_rgba888_mxt_9x60_wvga/production/_ext/1381099687/legato_image.o
 .text          0x00000000        0x0 build/lcdc_rgba888_mxt_9x60_wvga/production/_ext/1381099687/legato_palette.o
 .data          0x00000000        0x0 build/lcdc_rgba888_mxt_9x60_wvga/production/_ext/1381099687/legato_palette.o
 .bss           0x00000000        0x0 build/lcdc_rgba888_mxt_9x60_wvga/production/_ext/1381099687/legato_palette.o
 .text.lePalette_GetColor
                0x00000000       0x3c build/lcdc_rgba888_mxt_9x60_wvga/production/_ext/1381099687/legato_palette.o
 .debug_info    0x00000000      0x8cd build/lcdc_rgba888_mxt_9x60_wvga/production/_ext/1381099687/legato_palette.o
 .debug_abbrev  0x00000000      0x1a8 build/lcdc_rgba888_mxt_9x60_wvga/production/_ext/1381099687/legato_palette.o
 .debug_loc     0x00000000       0xaa build/lcdc_rgba888_mxt_9x60_wvga/production/_ext/1381099687/legato_palette.o
 .debug_aranges
                0x00000000       0x20 build/lcdc_rgba888_mxt_9x60_wvga/production/_ext/1381099687/legato_palette.o
 .debug_ranges  0x00000000       0x10 build/lcdc_rgba888_mxt_9x60_wvga/production/_ext/1381099687/legato_palette.o
 .debug_line    0x00000000      0x1c3 build/lcdc_rgba888_mxt_9x60_wvga/production/_ext/1381099687/legato_palette.o
 .debug_str     0x00000000       0x51 build/lcdc_rgba888_mxt_9x60_wvga/production/_ext/1381099687/legato_palette.o
 .comment       0x00000000       0x2c build/lcdc_rgba888_mxt_9x60_wvga/production/_ext/1381099687/legato_palette.o
 .debug_frame   0x00000000       0x2c build/lcdc_rgba888_mxt_9x60_wvga/production/_ext/1381099687/legato_palette.o
 .ARM.attributes
                0x00000000       0x2c build/lcdc_rgba888_mxt_9x60_wvga/production/_ext/1381099687/legato_palette.o
 .text          0x00000000        0x0 build/lcdc_rgba888_mxt_9x60_wvga/production/_ext/28088523/legato_fixedheap.o
 .data          0x00000000        0x0 build/lcdc_rgba888_mxt_9x60_wvga/production/_ext/28088523/legato_fixedheap.o
 .bss           0x00000000        0x0 build/lcdc_rgba888_mxt_9x60_wvga/production/_ext/28088523/legato_fixedheap.o
 .text.leFixedHeap_Destroy
                0x00000000       0x34 build/lcdc_rgba888_mxt_9x60_wvga/production/_ext/28088523/legato_fixedheap.o
 .text.leFixedHeap_Validate
                0x00000000        0x8 build/lcdc_rgba888_mxt_9x60_wvga/production/_ext/28088523/legato_fixedheap.o
 .text          0x00000000        0x0 build/lcdc_rgba888_mxt_9x60_wvga/production/_ext/28088523/legato_memory.o
 .data          0x00000000        0x0 build/lcdc_rgba888_mxt_9x60_wvga/production/_ext/28088523/legato_memory.o
 .bss           0x00000000        0x0 build/lcdc_rgba888_mxt_9x60_wvga/production/_ext/28088523/legato_memory.o
 .text.leMemoryGetUsageReport
                0x00000000       0x6c build/lcdc_rgba888_mxt_9x60_wvga/production/_ext/28088523/legato_memory.o
 .text.leMemoryPrintReport
                0x00000000       0x18 build/lcdc_rgba888_mxt_9x60_wvga/production/_ext/28088523/legato_memory.o
 .text.leMemoryValidateHeaps
                0x00000000       0x48 build/lcdc_rgba888_mxt_9x60_wvga/production/_ext/28088523/legato_memory.o
 .text          0x00000000        0x0 build/lcdc_rgba888_mxt_9x60_wvga/production/_ext/28088523/legato_variableheap.o
 .data          0x00000000        0x0 build/lcdc_rgba888_mxt_9x60_wvga/production/_ext/28088523/legato_variableheap.o
 .bss           0x00000000        0x0 build/lcdc_rgba888_mxt_9x60_wvga/production/_ext/28088523/legato_variableheap.o
 .text.leVariableHeap_Destroy
                0x00000000       0x14 build/lcdc_rgba888_mxt_9x60_wvga/production/_ext/28088523/legato_variableheap.o
 .text.leVariableHeap_Used
                0x00000000       0x34 build/lcdc_rgba888_mxt_9x60_wvga/production/_ext/28088523/legato_variableheap.o
 .text.leVariableHeap_Dump
                0x00000000       0xf0 build/lcdc_rgba888_mxt_9x60_wvga/production/_ext/28088523/legato_variableheap.o
 .rodata        0x00000000       0xb4 build/lcdc_rgba888_mxt_9x60_wvga/production/_ext/28088523/legato_variableheap.o
 .text          0x00000000        0x0 build/lcdc_rgba888_mxt_9x60_wvga/production/_ext/1081070089/legato_draw_rect.o
 .data          0x00000000        0x0 build/lcdc_rgba888_mxt_9x60_wvga/production/_ext/1081070089/legato_draw_rect.o
 .bss           0x00000000        0x0 build/lcdc_rgba888_mxt_9x60_wvga/production/_ext/1081070089/legato_draw_rect.o
 .text.leRenderer_RectLine
                0x00000000       0x98 build/lcdc_rgba888_mxt_9x60_wvga/production/_ext/1081070089/legato_draw_rect.o
 .text.leRenderer_HorzGradientRect
                0x00000000       0x90 build/lcdc_rgba888_mxt_9x60_wvga/production/_ext/1081070089/legato_draw_rect.o
 .text.leRenderer_VertGradientRect
                0x00000000       0x90 build/lcdc_rgba888_mxt_9x60_wvga/production/_ext/1081070089/legato_draw_rect.o
 .text          0x00000000        0x0 build/lcdc_rgba888_mxt_9x60_wvga/production/_ext/1081070089/legato_draw_line.o
 .data          0x00000000        0x0 build/lcdc_rgba888_mxt_9x60_wvga/production/_ext/1081070089/legato_draw_line.o
 .bss           0x00000000        0x0 build/lcdc_rgba888_mxt_9x60_wvga/production/_ext/1081070089/legato_draw_line.o
 .text.leRenderer_DrawLine
                0x00000000      0x118 build/lcdc_rgba888_mxt_9x60_wvga/production/_ext/1081070089/legato_draw_line.o
 .text.leRenderer_EllipseLine
                0x00000000       0xd0 build/lcdc_rgba888_mxt_9x60_wvga/production/_ext/1081070089/legato_draw_line.o
 .text          0x00000000        0x0 build/lcdc_rgba888_mxt_9x60_wvga/production/_ext/1081070089/legato_renderer.o
 .data          0x00000000        0x0 build/lcdc_rgba888_mxt_9x60_wvga/production/_ext/1081070089/legato_renderer.o
 .bss           0x00000000        0x0 build/lcdc_rgba888_mxt_9x60_wvga/production/_ext/1081070089/legato_renderer.o
 .text.leRenderer_GetDrawCount
                0x00000000       0x10 build/lcdc_rgba888_mxt_9x60_wvga/production/_ext/1081070089/legato_renderer.o
 .text.leRenderer_GetGlobalPalette
                0x00000000       0x10 build/lcdc_rgba888_mxt_9x60_wvga/production/_ext/1081070089/legato_renderer.o
 .text.leRenderer_SetGlobalPalette
                0x00000000       0x14 build/lcdc_rgba888_mxt_9x60_wvga/production/_ext/1081070089/legato_renderer.o
 .text.leRenderer_GlobalPaletteLookup
                0x00000000       0x1c build/lcdc_rgba888_mxt_9x60_wvga/production/_ext/1081070089/legato_renderer.o
 .text.leRenderer_CullDrawPoint
                0x00000000       0x20 build/lcdc_rgba888_mxt_9x60_wvga/production/_ext/1081070089/legato_renderer.o
 .text.leRenderer_Shutdown
                0x00000000        0x4 build/lcdc_rgba888_mxt_9x60_wvga/production/_ext/1081070089/legato_renderer.o
 .text._leRenderer_DestroyLayerState
                0x00000000       0x40 build/lcdc_rgba888_mxt_9x60_wvga/production/_ext/1081070089/legato_renderer.o
 .text          0x00000000        0x0 build/lcdc_rgba888_mxt_9x60_wvga/production/_ext/1081070089/legato_draw.o
 .data          0x00000000        0x0 build/lcdc_rgba888_mxt_9x60_wvga/production/_ext/1081070089/legato_draw.o
 .bss           0x00000000        0x0 build/lcdc_rgba888_mxt_9x60_wvga/production/_ext/1081070089/legato_draw.o
 .text.leRenderer_GetPixel_Safe
                0x00000000       0x60 build/lcdc_rgba888_mxt_9x60_wvga/production/_ext/1081070089/legato_draw.o
 .text.leRenderer_PutPixel_Safe
                0x00000000       0x60 build/lcdc_rgba888_mxt_9x60_wvga/production/_ext/1081070089/legato_draw.o
 .text          0x00000000        0x0 build/lcdc_rgba888_mxt_9x60_wvga/production/_ext/1081070089/legato_draw_arc.o
 .data          0x00000000        0x0 build/lcdc_rgba888_mxt_9x60_wvga/production/_ext/1081070089/legato_draw_arc.o
 .bss           0x00000000        0x0 build/lcdc_rgba888_mxt_9x60_wvga/production/_ext/1081070089/legato_draw_arc.o
 .text.leRenderer_ArcLine
                0x00000000       0x9c build/lcdc_rgba888_mxt_9x60_wvga/production/_ext/1081070089/legato_draw_arc.o
 .text.leRenderer_CircleDraw
                0x00000000       0x38 build/lcdc_rgba888_mxt_9x60_wvga/production/_ext/1081070089/legato_draw_arc.o
 .text          0x00000000        0x0 build/lcdc_rgba888_mxt_9x60_wvga/production/_ext/1081070089/legato_gpu.o
 .data          0x00000000        0x0 build/lcdc_rgba888_mxt_9x60_wvga/production/_ext/1081070089/legato_gpu.o
 .bss           0x00000000        0x0 build/lcdc_rgba888_mxt_9x60_wvga/production/_ext/1081070089/legato_gpu.o
 .text          0x00000000        0x0 build/lcdc_rgba888_mxt_9x60_wvga/production/_ext/157682245/legato_string_renderer.o
 .data          0x00000000        0x0 build/lcdc_rgba888_mxt_9x60_wvga/production/_ext/157682245/legato_string_renderer.o
 .bss           0x00000000        0x0 build/lcdc_rgba888_mxt_9x60_wvga/production/_ext/157682245/legato_string_renderer.o
 .text.leStringRenderer_DrawUString
                0x00000000      0x1c8 build/lcdc_rgba888_mxt_9x60_wvga/production/_ext/157682245/legato_string_renderer.o
 .text.leStringRenderer_DrawCString
                0x00000000      0x1c0 build/lcdc_rgba888_mxt_9x60_wvga/production/_ext/157682245/legato_string_renderer.o
 .text          0x00000000        0x0 build/lcdc_rgba888_mxt_9x60_wvga/production/_ext/157682245/legato_stringutils.o
 .data          0x00000000        0x0 build/lcdc_rgba888_mxt_9x60_wvga/production/_ext/157682245/legato_stringutils.o
 .bss           0x00000000        0x0 build/lcdc_rgba888_mxt_9x60_wvga/production/_ext/157682245/legato_stringutils.o
 .text.leStringUtils_FromCStr
                0x00000000       0x68 build/lcdc_rgba888_mxt_9x60_wvga/production/_ext/157682245/legato_stringutils.o
 .text.leStringUtils_ToCStr
                0x00000000       0x70 build/lcdc_rgba888_mxt_9x60_wvga/production/_ext/157682245/legato_stringutils.o
 .text.leStringUtils_GetLineCount
                0x00000000       0x40 build/lcdc_rgba888_mxt_9x60_wvga/production/_ext/157682245/legato_stringutils.o
 .text.leStringUtils_GetLineCountCStr
                0x00000000       0x50 build/lcdc_rgba888_mxt_9x60_wvga/production/_ext/157682245/legato_stringutils.o
 .text.leStringUtils_GetLineIndices
                0x00000000       0xa0 build/lcdc_rgba888_mxt_9x60_wvga/production/_ext/157682245/legato_stringutils.o
 .text.leStringUtils_GetLineIndicesCStr
                0x00000000       0xb4 build/lcdc_rgba888_mxt_9x60_wvga/production/_ext/157682245/legato_stringutils.o
 .text.leStringUtils_GetLineRect
                0x00000000      0x110 build/lcdc_rgba888_mxt_9x60_wvga/production/_ext/157682245/legato_stringutils.o
 .text.leStringUtils_GetRect
                0x00000000       0xd0 build/lcdc_rgba888_mxt_9x60_wvga/production/_ext/157682245/legato_stringutils.o
 .text.leStringUtils_GetLineRectCStr
                0x00000000      0x10c build/lcdc_rgba888_mxt_9x60_wvga/production/_ext/157682245/legato_stringutils.o
 .text.leStringUtils_GetRectCStr
                0x00000000       0xcc build/lcdc_rgba888_mxt_9x60_wvga/production/_ext/157682245/legato_stringutils.o
 .text.leStringUtils_GetCharRect
                0x00000000       0xe4 build/lcdc_rgba888_mxt_9x60_wvga/production/_ext/157682245/legato_stringutils.o
 .text.leStringUtils_GetCharRectCStr
                0x00000000       0xec build/lcdc_rgba888_mxt_9x60_wvga/production/_ext/157682245/legato_stringutils.o
 .text.leStringUtils_GetCharIndexAtPoint
                0x00000000      0x108 build/lcdc_rgba888_mxt_9x60_wvga/production/_ext/157682245/legato_stringutils.o
 .text.leStringUtils_GetCharIndexAtPointCStr
                0x00000000      0x104 build/lcdc_rgba888_mxt_9x60_wvga/production/_ext/157682245/legato_stringutils.o
 .text          0x00000000        0x0 build/lcdc_rgba888_mxt_9x60_wvga/production/_ext/157682245/legato_dynamicstring.o
 .data          0x00000000        0x0 build/lcdc_rgba888_mxt_9x60_wvga/production/_ext/157682245/legato_dynamicstring.o
 .bss           0x00000000        0x0 build/lcdc_rgba888_mxt_9x60_wvga/production/_ext/157682245/legato_dynamicstring.o
 .text._leDynamicString_GetFont
                0x00000000        0x8 build/lcdc_rgba888_mxt_9x60_wvga/production/_ext/157682245/legato_dynamicstring.o
 .text._leDynamicString_SetFont
                0x00000000       0x34 build/lcdc_rgba888_mxt_9x60_wvga/production/_ext/157682245/legato_dynamicstring.o
 .text._leDynamicString_GetCapacity
                0x00000000        0x8 build/lcdc_rgba888_mxt_9x60_wvga/production/_ext/157682245/legato_dynamicstring.o
 .text._leDynamicString_SetFromString
                0x00000000       0xcc build/lcdc_rgba888_mxt_9x60_wvga/production/_ext/157682245/legato_dynamicstring.o
 .text._leDynamicString_SetFromChar
                0x00000000       0xa8 build/lcdc_rgba888_mxt_9x60_wvga/production/_ext/157682245/legato_dynamicstring.o
 .text._leDynamicString_Length
                0x00000000        0x8 build/lcdc_rgba888_mxt_9x60_wvga/production/_ext/157682245/legato_dynamicstring.o
 .text._leDynamicString_IsEmpty
                0x00000000       0x10 build/lcdc_rgba888_mxt_9x60_wvga/production/_ext/157682245/legato_dynamicstring.o
 .text._leDynamicString_CharAt
                0x00000000       0x1c build/lcdc_rgba888_mxt_9x60_wvga/production/_ext/157682245/legato_dynamicstring.o
 .text._leDynamicString_Compare
                0x00000000       0x8c build/lcdc_rgba888_mxt_9x60_wvga/production/_ext/157682245/legato_dynamicstring.o
 .text._leDynamicString_Append
                0x00000000       0xec build/lcdc_rgba888_mxt_9x60_wvga/production/_ext/157682245/legato_dynamicstring.o
 .text._leDynamicString_Insert
                0x00000000      0x184 build/lcdc_rgba888_mxt_9x60_wvga/production/_ext/157682245/legato_dynamicstring.o
 .text._leDynamicString_Remove
                0x00000000       0xc8 build/lcdc_rgba888_mxt_9x60_wvga/production/_ext/157682245/legato_dynamicstring.o
 .text._leDynamicString_Clear
                0x00000000       0x30 build/lcdc_rgba888_mxt_9x60_wvga/production/_ext/157682245/legato_dynamicstring.o
 .text._leDynamicString_Destructor
                0x00000000       0x38 build/lcdc_rgba888_mxt_9x60_wvga/production/_ext/157682245/legato_dynamicstring.o
 .text._leDynamicString_SetCapacity
                0x00000000       0xac build/lcdc_rgba888_mxt_9x60_wvga/production/_ext/157682245/legato_dynamicstring.o
 .text._leDynamicString_SetFromCStr
                0x00000000       0xa8 build/lcdc_rgba888_mxt_9x60_wvga/production/_ext/157682245/legato_dynamicstring.o
 .text._leDynamicString_ToChar
                0x00000000       0x50 build/lcdc_rgba888_mxt_9x60_wvga/production/_ext/157682245/legato_dynamicstring.o
 .text.leDynamicString_Constructor
                0x00000000       0x34 build/lcdc_rgba888_mxt_9x60_wvga/production/_ext/157682245/legato_dynamicstring.o
 .text.leDynamicString_New
                0x00000000       0x1c build/lcdc_rgba888_mxt_9x60_wvga/production/_ext/157682245/legato_dynamicstring.o
 .rodata.dynamicStringVTable
                0x00000000       0x70 build/lcdc_rgba888_mxt_9x60_wvga/production/_ext/157682245/legato_dynamicstring.o
 .debug_info    0x00000000     0x1c3d build/lcdc_rgba888_mxt_9x60_wvga/production/_ext/157682245/legato_dynamicstring.o
 .debug_abbrev  0x00000000      0x30d build/lcdc_rgba888_mxt_9x60_wvga/production/_ext/157682245/legato_dynamicstring.o
 .debug_loc     0x00000000      0xc0c build/lcdc_rgba888_mxt_9x60_wvga/production/_ext/157682245/legato_dynamicstring.o
 .debug_aranges
                0x00000000       0xb0 build/lcdc_rgba888_mxt_9x60_wvga/production/_ext/157682245/legato_dynamicstring.o
 .debug_ranges  0x00000000       0xa0 build/lcdc_rgba888_mxt_9x60_wvga/production/_ext/157682245/legato_dynamicstring.o
 .debug_line    0x00000000      0x9da build/lcdc_rgba888_mxt_9x60_wvga/production/_ext/157682245/legato_dynamicstring.o
 .debug_str     0x00000000      0x17a build/lcdc_rgba888_mxt_9x60_wvga/production/_ext/157682245/legato_dynamicstring.o
 .comment       0x00000000       0x2c build/lcdc_rgba888_mxt_9x60_wvga/production/_ext/157682245/legato_dynamicstring.o
 .debug_frame   0x00000000      0x218 build/lcdc_rgba888_mxt_9x60_wvga/production/_ext/157682245/legato_dynamicstring.o
 .ARM.attributes
                0x00000000       0x2c build/lcdc_rgba888_mxt_9x60_wvga/production/_ext/157682245/legato_dynamicstring.o
 .text          0x00000000        0x0 build/lcdc_rgba888_mxt_9x60_wvga/production/_ext/157682245/legato_tablestring.o
 .data          0x00000000        0x0 build/lcdc_rgba888_mxt_9x60_wvga/production/_ext/157682245/legato_tablestring.o
 .bss           0x00000000        0x0 build/lcdc_rgba888_mxt_9x60_wvga/production/_ext/157682245/legato_tablestring.o
 .text.leTableString_New
                0x00000000       0x24 build/lcdc_rgba888_mxt_9x60_wvga/production/_ext/157682245/legato_tablestring.o
 .text._leTableString_ToChar
                0x00000000       0x84 build/lcdc_rgba888_mxt_9x60_wvga/production/_ext/157682245/legato_tablestring.o
 .text._leTableString_SizeInBytes
                0x00000000       0x48 build/lcdc_rgba888_mxt_9x60_wvga/production/_ext/157682245/legato_tablestring.o
 .text          0x00000000        0x0 build/lcdc_rgba888_mxt_9x60_wvga/production/_ext/157682245/legato_string.o
 .data          0x00000000        0x0 build/lcdc_rgba888_mxt_9x60_wvga/production/_ext/157682245/legato_string.o
 .bss           0x00000000        0x0 build/lcdc_rgba888_mxt_9x60_wvga/production/_ext/157682245/legato_string.o
 .text.leString_Delete
                0x00000000       0x28 build/lcdc_rgba888_mxt_9x60_wvga/production/_ext/157682245/legato_string.o
 .text          0x00000000        0x0 build/lcdc_rgba888_mxt_9x60_wvga/production/_ext/157682245/legato_string_renderer_stream.o
 .data          0x00000000        0x0 build/lcdc_rgba888_mxt_9x60_wvga/production/_ext/157682245/legato_string_renderer_stream.o
 .bss           0x00000000        0x0 build/lcdc_rgba888_mxt_9x60_wvga/production/_ext/157682245/legato_string_renderer_stream.o
 .debug_info    0x00000000      0xcfc build/lcdc_rgba888_mxt_9x60_wvga/production/_ext/157682245/legato_string_renderer_stream.o
 .debug_abbrev  0x00000000      0x17b build/lcdc_rgba888_mxt_9x60_wvga/production/_ext/157682245/legato_string_renderer_stream.o
 .debug_aranges
                0x00000000       0x18 build/lcdc_rgba888_mxt_9x60_wvga/production/_ext/157682245/legato_string_renderer_stream.o
 .debug_line    0x00000000      0x10d build/lcdc_rgba888_mxt_9x60_wvga/production/_ext/157682245/legato_string_renderer_stream.o
 .debug_str     0x00000000       0x8b build/lcdc_rgba888_mxt_9x60_wvga/production/_ext/157682245/legato_string_renderer_stream.o
 .comment       0x00000000       0x2c build/lcdc_rgba888_mxt_9x60_wvga/production/_ext/157682245/legato_string_renderer_stream.o
 .ARM.attributes
                0x00000000       0x32 build/lcdc_rgba888_mxt_9x60_wvga/production/_ext/157682245/legato_string_renderer_stream.o
 .text          0x00000000        0x0 build/lcdc_rgba888_mxt_9x60_wvga/production/_ext/157682245/legato_fixedstring.o
 .data          0x00000000        0x0 build/lcdc_rgba888_mxt_9x60_wvga/production/_ext/157682245/legato_fixedstring.o
 .bss           0x00000000        0x0 build/lcdc_rgba888_mxt_9x60_wvga/production/_ext/157682245/legato_fixedstring.o
 .text.leFixedString_New
                0x00000000       0x2c build/lcdc_rgba888_mxt_9x60_wvga/production/_ext/157682245/legato_fixedstring.o
 .text          0x00000000        0x0 build/lcdc_rgba888_mxt_9x60_wvga/production/_ext/157682245/legato_stringtable.o
 .data          0x00000000        0x0 build/lcdc_rgba888_mxt_9x60_wvga/production/_ext/157682245/legato_stringtable.o
 .bss           0x00000000        0x0 build/lcdc_rgba888_mxt_9x60_wvga/production/_ext/157682245/legato_stringtable.o
 .text.leStringTable_GetStringCount
                0x00000000       0x14 build/lcdc_rgba888_mxt_9x60_wvga/production/_ext/157682245/legato_stringtable.o
 .text.leStringTable_GetLanguageCount
                0x00000000       0x14 build/lcdc_rgba888_mxt_9x60_wvga/production/_ext/157682245/legato_stringtable.o
 .text.leStringTable_GetActiveStringOffset
                0x00000000       0x24 build/lcdc_rgba888_mxt_9x60_wvga/production/_ext/157682245/legato_stringtable.o
 .text          0x00000000        0x0 build/lcdc_rgba888_mxt_9x60_wvga/production/_ext/1029185477/legato_widget_arc.o
 .data          0x00000000        0x0 build/lcdc_rgba888_mxt_9x60_wvga/production/_ext/1029185477/legato_widget_arc.o
 .bss           0x00000000        0x0 build/lcdc_rgba888_mxt_9x60_wvga/production/_ext/1029185477/legato_widget_arc.o
 .debug_info    0x00000000      0x464 build/lcdc_rgba888_mxt_9x60_wvga/production/_ext/1029185477/legato_widget_arc.o
 .debug_abbrev  0x00000000       0xb5 build/lcdc_rgba888_mxt_9x60_wvga/production/_ext/1029185477/legato_widget_arc.o
 .debug_aranges
                0x00000000       0x18 build/lcdc_rgba888_mxt_9x60_wvga/production/_ext/1029185477/legato_widget_arc.o
 .debug_line    0x00000000       0xb8 build/lcdc_rgba888_mxt_9x60_wvga/production/_ext/1029185477/legato_widget_arc.o
 .debug_str     0x00000000        0x9 build/lcdc_rgba888_mxt_9x60_wvga/production/_ext/1029185477/legato_widget_arc.o
 .comment       0x00000000       0x2c build/lcdc_rgba888_mxt_9x60_wvga/production/_ext/1029185477/legato_widget_arc.o
 .ARM.attributes
                0x00000000       0x32 build/lcdc_rgba888_mxt_9x60_wvga/production/_ext/1029185477/legato_widget_arc.o
 .text          0x00000000        0x0 build/lcdc_rgba888_mxt_9x60_wvga/production/_ext/1029185477/legato_widget_arc_skin_classic.o
 .data          0x00000000        0x0 build/lcdc_rgba888_mxt_9x60_wvga/production/_ext/1029185477/legato_widget_arc_skin_classic.o
 .bss           0x00000000        0x0 build/lcdc_rgba888_mxt_9x60_wvga/production/_ext/1029185477/legato_widget_arc_skin_classic.o
 .debug_info    0x00000000      0x471 build/lcdc_rgba888_mxt_9x60_wvga/production/_ext/1029185477/legato_widget_arc_skin_classic.o
 .debug_abbrev  0x00000000       0xb5 build/lcdc_rgba888_mxt_9x60_wvga/production/_ext/1029185477/legato_widget_arc_skin_classic.o
 .debug_aranges
                0x00000000       0x18 build/lcdc_rgba888_mxt_9x60_wvga/production/_ext/1029185477/legato_widget_arc_skin_classic.o
 .debug_line    0x00000000       0xb8 build/lcdc_rgba888_mxt_9x60_wvga/production/_ext/1029185477/legato_widget_arc_skin_classic.o
 .debug_str     0x00000000        0x9 build/lcdc_rgba888_mxt_9x60_wvga/production/_ext/1029185477/legato_widget_arc_skin_classic.o
 .comment       0x00000000       0x2c build/lcdc_rgba888_mxt_9x60_wvga/production/_ext/1029185477/legato_widget_arc_skin_classic.o
 .ARM.attributes
                0x00000000       0x32 build/lcdc_rgba888_mxt_9x60_wvga/production/_ext/1029185477/legato_widget_arc_skin_classic.o
 .text          0x00000000        0x0 build/lcdc_rgba888_mxt_9x60_wvga/production/_ext/1946336466/legato_widget_bar_graph.o
 .data          0x00000000        0x0 build/lcdc_rgba888_mxt_9x60_wvga/production/_ext/1946336466/legato_widget_bar_graph.o
 .bss           0x00000000        0x0 build/lcdc_rgba888_mxt_9x60_wvga/production/_ext/1946336466/legato_widget_bar_graph.o
 .debug_info    0x00000000      0x46f build/lcdc_rgba888_mxt_9x60_wvga/production/_ext/1946336466/legato_widget_bar_graph.o
 .debug_abbrev  0x00000000       0xb5 build/lcdc_rgba888_mxt_9x60_wvga/production/_ext/1946336466/legato_widget_bar_graph.o
 .debug_aranges
                0x00000000       0x18 build/lcdc_rgba888_mxt_9x60_wvga/production/_ext/1946336466/legato_widget_bar_graph.o
 .debug_line    0x00000000       0xb8 build/lcdc_rgba888_mxt_9x60_wvga/production/_ext/1946336466/legato_widget_bar_graph.o
 .debug_str     0x00000000        0x9 build/lcdc_rgba888_mxt_9x60_wvga/production/_ext/1946336466/legato_widget_bar_graph.o
 .comment       0x00000000       0x2c build/lcdc_rgba888_mxt_9x60_wvga/production/_ext/1946336466/legato_widget_bar_graph.o
 .ARM.attributes
                0x00000000       0x32 build/lcdc_rgba888_mxt_9x60_wvga/production/_ext/1946336466/legato_widget_bar_graph.o
 .text          0x00000000        0x0 build/lcdc_rgba888_mxt_9x60_wvga/production/_ext/1946336466/legato_widget_bar_graph_skin_classic.o
 .data          0x00000000        0x0 build/lcdc_rgba888_mxt_9x60_wvga/production/_ext/1946336466/legato_widget_bar_graph_skin_classic.o
 .bss           0x00000000        0x0 build/lcdc_rgba888_mxt_9x60_wvga/production/_ext/1946336466/legato_widget_bar_graph_skin_classic.o
 .debug_info    0x00000000      0x47c build/lcdc_rgba888_mxt_9x60_wvga/production/_ext/1946336466/legato_widget_bar_graph_skin_classic.o
 .debug_abbrev  0x00000000       0xb5 build/lcdc_rgba888_mxt_9x60_wvga/production/_ext/1946336466/legato_widget_bar_graph_skin_classic.o
 .debug_aranges
                0x00000000       0x18 build/lcdc_rgba888_mxt_9x60_wvga/production/_ext/1946336466/legato_widget_bar_graph_skin_classic.o
 .debug_line    0x00000000       0xb8 build/lcdc_rgba888_mxt_9x60_wvga/production/_ext/1946336466/legato_widget_bar_graph_skin_classic.o
 .debug_str     0x00000000        0x9 build/lcdc_rgba888_mxt_9x60_wvga/production/_ext/1946336466/legato_widget_bar_graph_skin_classic.o
 .comment       0x00000000       0x2c build/lcdc_rgba888_mxt_9x60_wvga/production/_ext/1946336466/legato_widget_bar_graph_skin_classic.o
 .ARM.attributes
                0x00000000       0x32 build/lcdc_rgba888_mxt_9x60_wvga/production/_ext/1946336466/legato_widget_bar_graph_skin_classic.o
 .text          0x00000000        0x0 build/lcdc_rgba888_mxt_9x60_wvga/production/_ext/1339002025/legato_widget_button.o
 .data          0x00000000        0x0 build/lcdc_rgba888_mxt_9x60_wvga/production/_ext/1339002025/legato_widget_button.o
 .bss           0x00000000        0x0 build/lcdc_rgba888_mxt_9x60_wvga/production/_ext/1339002025/legato_widget_button.o
 .text          0x00000000        0x0 build/lcdc_rgba888_mxt_9x60_wvga/production/_ext/1339002025/legato_widget_button_skin_classic.o
 .data          0x00000000        0x0 build/lcdc_rgba888_mxt_9x60_wvga/production/_ext/1339002025/legato_widget_button_skin_classic.o
 .bss           0x00000000        0x0 build/lcdc_rgba888_mxt_9x60_wvga/production/_ext/1339002025/legato_widget_button_skin_classic.o
 .text          0x00000000        0x0 build/lcdc_rgba888_mxt_9x60_wvga/production/_ext/935657338/legato_widget_checkbox_skin_classic.o
 .data          0x00000000        0x0 build/lcdc_rgba888_mxt_9x60_wvga/production/_ext/935657338/legato_widget_checkbox_skin_classic.o
 .bss           0x00000000        0x0 build/lcdc_rgba888_mxt_9x60_wvga/production/_ext/935657338/legato_widget_checkbox_skin_classic.o
 .debug_info    0x00000000      0x47b build/lcdc_rgba888_mxt_9x60_wvga/production/_ext/935657338/legato_widget_checkbox_skin_classic.o
 .debug_abbrev  0x00000000       0xb5 build/lcdc_rgba888_mxt_9x60_wvga/production/_ext/935657338/legato_widget_checkbox_skin_classic.o
 .debug_aranges
                0x00000000       0x18 build/lcdc_rgba888_mxt_9x60_wvga/production/_ext/935657338/legato_widget_checkbox_skin_classic.o
 .debug_line    0x00000000       0xb8 build/lcdc_rgba888_mxt_9x60_wvga/production/_ext/935657338/legato_widget_checkbox_skin_classic.o
 .debug_str     0x00000000        0x9 build/lcdc_rgba888_mxt_9x60_wvga/production/_ext/935657338/legato_widget_checkbox_skin_classic.o
 .comment       0x00000000       0x2c build/lcdc_rgba888_mxt_9x60_wvga/production/_ext/935657338/legato_widget_checkbox_skin_classic.o
 .ARM.attributes
                0x00000000       0x32 build/lcdc_rgba888_mxt_9x60_wvga/production/_ext/935657338/legato_widget_checkbox_skin_classic.o
 .text          0x00000000        0x0 build/lcdc_rgba888_mxt_9x60_wvga/production/_ext/935657338/legato_widget_checkbox.o
 .data          0x00000000        0x0 build/lcdc_rgba888_mxt_9x60_wvga/production/_ext/935657338/legato_widget_checkbox.o
 .bss           0x00000000        0x0 build/lcdc_rgba888_mxt_9x60_wvga/production/_ext/935657338/legato_widget_checkbox.o
 .debug_info    0x00000000      0xcfe build/lcdc_rgba888_mxt_9x60_wvga/production/_ext/935657338/legato_widget_checkbox.o
 .debug_abbrev  0x00000000      0x17b build/lcdc_rgba888_mxt_9x60_wvga/production/_ext/935657338/legato_widget_checkbox.o
 .debug_aranges
                0x00000000       0x18 build/lcdc_rgba888_mxt_9x60_wvga/production/_ext/935657338/legato_widget_checkbox.o
 .debug_line    0x00000000      0x10d build/lcdc_rgba888_mxt_9x60_wvga/production/_ext/935657338/legato_widget_checkbox.o
 .debug_str     0x00000000       0x8b build/lcdc_rgba888_mxt_9x60_wvga/production/_ext/935657338/legato_widget_checkbox.o
 .comment       0x00000000       0x2c build/lcdc_rgba888_mxt_9x60_wvga/production/_ext/935657338/legato_widget_checkbox.o
 .ARM.attributes
                0x00000000       0x32 build/lcdc_rgba888_mxt_9x60_wvga/production/_ext/935657338/legato_widget_checkbox.o
 .text          0x00000000        0x0 build/lcdc_rgba888_mxt_9x60_wvga/production/_ext/1356472903/legato_widget_circle_skin_classic.o
 .data          0x00000000        0x0 build/lcdc_rgba888_mxt_9x60_wvga/production/_ext/1356472903/legato_widget_circle_skin_classic.o
 .bss           0x00000000        0x0 build/lcdc_rgba888_mxt_9x60_wvga/production/_ext/1356472903/legato_widget_circle_skin_classic.o
 .debug_info    0x00000000      0xd07 build/lcdc_rgba888_mxt_9x60_wvga/production/_ext/1356472903/legato_widget_circle_skin_classic.o
 .debug_abbrev  0x00000000      0x17b build/lcdc_rgba888_mxt_9x60_wvga/production/_ext/1356472903/legato_widget_circle_skin_classic.o
 .debug_aranges
                0x00000000       0x18 build/lcdc_rgba888_mxt_9x60_wvga/production/_ext/1356472903/legato_widget_circle_skin_classic.o
 .debug_line    0x00000000      0x10d build/lcdc_rgba888_mxt_9x60_wvga/production/_ext/1356472903/legato_widget_circle_skin_classic.o
 .debug_str     0x00000000       0x8b build/lcdc_rgba888_mxt_9x60_wvga/production/_ext/1356472903/legato_widget_circle_skin_classic.o
 .comment       0x00000000       0x2c build/lcdc_rgba888_mxt_9x60_wvga/production/_ext/1356472903/legato_widget_circle_skin_classic.o
 .ARM.attributes
                0x00000000       0x32 build/lcdc_rgba888_mxt_9x60_wvga/production/_ext/1356472903/legato_widget_circle_skin_classic.o
 .text          0x00000000        0x0 build/lcdc_rgba888_mxt_9x60_wvga/production/_ext/1356472903/legato_widget_circle.o
 .data          0x00000000        0x0 build/lcdc_rgba888_mxt_9x60_wvga/production/_ext/1356472903/legato_widget_circle.o
 .bss           0x00000000        0x0 build/lcdc_rgba888_mxt_9x60_wvga/production/_ext/1356472903/legato_widget_circle.o
 .debug_info    0x00000000      0xcfa build/lcdc_rgba888_mxt_9x60_wvga/production/_ext/1356472903/legato_widget_circle.o
 .debug_abbrev  0x00000000      0x17b build/lcdc_rgba888_mxt_9x60_wvga/production/_ext/1356472903/legato_widget_circle.o
 .debug_aranges
                0x00000000       0x18 build/lcdc_rgba888_mxt_9x60_wvga/production/_ext/1356472903/legato_widget_circle.o
 .debug_line    0x00000000      0x10d build/lcdc_rgba888_mxt_9x60_wvga/production/_ext/1356472903/legato_widget_circle.o
 .debug_str     0x00000000       0x8b build/lcdc_rgba888_mxt_9x60_wvga/production/_ext/1356472903/legato_widget_circle.o
 .comment       0x00000000       0x2c build/lcdc_rgba888_mxt_9x60_wvga/production/_ext/1356472903/legato_widget_circle.o
 .ARM.attributes
                0x00000000       0x32 build/lcdc_rgba888_mxt_9x60_wvga/production/_ext/1356472903/legato_widget_circle.o
 .text          0x00000000        0x0 build/lcdc_rgba888_mxt_9x60_wvga/production/_ext/2122148963/legato_widget_circular_gauge.o
 .data          0x00000000        0x0 build/lcdc_rgba888_mxt_9x60_wvga/production/_ext/2122148963/legato_widget_circular_gauge.o
 .bss           0x00000000        0x0 build/lcdc_rgba888_mxt_9x60_wvga/production/_ext/2122148963/legato_widget_circular_gauge.o
 .debug_info    0x00000000      0x479 build/lcdc_rgba888_mxt_9x60_wvga/production/_ext/2122148963/legato_widget_circular_gauge.o
 .debug_abbrev  0x00000000       0xb5 build/lcdc_rgba888_mxt_9x60_wvga/production/_ext/2122148963/legato_widget_circular_gauge.o
 .debug_aranges
                0x00000000       0x18 build/lcdc_rgba888_mxt_9x60_wvga/production/_ext/2122148963/legato_widget_circular_gauge.o
 .debug_line    0x00000000       0xb8 build/lcdc_rgba888_mxt_9x60_wvga/production/_ext/2122148963/legato_widget_circular_gauge.o
 .debug_str     0x00000000        0x9 build/lcdc_rgba888_mxt_9x60_wvga/production/_ext/2122148963/legato_widget_circular_gauge.o
 .comment       0x00000000       0x2c build/lcdc_rgba888_mxt_9x60_wvga/production/_ext/2122148963/legato_widget_circular_gauge.o
 .ARM.attributes
                0x00000000       0x32 build/lcdc_rgba888_mxt_9x60_wvga/production/_ext/2122148963/legato_widget_circular_gauge.o
 .text          0x00000000        0x0 build/lcdc_rgba888_mxt_9x60_wvga/production/_ext/2122148963/legato_widget_circular_gauge_skin_classic.o
 .data          0x00000000        0x0 build/lcdc_rgba888_mxt_9x60_wvga/production/_ext/2122148963/legato_widget_circular_gauge_skin_classic.o
 .bss           0x00000000        0x0 build/lcdc_rgba888_mxt_9x60_wvga/production/_ext/2122148963/legato_widget_circular_gauge_skin_classic.o
 .debug_info    0x00000000      0x486 build/lcdc_rgba888_mxt_9x60_wvga/production/_ext/2122148963/legato_widget_circular_gauge_skin_classic.o
 .debug_abbrev  0x00000000       0xb5 build/lcdc_rgba888_mxt_9x60_wvga/production/_ext/2122148963/legato_widget_circular_gauge_skin_classic.o
 .debug_aranges
                0x00000000       0x18 build/lcdc_rgba888_mxt_9x60_wvga/production/_ext/2122148963/legato_widget_circular_gauge_skin_classic.o
 .debug_line    0x00000000       0xb8 build/lcdc_rgba888_mxt_9x60_wvga/production/_ext/2122148963/legato_widget_circular_gauge_skin_classic.o
 .debug_str     0x00000000        0x9 build/lcdc_rgba888_mxt_9x60_wvga/production/_ext/2122148963/legato_widget_circular_gauge_skin_classic.o
 .comment       0x00000000       0x2c build/lcdc_rgba888_mxt_9x60_wvga/production/_ext/2122148963/legato_widget_circular_gauge_skin_classic.o
 .ARM.attributes
                0x00000000       0x32 build/lcdc_rgba888_mxt_9x60_wvga/production/_ext/2122148963/legato_widget_circular_gauge_skin_classic.o
 .text          0x00000000        0x0 build/lcdc_rgba888_mxt_9x60_wvga/production/_ext/1715456695/legato_widget_circular_slider.o
 .data          0x00000000        0x0 build/lcdc_rgba888_mxt_9x60_wvga/production/_ext/1715456695/legato_widget_circular_slider.o
 .bss           0x00000000        0x0 build/lcdc_rgba888_mxt_9x60_wvga/production/_ext/1715456695/legato_widget_circular_slider.o
 .debug_info    0x00000000      0x47b build/lcdc_rgba888_mxt_9x60_wvga/production/_ext/1715456695/legato_widget_circular_slider.o
 .debug_abbrev  0x00000000       0xb5 build/lcdc_rgba888_mxt_9x60_wvga/production/_ext/1715456695/legato_widget_circular_slider.o
 .debug_aranges
                0x00000000       0x18 build/lcdc_rgba888_mxt_9x60_wvga/production/_ext/1715456695/legato_widget_circular_slider.o
 .debug_line    0x00000000       0xb8 build/lcdc_rgba888_mxt_9x60_wvga/production/_ext/1715456695/legato_widget_circular_slider.o
 .debug_str     0x00000000        0x9 build/lcdc_rgba888_mxt_9x60_wvga/production/_ext/1715456695/legato_widget_circular_slider.o
 .comment       0x00000000       0x2c build/lcdc_rgba888_mxt_9x60_wvga/production/_ext/1715456695/legato_widget_circular_slider.o
 .ARM.attributes
                0x00000000       0x32 build/lcdc_rgba888_mxt_9x60_wvga/production/_ext/1715456695/legato_widget_circular_slider.o
 .text          0x00000000        0x0 build/lcdc_rgba888_mxt_9x60_wvga/production/_ext/1715456695/legato_widget_circular_slider_skin_classic.o
 .data          0x00000000        0x0 build/lcdc_rgba888_mxt_9x60_wvga/production/_ext/1715456695/legato_widget_circular_slider_skin_classic.o
 .bss           0x00000000        0x0 build/lcdc_rgba888_mxt_9x60_wvga/production/_ext/1715456695/legato_widget_circular_slider_skin_classic.o
 .debug_info    0x00000000      0x488 build/lcdc_rgba888_mxt_9x60_wvga/production/_ext/1715456695/legato_widget_circular_slider_skin_classic.o
 .debug_abbrev  0x00000000       0xb5 build/lcdc_rgba888_mxt_9x60_wvga/production/_ext/1715456695/legato_widget_circular_slider_skin_classic.o
 .debug_aranges
                0x00000000       0x18 build/lcdc_rgba888_mxt_9x60_wvga/production/_ext/1715456695/legato_widget_circular_slider_skin_classic.o
 .debug_line    0x00000000       0xb8 build/lcdc_rgba888_mxt_9x60_wvga/production/_ext/1715456695/legato_widget_circular_slider_skin_classic.o
 .debug_str     0x00000000        0x9 build/lcdc_rgba888_mxt_9x60_wvga/production/_ext/1715456695/legato_widget_circular_slider_skin_classic.o
 .comment       0x00000000       0x2c build/lcdc_rgba888_mxt_9x60_wvga/production/_ext/1715456695/legato_widget_circular_slider_skin_classic.o
 .ARM.attributes
                0x00000000       0x32 build/lcdc_rgba888_mxt_9x60_wvga/production/_ext/1715456695/legato_widget_circular_slider_skin_classic.o
 .text          0x00000000        0x0 build/lcdc_rgba888_mxt_9x60_wvga/production/_ext/1444382766/legato_widget_drawsurface.o
 .data          0x00000000        0x0 build/lcdc_rgba888_mxt_9x60_wvga/production/_ext/1444382766/legato_widget_drawsurface.o
 .bss           0x00000000        0x0 build/lcdc_rgba888_mxt_9x60_wvga/production/_ext/1444382766/legato_widget_drawsurface.o
 .debug_info    0x00000000      0x474 build/lcdc_rgba888_mxt_9x60_wvga/production/_ext/1444382766/legato_widget_drawsurface.o
 .debug_abbrev  0x00000000       0xb5 build/lcdc_rgba888_mxt_9x60_wvga/production/_ext/1444382766/legato_widget_drawsurface.o
 .debug_aranges
                0x00000000       0x18 build/lcdc_rgba888_mxt_9x60_wvga/production/_ext/1444382766/legato_widget_drawsurface.o
 .debug_line    0x00000000       0xb8 build/lcdc_rgba888_mxt_9x60_wvga/production/_ext/1444382766/legato_widget_drawsurface.o
 .debug_str     0x00000000        0x9 build/lcdc_rgba888_mxt_9x60_wvga/production/_ext/1444382766/legato_widget_drawsurface.o
 .comment       0x00000000       0x2c build/lcdc_rgba888_mxt_9x60_wvga/production/_ext/1444382766/legato_widget_drawsurface.o
 .ARM.attributes
                0x00000000       0x32 build/lcdc_rgba888_mxt_9x60_wvga/production/_ext/1444382766/legato_widget_drawsurface.o
 .text          0x00000000        0x0 build/lcdc_rgba888_mxt_9x60_wvga/production/_ext/1444382766/legato_widget_drawsurface_skin_classic.o
 .data          0x00000000        0x0 build/lcdc_rgba888_mxt_9x60_wvga/production/_ext/1444382766/legato_widget_drawsurface_skin_classic.o
 .bss           0x00000000        0x0 build/lcdc_rgba888_mxt_9x60_wvga/production/_ext/1444382766/legato_widget_drawsurface_skin_classic.o
 .debug_info    0x00000000      0x481 build/lcdc_rgba888_mxt_9x60_wvga/production/_ext/1444382766/legato_widget_drawsurface_skin_classic.o
 .debug_abbrev  0x00000000       0xb5 build/lcdc_rgba888_mxt_9x60_wvga/production/_ext/1444382766/legato_widget_drawsurface_skin_classic.o
 .debug_aranges
                0x00000000       0x18 build/lcdc_rgba888_mxt_9x60_wvga/production/_ext/1444382766/legato_widget_drawsurface_skin_classic.o
 .debug_line    0x00000000       0xb8 build/lcdc_rgba888_mxt_9x60_wvga/production/_ext/1444382766/legato_widget_drawsurface_skin_classic.o
 .debug_str     0x00000000        0x9 build/lcdc_rgba888_mxt_9x60_wvga/production/_ext/1444382766/legato_widget_drawsurface_skin_classic.o
 .comment       0x00000000       0x2c build/lcdc_rgba888_mxt_9x60_wvga/production/_ext/1444382766/legato_widget_drawsurface_skin_classic.o
 .ARM.attributes
                0x00000000       0x32 build/lcdc_rgba888_mxt_9x60_wvga/production/_ext/1444382766/legato_widget_drawsurface_skin_classic.o
 .text          0x00000000        0x0 build/lcdc_rgba888_mxt_9x60_wvga/production/_ext/511583513/legato_widget_gradient_skin_classic.o
 .data          0x00000000        0x0 build/lcdc_rgba888_mxt_9x60_wvga/production/_ext/511583513/legato_widget_gradient_skin_classic.o
 .bss           0x00000000        0x0 build/lcdc_rgba888_mxt_9x60_wvga/production/_ext/511583513/legato_widget_gradient_skin_classic.o
 .debug_info    0x00000000      0x47b build/lcdc_rgba888_mxt_9x60_wvga/production/_ext/511583513/legato_widget_gradient_skin_classic.o
 .debug_abbrev  0x00000000       0xb5 build/lcdc_rgba888_mxt_9x60_wvga/production/_ext/511583513/legato_widget_gradient_skin_classic.o
 .debug_aranges
                0x00000000       0x18 build/lcdc_rgba888_mxt_9x60_wvga/production/_ext/511583513/legato_widget_gradient_skin_classic.o
 .debug_line    0x00000000       0xb8 build/lcdc_rgba888_mxt_9x60_wvga/production/_ext/511583513/legato_widget_gradient_skin_classic.o
 .debug_str     0x00000000        0x9 build/lcdc_rgba888_mxt_9x60_wvga/production/_ext/511583513/legato_widget_gradient_skin_classic.o
 .comment       0x00000000       0x2c build/lcdc_rgba888_mxt_9x60_wvga/production/_ext/511583513/legato_widget_gradient_skin_classic.o
 .ARM.attributes
                0x00000000       0x32 build/lcdc_rgba888_mxt_9x60_wvga/production/_ext/511583513/legato_widget_gradient_skin_classic.o
 .text          0x00000000        0x0 build/lcdc_rgba888_mxt_9x60_wvga/production/_ext/511583513/legato_widget_gradient.o
 .data          0x00000000        0x0 build/lcdc_rgba888_mxt_9x60_wvga/production/_ext/511583513/legato_widget_gradient.o
 .bss           0x00000000        0x0 build/lcdc_rgba888_mxt_9x60_wvga/production/_ext/511583513/legato_widget_gradient.o
 .debug_info    0x00000000      0x46e build/lcdc_rgba888_mxt_9x60_wvga/production/_ext/511583513/legato_widget_gradient.o
 .debug_abbrev  0x00000000       0xb5 build/lcdc_rgba888_mxt_9x60_wvga/production/_ext/511583513/legato_widget_gradient.o
 .debug_aranges
                0x00000000       0x18 build/lcdc_rgba888_mxt_9x60_wvga/production/_ext/511583513/legato_widget_gradient.o
 .debug_line    0x00000000       0xb8 build/lcdc_rgba888_mxt_9x60_wvga/production/_ext/511583513/legato_widget_gradient.o
 .debug_str     0x00000000        0x9 build/lcdc_rgba888_mxt_9x60_wvga/production/_ext/511583513/legato_widget_gradient.o
 .comment       0x00000000       0x2c build/lcdc_rgba888_mxt_9x60_wvga/production/_ext/511583513/legato_widget_gradient.o
 .ARM.attributes
                0x00000000       0x32 build/lcdc_rgba888_mxt_9x60_wvga/production/_ext/511583513/legato_widget_gradient.o
 .text          0x00000000        0x0 build/lcdc_rgba888_mxt_9x60_wvga/production/_ext/94869853/legato_widget_groupbox.o
 .data          0x00000000        0x0 build/lcdc_rgba888_mxt_9x60_wvga/production/_ext/94869853/legato_widget_groupbox.o
 .bss           0x00000000        0x0 build/lcdc_rgba888_mxt_9x60_wvga/production/_ext/94869853/legato_widget_groupbox.o
 .debug_info    0x00000000      0x46e build/lcdc_rgba888_mxt_9x60_wvga/production/_ext/94869853/legato_widget_groupbox.o
 .debug_abbrev  0x00000000       0xb5 build/lcdc_rgba888_mxt_9x60_wvga/production/_ext/94869853/legato_widget_groupbox.o
 .debug_aranges
                0x00000000       0x18 build/lcdc_rgba888_mxt_9x60_wvga/production/_ext/94869853/legato_widget_groupbox.o
 .debug_line    0x00000000       0xb8 build/lcdc_rgba888_mxt_9x60_wvga/production/_ext/94869853/legato_widget_groupbox.o
 .debug_str     0x00000000        0x9 build/lcdc_rgba888_mxt_9x60_wvga/production/_ext/94869853/legato_widget_groupbox.o
 .comment       0x00000000       0x2c build/lcdc_rgba888_mxt_9x60_wvga/production/_ext/94869853/legato_widget_groupbox.o
 .ARM.attributes
                0x00000000       0x32 build/lcdc_rgba888_mxt_9x60_wvga/production/_ext/94869853/legato_widget_groupbox.o
 .text          0x00000000        0x0 build/lcdc_rgba888_mxt_9x60_wvga/production/_ext/94869853/legato_widget_groupbox_skin_classic.o
 .data          0x00000000        0x0 build/lcdc_rgba888_mxt_9x60_wvga/production/_ext/94869853/legato_widget_groupbox_skin_classic.o
 .bss           0x00000000        0x0 build/lcdc_rgba888_mxt_9x60_wvga/production/_ext/94869853/legato_widget_groupbox_skin_classic.o
 .debug_info    0x00000000      0x47b build/lcdc_rgba888_mxt_9x60_wvga/production/_ext/94869853/legato_widget_groupbox_skin_classic.o
 .debug_abbrev  0x00000000       0xb5 build/lcdc_rgba888_mxt_9x60_wvga/production/_ext/94869853/legato_widget_groupbox_skin_classic.o
 .debug_aranges
                0x00000000       0x18 build/lcdc_rgba888_mxt_9x60_wvga/production/_ext/94869853/legato_widget_groupbox_skin_classic.o
 .debug_line    0x00000000       0xb8 build/lcdc_rgba888_mxt_9x60_wvga/production/_ext/94869853/legato_widget_groupbox_skin_classic.o
 .debug_str     0x00000000        0x9 build/lcdc_rgba888_mxt_9x60_wvga/production/_ext/94869853/legato_widget_groupbox_skin_classic.o
 .comment       0x00000000       0x2c build/lcdc_rgba888_mxt_9x60_wvga/production/_ext/94869853/legato_widget_groupbox_skin_classic.o
 .ARM.attributes
                0x00000000       0x32 build/lcdc_rgba888_mxt_9x60_wvga/production/_ext/94869853/legato_widget_groupbox_skin_classic.o
 .text          0x00000000        0x0 build/lcdc_rgba888_mxt_9x60_wvga/production/_ext/1197524732/legato_widget_image_skin_classic.o
 .data          0x00000000        0x0 build/lcdc_rgba888_mxt_9x60_wvga/production/_ext/1197524732/legato_widget_image_skin_classic.o
 .bss           0x00000000        0x0 build/lcdc_rgba888_mxt_9x60_wvga/production/_ext/1197524732/legato_widget_image_skin_classic.o
 .text          0x00000000        0x0 build/lcdc_rgba888_mxt_9x60_wvga/production/_ext/1197524732/legato_widget_image.o
 .data          0x00000000        0x0 build/lcdc_rgba888_mxt_9x60_wvga/production/_ext/1197524732/legato_widget_image.o
 .bss           0x00000000        0x0 build/lcdc_rgba888_mxt_9x60_wvga/production/_ext/1197524732/legato_widget_image.o
 .text          0x00000000        0x0 build/lcdc_rgba888_mxt_9x60_wvga/production/_ext/1694778207/legato_widget_imagerotate_skin_classic.o
 .data          0x00000000        0x0 build/lcdc_rgba888_mxt_9x60_wvga/production/_ext/1694778207/legato_widget_imagerotate_skin_classic.o
 .bss           0x00000000        0x0 build/lcdc_rgba888_mxt_9x60_wvga/production/_ext/1694778207/legato_widget_imagerotate_skin_classic.o
 .debug_info    0x00000000      0x481 build/lcdc_rgba888_mxt_9x60_wvga/production/_ext/1694778207/legato_widget_imagerotate_skin_classic.o
 .debug_abbrev  0x00000000       0xb5 build/lcdc_rgba888_mxt_9x60_wvga/production/_ext/1694778207/legato_widget_imagerotate_skin_classic.o
 .debug_aranges
                0x00000000       0x18 build/lcdc_rgba888_mxt_9x60_wvga/production/_ext/1694778207/legato_widget_imagerotate_skin_classic.o
 .debug_line    0x00000000       0xb8 build/lcdc_rgba888_mxt_9x60_wvga/production/_ext/1694778207/legato_widget_imagerotate_skin_classic.o
 .debug_str     0x00000000        0x9 build/lcdc_rgba888_mxt_9x60_wvga/production/_ext/1694778207/legato_widget_imagerotate_skin_classic.o
 .comment       0x00000000       0x2c build/lcdc_rgba888_mxt_9x60_wvga/production/_ext/1694778207/legato_widget_imagerotate_skin_classic.o
 .ARM.attributes
                0x00000000       0x32 build/lcdc_rgba888_mxt_9x60_wvga/production/_ext/1694778207/legato_widget_imagerotate_skin_classic.o
 .text          0x00000000        0x0 build/lcdc_rgba888_mxt_9x60_wvga/production/_ext/1694778207/legato_widget_imagerotate.o
 .data          0x00000000        0x0 build/lcdc_rgba888_mxt_9x60_wvga/production/_ext/1694778207/legato_widget_imagerotate.o
 .bss           0x00000000        0x0 build/lcdc_rgba888_mxt_9x60_wvga/production/_ext/1694778207/legato_widget_imagerotate.o
 .debug_info    0x00000000      0x474 build/lcdc_rgba888_mxt_9x60_wvga/production/_ext/1694778207/legato_widget_imagerotate.o
 .debug_abbrev  0x00000000       0xb5 build/lcdc_rgba888_mxt_9x60_wvga/production/_ext/1694778207/legato_widget_imagerotate.o
 .debug_aranges
                0x00000000       0x18 build/lcdc_rgba888_mxt_9x60_wvga/production/_ext/1694778207/legato_widget_imagerotate.o
 .debug_line    0x00000000       0xb8 build/lcdc_rgba888_mxt_9x60_wvga/production/_ext/1694778207/legato_widget_imagerotate.o
 .debug_str     0x00000000        0x9 build/lcdc_rgba888_mxt_9x60_wvga/production/_ext/1694778207/legato_widget_imagerotate.o
 .comment       0x00000000       0x2c build/lcdc_rgba888_mxt_9x60_wvga/production/_ext/1694778207/legato_widget_imagerotate.o
 .ARM.attributes
                0x00000000       0x32 build/lcdc_rgba888_mxt_9x60_wvga/production/_ext/1694778207/legato_widget_imagerotate.o
 .text          0x00000000        0x0 build/lcdc_rgba888_mxt_9x60_wvga/production/_ext/609407686/legato_widget_imagescale.o
 .data          0x00000000        0x0 build/lcdc_rgba888_mxt_9x60_wvga/production/_ext/609407686/legato_widget_imagescale.o
 .bss           0x00000000        0x0 build/lcdc_rgba888_mxt_9x60_wvga/production/_ext/609407686/legato_widget_imagescale.o
 .debug_info    0x00000000      0x472 build/lcdc_rgba888_mxt_9x60_wvga/production/_ext/609407686/legato_widget_imagescale.o
 .debug_abbrev  0x00000000       0xb5 build/lcdc_rgba888_mxt_9x60_wvga/production/_ext/609407686/legato_widget_imagescale.o
 .debug_aranges
                0x00000000       0x18 build/lcdc_rgba888_mxt_9x60_wvga/production/_ext/609407686/legato_widget_imagescale.o
 .debug_line    0x00000000       0xb8 build/lcdc_rgba888_mxt_9x60_wvga/production/_ext/609407686/legato_widget_imagescale.o
 .debug_str     0x00000000        0x9 build/lcdc_rgba888_mxt_9x60_wvga/production/_ext/609407686/legato_widget_imagescale.o
 .comment       0x00000000       0x2c build/lcdc_rgba888_mxt_9x60_wvga/production/_ext/609407686/legato_widget_imagescale.o
 .ARM.attributes
                0x00000000       0x32 build/lcdc_rgba888_mxt_9x60_wvga/production/_ext/609407686/legato_widget_imagescale.o
 .text          0x00000000        0x0 build/lcdc_rgba888_mxt_9x60_wvga/production/_ext/609407686/legato_widget_imagescale_skin_classic.o
 .data          0x00000000        0x0 build/lcdc_rgba888_mxt_9x60_wvga/production/_ext/609407686/legato_widget_imagescale_skin_classic.o
 .bss           0x00000000        0x0 build/lcdc_rgba888_mxt_9x60_wvga/production/_ext/609407686/legato_widget_imagescale_skin_classic.o
 .debug_info    0x00000000      0x47f build/lcdc_rgba888_mxt_9x60_wvga/production/_ext/609407686/legato_widget_imagescale_skin_classic.o
 .debug_abbrev  0x00000000       0xb5 build/lcdc_rgba888_mxt_9x60_wvga/production/_ext/609407686/legato_widget_imagescale_skin_classic.o
 .debug_aranges
                0x00000000       0x18 build/lcdc_rgba888_mxt_9x60_wvga/production/_ext/609407686/legato_widget_imagescale_skin_classic.o
 .debug_line    0x00000000       0xb8 build/lcdc_rgba888_mxt_9x60_wvga/production/_ext/609407686/legato_widget_imagescale_skin_classic.o
 .debug_str     0x00000000        0x9 build/lcdc_rgba888_mxt_9x60_wvga/production/_ext/609407686/legato_widget_imagescale_skin_classic.o
 .comment       0x00000000       0x2c build/lcdc_rgba888_mxt_9x60_wvga/production/_ext/609407686/legato_widget_imagescale_skin_classic.o
 .ARM.attributes
                0x00000000       0x32 build/lcdc_rgba888_mxt_9x60_wvga/production/_ext/609407686/legato_widget_imagescale_skin_classic.o
 .text          0x00000000        0x0 build/lcdc_rgba888_mxt_9x60_wvga/production/_ext/2015859515/legato_widget_imagesequence_skin_classic.o
 .data          0x00000000        0x0 build/lcdc_rgba888_mxt_9x60_wvga/production/_ext/2015859515/legato_widget_imagesequence_skin_classic.o
 .bss           0x00000000        0x0 build/lcdc_rgba888_mxt_9x60_wvga/production/_ext/2015859515/legato_widget_imagesequence_skin_classic.o
 .debug_info    0x00000000      0x485 build/lcdc_rgba888_mxt_9x60_wvga/production/_ext/2015859515/legato_widget_imagesequence_skin_classic.o
 .debug_abbrev  0x00000000       0xb5 build/lcdc_rgba888_mxt_9x60_wvga/production/_ext/2015859515/legato_widget_imagesequence_skin_classic.o
 .debug_aranges
                0x00000000       0x18 build/lcdc_rgba888_mxt_9x60_wvga/production/_ext/2015859515/legato_widget_imagesequence_skin_classic.o
 .debug_line    0x00000000       0xb8 build/lcdc_rgba888_mxt_9x60_wvga/production/_ext/2015859515/legato_widget_imagesequence_skin_classic.o
 .debug_str     0x00000000        0x9 build/lcdc_rgba888_mxt_9x60_wvga/production/_ext/2015859515/legato_widget_imagesequence_skin_classic.o
 .comment       0x00000000       0x2c build/lcdc_rgba888_mxt_9x60_wvga/production/_ext/2015859515/legato_widget_imagesequence_skin_classic.o
 .ARM.attributes
                0x00000000       0x32 build/lcdc_rgba888_mxt_9x60_wvga/production/_ext/2015859515/legato_widget_imagesequence_skin_classic.o
 .text          0x00000000        0x0 build/lcdc_rgba888_mxt_9x60_wvga/production/_ext/2015859515/legato_widget_imagesequence.o
 .data          0x00000000        0x0 build/lcdc_rgba888_mxt_9x60_wvga/production/_ext/2015859515/legato_widget_imagesequence.o
 .bss           0x00000000        0x0 build/lcdc_rgba888_mxt_9x60_wvga/production/_ext/2015859515/legato_widget_imagesequence.o
 .debug_info    0x00000000      0x478 build/lcdc_rgba888_mxt_9x60_wvga/production/_ext/2015859515/legato_widget_imagesequence.o
 .debug_abbrev  0x00000000       0xb5 build/lcdc_rgba888_mxt_9x60_wvga/production/_ext/2015859515/legato_widget_imagesequence.o
 .debug_aranges
                0x00000000       0x18 build/lcdc_rgba888_mxt_9x60_wvga/production/_ext/2015859515/legato_widget_imagesequence.o
 .debug_line    0x00000000       0xb8 build/lcdc_rgba888_mxt_9x60_wvga/production/_ext/2015859515/legato_widget_imagesequence.o
 .debug_str     0x00000000        0x9 build/lcdc_rgba888_mxt_9x60_wvga/production/_ext/2015859515/legato_widget_imagesequence.o
 .comment       0x00000000       0x2c build/lcdc_rgba888_mxt_9x60_wvga/production/_ext/2015859515/legato_widget_imagesequence.o
 .ARM.attributes
                0x00000000       0x32 build/lcdc_rgba888_mxt_9x60_wvga/production/_ext/2015859515/legato_widget_imagesequence.o
 .text          0x00000000        0x0 build/lcdc_rgba888_mxt_9x60_wvga/production/_ext/1582032715/legato_widget_keypad.o
 .data          0x00000000        0x0 build/lcdc_rgba888_mxt_9x60_wvga/production/_ext/1582032715/legato_widget_keypad.o
 .bss           0x00000000        0x0 build/lcdc_rgba888_mxt_9x60_wvga/production/_ext/1582032715/legato_widget_keypad.o
 .debug_info    0x00000000      0xcfa build/lcdc_rgba888_mxt_9x60_wvga/production/_ext/1582032715/legato_widget_keypad.o
 .debug_abbrev  0x00000000      0x17b build/lcdc_rgba888_mxt_9x60_wvga/production/_ext/1582032715/legato_widget_keypad.o
 .debug_aranges
                0x00000000       0x18 build/lcdc_rgba888_mxt_9x60_wvga/production/_ext/1582032715/legato_widget_keypad.o
 .debug_line    0x00000000      0x10d build/lcdc_rgba888_mxt_9x60_wvga/production/_ext/1582032715/legato_widget_keypad.o
 .debug_str     0x00000000       0x8b build/lcdc_rgba888_mxt_9x60_wvga/production/_ext/1582032715/legato_widget_keypad.o
 .comment       0x00000000       0x2c build/lcdc_rgba888_mxt_9x60_wvga/production/_ext/1582032715/legato_widget_keypad.o
 .ARM.attributes
                0x00000000       0x32 build/lcdc_rgba888_mxt_9x60_wvga/production/_ext/1582032715/legato_widget_keypad.o
 .text          0x00000000        0x0 build/lcdc_rgba888_mxt_9x60_wvga/production/_ext/1582032715/legato_widget_keypad_skin_classic.o
 .data          0x00000000        0x0 build/lcdc_rgba888_mxt_9x60_wvga/production/_ext/1582032715/legato_widget_keypad_skin_classic.o
 .bss           0x00000000        0x0 build/lcdc_rgba888_mxt_9x60_wvga/production/_ext/1582032715/legato_widget_keypad_skin_classic.o
 .debug_info    0x00000000      0x477 build/lcdc_rgba888_mxt_9x60_wvga/production/_ext/1582032715/legato_widget_keypad_skin_classic.o
 .debug_abbrev  0x00000000       0xb5 build/lcdc_rgba888_mxt_9x60_wvga/production/_ext/1582032715/legato_widget_keypad_skin_classic.o
 .debug_aranges
                0x00000000       0x18 build/lcdc_rgba888_mxt_9x60_wvga/production/_ext/1582032715/legato_widget_keypad_skin_classic.o
 .debug_line    0x00000000       0xb8 build/lcdc_rgba888_mxt_9x60_wvga/production/_ext/1582032715/legato_widget_keypad_skin_classic.o
 .debug_str     0x00000000        0x9 build/lcdc_rgba888_mxt_9x60_wvga/production/_ext/1582032715/legato_widget_keypad_skin_classic.o
 .comment       0x00000000       0x2c build/lcdc_rgba888_mxt_9x60_wvga/production/_ext/1582032715/legato_widget_keypad_skin_classic.o
 .ARM.attributes
                0x00000000       0x32 build/lcdc_rgba888_mxt_9x60_wvga/production/_ext/1582032715/legato_widget_keypad_skin_classic.o
 .text          0x00000000        0x0 build/lcdc_rgba888_mxt_9x60_wvga/production/_ext/1195110755/legato_widget_label.o
 .data          0x00000000        0x0 build/lcdc_rgba888_mxt_9x60_wvga/production/_ext/1195110755/legato_widget_label.o
 .bss           0x00000000        0x0 build/lcdc_rgba888_mxt_9x60_wvga/production/_ext/1195110755/legato_widget_label.o
 .text          0x00000000        0x0 build/lcdc_rgba888_mxt_9x60_wvga/production/_ext/1195110755/legato_widget_label_skin_classic.o
 .data          0x00000000        0x0 build/lcdc_rgba888_mxt_9x60_wvga/production/_ext/1195110755/legato_widget_label_skin_classic.o
 .bss           0x00000000        0x0 build/lcdc_rgba888_mxt_9x60_wvga/production/_ext/1195110755/legato_widget_label_skin_classic.o
 .text          0x00000000        0x0 build/lcdc_rgba888_mxt_9x60_wvga/production/_ext/1839659221/legato_widget_line.o
 .data          0x00000000        0x0 build/lcdc_rgba888_mxt_9x60_wvga/production/_ext/1839659221/legato_widget_line.o
 .bss           0x00000000        0x0 build/lcdc_rgba888_mxt_9x60_wvga/production/_ext/1839659221/legato_widget_line.o
 .debug_info    0x00000000      0x466 build/lcdc_rgba888_mxt_9x60_wvga/production/_ext/1839659221/legato_widget_line.o
 .debug_abbrev  0x00000000       0xb5 build/lcdc_rgba888_mxt_9x60_wvga/production/_ext/1839659221/legato_widget_line.o
 .debug_aranges
                0x00000000       0x18 build/lcdc_rgba888_mxt_9x60_wvga/production/_ext/1839659221/legato_widget_line.o
 .debug_line    0x00000000       0xb8 build/lcdc_rgba888_mxt_9x60_wvga/production/_ext/1839659221/legato_widget_line.o
 .debug_str     0x00000000        0x9 build/lcdc_rgba888_mxt_9x60_wvga/production/_ext/1839659221/legato_widget_line.o
 .comment       0x00000000       0x2c build/lcdc_rgba888_mxt_9x60_wvga/production/_ext/1839659221/legato_widget_line.o
 .ARM.attributes
                0x00000000       0x32 build/lcdc_rgba888_mxt_9x60_wvga/production/_ext/1839659221/legato_widget_line.o
 .text          0x00000000        0x0 build/lcdc_rgba888_mxt_9x60_wvga/production/_ext/1839659221/legato_widget_line_skin_classic.o
 .data          0x00000000        0x0 build/lcdc_rgba888_mxt_9x60_wvga/production/_ext/1839659221/legato_widget_line_skin_classic.o
 .bss           0x00000000        0x0 build/lcdc_rgba888_mxt_9x60_wvga/production/_ext/1839659221/legato_widget_line_skin_classic.o
 .debug_info    0x00000000      0x473 build/lcdc_rgba888_mxt_9x60_wvga/production/_ext/1839659221/legato_widget_line_skin_classic.o
 .debug_abbrev  0x00000000       0xb5 build/lcdc_rgba888_mxt_9x60_wvga/production/_ext/1839659221/legato_widget_line_skin_classic.o
 .debug_aranges
                0x00000000       0x18 build/lcdc_rgba888_mxt_9x60_wvga/production/_ext/1839659221/legato_widget_line_skin_classic.o
 .debug_line    0x00000000       0xb8 build/lcdc_rgba888_mxt_9x60_wvga/production/_ext/1839659221/legato_widget_line_skin_classic.o
 .debug_str     0x00000000        0x9 build/lcdc_rgba888_mxt_9x60_wvga/production/_ext/1839659221/legato_widget_line_skin_classic.o
 .comment       0x00000000       0x2c build/lcdc_rgba888_mxt_9x60_wvga/production/_ext/1839659221/legato_widget_line_skin_classic.o
 .ARM.attributes
                0x00000000       0x32 build/lcdc_rgba888_mxt_9x60_wvga/production/_ext/1839659221/legato_widget_line_skin_classic.o
 .text          0x00000000        0x0 build/lcdc_rgba888_mxt_9x60_wvga/production/_ext/1047821571/legato_widget_line_graph.o
 .data          0x00000000        0x0 build/lcdc_rgba888_mxt_9x60_wvga/production/_ext/1047821571/legato_widget_line_graph.o
 .bss           0x00000000        0x0 build/lcdc_rgba888_mxt_9x60_wvga/production/_ext/1047821571/legato_widget_line_graph.o
 .debug_info    0x00000000      0xd01 build/lcdc_rgba888_mxt_9x60_wvga/production/_ext/1047821571/legato_widget_line_graph.o
 .debug_abbrev  0x00000000      0x17b build/lcdc_rgba888_mxt_9x60_wvga/production/_ext/1047821571/legato_widget_line_graph.o
 .debug_aranges
                0x00000000       0x18 build/lcdc_rgba888_mxt_9x60_wvga/production/_ext/1047821571/legato_widget_line_graph.o
 .debug_line    0x00000000      0x10d build/lcdc_rgba888_mxt_9x60_wvga/production/_ext/1047821571/legato_widget_line_graph.o
 .debug_str     0x00000000       0x8b build/lcdc_rgba888_mxt_9x60_wvga/production/_ext/1047821571/legato_widget_line_graph.o
 .comment       0x00000000       0x2c build/lcdc_rgba888_mxt_9x60_wvga/production/_ext/1047821571/legato_widget_line_graph.o
 .ARM.attributes
                0x00000000       0x32 build/lcdc_rgba888_mxt_9x60_wvga/production/_ext/1047821571/legato_widget_line_graph.o
 .text          0x00000000        0x0 build/lcdc_rgba888_mxt_9x60_wvga/production/_ext/1047821571/legato_widget_line_graph_skin_classic.o
 .data          0x00000000        0x0 build/lcdc_rgba888_mxt_9x60_wvga/production/_ext/1047821571/legato_widget_line_graph_skin_classic.o
 .bss           0x00000000        0x0 build/lcdc_rgba888_mxt_9x60_wvga/production/_ext/1047821571/legato_widget_line_graph_skin_classic.o
 .debug_info    0x00000000      0x47e build/lcdc_rgba888_mxt_9x60_wvga/production/_ext/1047821571/legato_widget_line_graph_skin_classic.o
 .debug_abbrev  0x00000000       0xb5 build/lcdc_rgba888_mxt_9x60_wvga/production/_ext/1047821571/legato_widget_line_graph_skin_classic.o
 .debug_aranges
                0x00000000       0x18 build/lcdc_rgba888_mxt_9x60_wvga/production/_ext/1047821571/legato_widget_line_graph_skin_classic.o
 .debug_line    0x00000000       0xb8 build/lcdc_rgba888_mxt_9x60_wvga/production/_ext/1047821571/legato_widget_line_graph_skin_classic.o
 .debug_str     0x00000000        0x9 build/lcdc_rgba888_mxt_9x60_wvga/production/_ext/1047821571/legato_widget_line_graph_skin_classic.o
 .comment       0x00000000       0x2c build/lcdc_rgba888_mxt_9x60_wvga/production/_ext/1047821571/legato_widget_line_graph_skin_classic.o
 .ARM.attributes
                0x00000000       0x32 build/lcdc_rgba888_mxt_9x60_wvga/production/_ext/1047821571/legato_widget_line_graph_skin_classic.o
 .text          0x00000000        0x0 build/lcdc_rgba888_mxt_9x60_wvga/production/_ext/1839659051/legato_widget_list.o
 .data          0x00000000        0x0 build/lcdc_rgba888_mxt_9x60_wvga/production/_ext/1839659051/legato_widget_list.o
 .bss           0x00000000        0x0 build/lcdc_rgba888_mxt_9x60_wvga/production/_ext/1839659051/legato_widget_list.o
 .debug_info    0x00000000      0xcf6 build/lcdc_rgba888_mxt_9x60_wvga/production/_ext/1839659051/legato_widget_list.o
 .debug_abbrev  0x00000000      0x17b build/lcdc_rgba888_mxt_9x60_wvga/production/_ext/1839659051/legato_widget_list.o
 .debug_aranges
                0x00000000       0x18 build/lcdc_rgba888_mxt_9x60_wvga/production/_ext/1839659051/legato_widget_list.o
 .debug_line    0x00000000      0x10d build/lcdc_rgba888_mxt_9x60_wvga/production/_ext/1839659051/legato_widget_list.o
 .debug_str     0x00000000       0x8b build/lcdc_rgba888_mxt_9x60_wvga/production/_ext/1839659051/legato_widget_list.o
 .comment       0x00000000       0x2c build/lcdc_rgba888_mxt_9x60_wvga/production/_ext/1839659051/legato_widget_list.o
 .ARM.attributes
                0x00000000       0x32 build/lcdc_rgba888_mxt_9x60_wvga/production/_ext/1839659051/legato_widget_list.o
 .text          0x00000000        0x0 build/lcdc_rgba888_mxt_9x60_wvga/production/_ext/1839659051/legato_widget_list_skin_classic.o
 .data          0x00000000        0x0 build/lcdc_rgba888_mxt_9x60_wvga/production/_ext/1839659051/legato_widget_list_skin_classic.o
 .bss           0x00000000        0x0 build/lcdc_rgba888_mxt_9x60_wvga/production/_ext/1839659051/legato_widget_list_skin_classic.o
 .debug_info    0x00000000      0x473 build/lcdc_rgba888_mxt_9x60_wvga/production/_ext/1839659051/legato_widget_list_skin_classic.o
 .debug_abbrev  0x00000000       0xb5 build/lcdc_rgba888_mxt_9x60_wvga/production/_ext/1839659051/legato_widget_list_skin_classic.o
 .debug_aranges
                0x00000000       0x18 build/lcdc_rgba888_mxt_9x60_wvga/production/_ext/1839659051/legato_widget_list_skin_classic.o
 .debug_line    0x00000000       0xb8 build/lcdc_rgba888_mxt_9x60_wvga/production/_ext/1839659051/legato_widget_list_skin_classic.o
 .debug_str     0x00000000        0x9 build/lcdc_rgba888_mxt_9x60_wvga/production/_ext/1839659051/legato_widget_list_skin_classic.o
 .comment       0x00000000       0x2c build/lcdc_rgba888_mxt_9x60_wvga/production/_ext/1839659051/legato_widget_list_skin_classic.o
 .ARM.attributes
                0x00000000       0x32 build/lcdc_rgba888_mxt_9x60_wvga/production/_ext/1839659051/legato_widget_list_skin_classic.o
 .text          0x00000000        0x0 build/lcdc_rgba888_mxt_9x60_wvga/production/_ext/1634291878/legato_widget_listwheel.o
 .data          0x00000000        0x0 build/lcdc_rgba888_mxt_9x60_wvga/production/_ext/1634291878/legato_widget_listwheel.o
 .bss           0x00000000        0x0 build/lcdc_rgba888_mxt_9x60_wvga/production/_ext/1634291878/legato_widget_listwheel.o
 .debug_info    0x00000000      0xd00 build/lcdc_rgba888_mxt_9x60_wvga/production/_ext/1634291878/legato_widget_listwheel.o
 .debug_abbrev  0x00000000      0x17b build/lcdc_rgba888_mxt_9x60_wvga/production/_ext/1634291878/legato_widget_listwheel.o
 .debug_aranges
                0x00000000       0x18 build/lcdc_rgba888_mxt_9x60_wvga/production/_ext/1634291878/legato_widget_listwheel.o
 .debug_line    0x00000000      0x10d build/lcdc_rgba888_mxt_9x60_wvga/production/_ext/1634291878/legato_widget_listwheel.o
 .debug_str     0x00000000       0x8b build/lcdc_rgba888_mxt_9x60_wvga/production/_ext/1634291878/legato_widget_listwheel.o
 .comment       0x00000000       0x2c build/lcdc_rgba888_mxt_9x60_wvga/production/_ext/1634291878/legato_widget_listwheel.o
 .ARM.attributes
                0x00000000       0x32 build/lcdc_rgba888_mxt_9x60_wvga/production/_ext/1634291878/legato_widget_listwheel.o
 .text          0x00000000        0x0 build/lcdc_rgba888_mxt_9x60_wvga/production/_ext/1634291878/legato_widget_listwheel_skin_classic.o
 .data          0x00000000        0x0 build/lcdc_rgba888_mxt_9x60_wvga/production/_ext/1634291878/legato_widget_listwheel_skin_classic.o
 .bss           0x00000000        0x0 build/lcdc_rgba888_mxt_9x60_wvga/production/_ext/1634291878/legato_widget_listwheel_skin_classic.o
 .debug_info    0x00000000      0x47d build/lcdc_rgba888_mxt_9x60_wvga/production/_ext/1634291878/legato_widget_listwheel_skin_classic.o
 .debug_abbrev  0x00000000       0xb5 build/lcdc_rgba888_mxt_9x60_wvga/production/_ext/1634291878/legato_widget_listwheel_skin_classic.o
 .debug_aranges
                0x00000000       0x18 build/lcdc_rgba888_mxt_9x60_wvga/production/_ext/1634291878/legato_widget_listwheel_skin_classic.o
 .debug_line    0x00000000       0xb8 build/lcdc_rgba888_mxt_9x60_wvga/production/_ext/1634291878/legato_widget_listwheel_skin_classic.o
 .debug_str     0x00000000        0x9 build/lcdc_rgba888_mxt_9x60_wvga/production/_ext/1634291878/legato_widget_listwheel_skin_classic.o
 .comment       0x00000000       0x2c build/lcdc_rgba888_mxt_9x60_wvga/production/_ext/1634291878/legato_widget_listwheel_skin_classic.o
 .ARM.attributes
                0x00000000       0x32 build/lcdc_rgba888_mxt_9x60_wvga/production/_ext/1634291878/legato_widget_listwheel_skin_classic.o
 .text          0x00000000        0x0 build/lcdc_rgba888_mxt_9x60_wvga/production/_ext/1290198647/legato_widget_pie_chart_skin_classic.o
 .data          0x00000000        0x0 build/lcdc_rgba888_mxt_9x60_wvga/production/_ext/1290198647/legato_widget_pie_chart_skin_classic.o
 .bss           0x00000000        0x0 build/lcdc_rgba888_mxt_9x60_wvga/production/_ext/1290198647/legato_widget_pie_chart_skin_classic.o
 .debug_info    0x00000000      0x47c build/lcdc_rgba888_mxt_9x60_wvga/production/_ext/1290198647/legato_widget_pie_chart_skin_classic.o
 .debug_abbrev  0x00000000       0xb5 build/lcdc_rgba888_mxt_9x60_wvga/production/_ext/1290198647/legato_widget_pie_chart_skin_classic.o
 .debug_aranges
                0x00000000       0x18 build/lcdc_rgba888_mxt_9x60_wvga/production/_ext/1290198647/legato_widget_pie_chart_skin_classic.o
 .debug_line    0x00000000       0xb8 build/lcdc_rgba888_mxt_9x60_wvga/production/_ext/1290198647/legato_widget_pie_chart_skin_classic.o
 .debug_str     0x00000000        0x9 build/lcdc_rgba888_mxt_9x60_wvga/production/_ext/1290198647/legato_widget_pie_chart_skin_classic.o
 .comment       0x00000000       0x2c build/lcdc_rgba888_mxt_9x60_wvga/production/_ext/1290198647/legato_widget_pie_chart_skin_classic.o
 .ARM.attributes
                0x00000000       0x32 build/lcdc_rgba888_mxt_9x60_wvga/production/_ext/1290198647/legato_widget_pie_chart_skin_classic.o
 .text          0x00000000        0x0 build/lcdc_rgba888_mxt_9x60_wvga/production/_ext/1290198647/legato_widget_pie_chart.o
 .data          0x00000000        0x0 build/lcdc_rgba888_mxt_9x60_wvga/production/_ext/1290198647/legato_widget_pie_chart.o
 .bss           0x00000000        0x0 build/lcdc_rgba888_mxt_9x60_wvga/production/_ext/1290198647/legato_widget_pie_chart.o
 .debug_info    0x00000000      0x46f build/lcdc_rgba888_mxt_9x60_wvga/production/_ext/1290198647/legato_widget_pie_chart.o
 .debug_abbrev  0x00000000       0xb5 build/lcdc_rgba888_mxt_9x60_wvga/production/_ext/1290198647/legato_widget_pie_chart.o
 .debug_aranges
                0x00000000       0x18 build/lcdc_rgba888_mxt_9x60_wvga/production/_ext/1290198647/legato_widget_pie_chart.o
 .debug_line    0x00000000       0xb8 build/lcdc_rgba888_mxt_9x60_wvga/production/_ext/1290198647/legato_widget_pie_chart.o
 .debug_str     0x00000000        0x9 build/lcdc_rgba888_mxt_9x60_wvga/production/_ext/1290198647/legato_widget_pie_chart.o
 .comment       0x00000000       0x2c build/lcdc_rgba888_mxt_9x60_wvga/production/_ext/1290198647/legato_widget_pie_chart.o
 .ARM.attributes
                0x00000000       0x32 build/lcdc_rgba888_mxt_9x60_wvga/production/_ext/1290198647/legato_widget_pie_chart.o
 .text          0x00000000        0x0 build/lcdc_rgba888_mxt_9x60_wvga/production/_ext/231973969/legato_widget_progressbar.o
 .data          0x00000000        0x0 build/lcdc_rgba888_mxt_9x60_wvga/production/_ext/231973969/legato_widget_progressbar.o
 .bss           0x00000000        0x0 build/lcdc_rgba888_mxt_9x60_wvga/production/_ext/231973969/legato_widget_progressbar.o
 .debug_info    0x00000000      0xd04 build/lcdc_rgba888_mxt_9x60_wvga/production/_ext/231973969/legato_widget_progressbar.o
 .debug_abbrev  0x00000000      0x17b build/lcdc_rgba888_mxt_9x60_wvga/production/_ext/231973969/legato_widget_progressbar.o
 .debug_aranges
                0x00000000       0x18 build/lcdc_rgba888_mxt_9x60_wvga/production/_ext/231973969/legato_widget_progressbar.o
 .debug_line    0x00000000      0x10d build/lcdc_rgba888_mxt_9x60_wvga/production/_ext/231973969/legato_widget_progressbar.o
 .debug_str     0x00000000       0x8b build/lcdc_rgba888_mxt_9x60_wvga/production/_ext/231973969/legato_widget_progressbar.o
 .comment       0x00000000       0x2c build/lcdc_rgba888_mxt_9x60_wvga/production/_ext/231973969/legato_widget_progressbar.o
 .ARM.attributes
                0x00000000       0x32 build/lcdc_rgba888_mxt_9x60_wvga/production/_ext/231973969/legato_widget_progressbar.o
 .text          0x00000000        0x0 build/lcdc_rgba888_mxt_9x60_wvga/production/_ext/231973969/legato_widget_progressbar_skin_classic.o
 .data          0x00000000        0x0 build/lcdc_rgba888_mxt_9x60_wvga/production/_ext/231973969/legato_widget_progressbar_skin_classic.o
 .bss           0x00000000        0x0 build/lcdc_rgba888_mxt_9x60_wvga/production/_ext/231973969/legato_widget_progressbar_skin_classic.o
 .debug_info    0x00000000      0x481 build/lcdc_rgba888_mxt_9x60_wvga/production/_ext/231973969/legato_widget_progressbar_skin_classic.o
 .debug_abbrev  0x00000000       0xb5 build/lcdc_rgba888_mxt_9x60_wvga/production/_ext/231973969/legato_widget_progressbar_skin_classic.o
 .debug_aranges
                0x00000000       0x18 build/lcdc_rgba888_mxt_9x60_wvga/production/_ext/231973969/legato_widget_progressbar_skin_classic.o
 .debug_line    0x00000000       0xb8 build/lcdc_rgba888_mxt_9x60_wvga/production/_ext/231973969/legato_widget_progressbar_skin_classic.o
 .debug_str     0x00000000        0x9 build/lcdc_rgba888_mxt_9x60_wvga/production/_ext/231973969/legato_widget_progressbar_skin_classic.o
 .comment       0x00000000       0x2c build/lcdc_rgba888_mxt_9x60_wvga/production/_ext/231973969/legato_widget_progressbar_skin_classic.o
 .ARM.attributes
                0x00000000       0x32 build/lcdc_rgba888_mxt_9x60_wvga/production/_ext/231973969/legato_widget_progressbar_skin_classic.o
 .text          0x00000000        0x0 build/lcdc_rgba888_mxt_9x60_wvga/production/_ext/1643194869/legato_widget_radial_menu_state.o
 .data          0x00000000        0x0 build/lcdc_rgba888_mxt_9x60_wvga/production/_ext/1643194869/legato_widget_radial_menu_state.o
 .bss           0x00000000        0x0 build/lcdc_rgba888_mxt_9x60_wvga/production/_ext/1643194869/legato_widget_radial_menu_state.o
 .debug_info    0x00000000      0xd09 build/lcdc_rgba888_mxt_9x60_wvga/production/_ext/1643194869/legato_widget_radial_menu_state.o
 .debug_abbrev  0x00000000      0x17b build/lcdc_rgba888_mxt_9x60_wvga/production/_ext/1643194869/legato_widget_radial_menu_state.o
 .debug_aranges
                0x00000000       0x18 build/lcdc_rgba888_mxt_9x60_wvga/production/_ext/1643194869/legato_widget_radial_menu_state.o
 .debug_line    0x00000000      0x10d build/lcdc_rgba888_mxt_9x60_wvga/production/_ext/1643194869/legato_widget_radial_menu_state.o
 .debug_str     0x00000000       0x8b build/lcdc_rgba888_mxt_9x60_wvga/production/_ext/1643194869/legato_widget_radial_menu_state.o
 .comment       0x00000000       0x2c build/lcdc_rgba888_mxt_9x60_wvga/production/_ext/1643194869/legato_widget_radial_menu_state.o
 .ARM.attributes
                0x00000000       0x32 build/lcdc_rgba888_mxt_9x60_wvga/production/_ext/1643194869/legato_widget_radial_menu_state.o
 .text          0x00000000        0x0 build/lcdc_rgba888_mxt_9x60_wvga/production/_ext/1643194869/legato_widget_radial_menu.o
 .data          0x00000000        0x0 build/lcdc_rgba888_mxt_9x60_wvga/production/_ext/1643194869/legato_widget_radial_menu.o
 .bss           0x00000000        0x0 build/lcdc_rgba888_mxt_9x60_wvga/production/_ext/1643194869/legato_widget_radial_menu.o
 .debug_info    0x00000000      0xd03 build/lcdc_rgba888_mxt_9x60_wvga/production/_ext/1643194869/legato_widget_radial_menu.o
 .debug_abbrev  0x00000000      0x17b build/lcdc_rgba888_mxt_9x60_wvga/production/_ext/1643194869/legato_widget_radial_menu.o
 .debug_aranges
                0x00000000       0x18 build/lcdc_rgba888_mxt_9x60_wvga/production/_ext/1643194869/legato_widget_radial_menu.o
 .debug_line    0x00000000      0x10d build/lcdc_rgba888_mxt_9x60_wvga/production/_ext/1643194869/legato_widget_radial_menu.o
 .debug_str     0x00000000       0x8b build/lcdc_rgba888_mxt_9x60_wvga/production/_ext/1643194869/legato_widget_radial_menu.o
 .comment       0x00000000       0x2c build/lcdc_rgba888_mxt_9x60_wvga/production/_ext/1643194869/legato_widget_radial_menu.o
 .ARM.attributes
                0x00000000       0x32 build/lcdc_rgba888_mxt_9x60_wvga/production/_ext/1643194869/legato_widget_radial_menu.o
 .text          0x00000000        0x0 build/lcdc_rgba888_mxt_9x60_wvga/production/_ext/1643194869/legato_widget_radial_menu_skin_classic.o
 .data          0x00000000        0x0 build/lcdc_rgba888_mxt_9x60_wvga/production/_ext/1643194869/legato_widget_radial_menu_skin_classic.o
 .bss           0x00000000        0x0 build/lcdc_rgba888_mxt_9x60_wvga/production/_ext/1643194869/legato_widget_radial_menu_skin_classic.o
 .debug_info    0x00000000      0xd10 build/lcdc_rgba888_mxt_9x60_wvga/production/_ext/1643194869/legato_widget_radial_menu_skin_classic.o
 .debug_abbrev  0x00000000      0x17b build/lcdc_rgba888_mxt_9x60_wvga/production/_ext/1643194869/legato_widget_radial_menu_skin_classic.o
 .debug_aranges
                0x00000000       0x18 build/lcdc_rgba888_mxt_9x60_wvga/production/_ext/1643194869/legato_widget_radial_menu_skin_classic.o
 .debug_line    0x00000000      0x10d build/lcdc_rgba888_mxt_9x60_wvga/production/_ext/1643194869/legato_widget_radial_menu_skin_classic.o
 .debug_str     0x00000000       0x8b build/lcdc_rgba888_mxt_9x60_wvga/production/_ext/1643194869/legato_widget_radial_menu_skin_classic.o
 .comment       0x00000000       0x2c build/lcdc_rgba888_mxt_9x60_wvga/production/_ext/1643194869/legato_widget_radial_menu_skin_classic.o
 .ARM.attributes
                0x00000000       0x32 build/lcdc_rgba888_mxt_9x60_wvga/production/_ext/1643194869/legato_widget_radial_menu_skin_classic.o
 .text          0x00000000        0x0 build/lcdc_rgba888_mxt_9x60_wvga/production/_ext/1338867754/legato_radiobutton_group.o
 .data          0x00000000        0x0 build/lcdc_rgba888_mxt_9x60_wvga/production/_ext/1338867754/legato_radiobutton_group.o
 .bss           0x00000000        0x0 build/lcdc_rgba888_mxt_9x60_wvga/production/_ext/1338867754/legato_radiobutton_group.o
 .debug_info    0x00000000      0x473 build/lcdc_rgba888_mxt_9x60_wvga/production/_ext/1338867754/legato_radiobutton_group.o
 .debug_abbrev  0x00000000       0xb5 build/lcdc_rgba888_mxt_9x60_wvga/production/_ext/1338867754/legato_radiobutton_group.o
 .debug_aranges
                0x00000000       0x18 build/lcdc_rgba888_mxt_9x60_wvga/production/_ext/1338867754/legato_radiobutton_group.o
 .debug_line    0x00000000       0xb8 build/lcdc_rgba888_mxt_9x60_wvga/production/_ext/1338867754/legato_radiobutton_group.o
 .debug_str     0x00000000        0x9 build/lcdc_rgba888_mxt_9x60_wvga/production/_ext/1338867754/legato_radiobutton_group.o
 .comment       0x00000000       0x2c build/lcdc_rgba888_mxt_9x60_wvga/production/_ext/1338867754/legato_radiobutton_group.o
 .ARM.attributes
                0x00000000       0x32 build/lcdc_rgba888_mxt_9x60_wvga/production/_ext/1338867754/legato_radiobutton_group.o
 .text          0x00000000        0x0 build/lcdc_rgba888_mxt_9x60_wvga/production/_ext/1338867754/legato_widget_radiobutton.o
 .data          0x00000000        0x0 build/lcdc_rgba888_mxt_9x60_wvga/production/_ext/1338867754/legato_widget_radiobutton.o
 .bss           0x00000000        0x0 build/lcdc_rgba888_mxt_9x60_wvga/production/_ext/1338867754/legato_widget_radiobutton.o
 .debug_info    0x00000000      0xd04 build/lcdc_rgba888_mxt_9x60_wvga/production/_ext/1338867754/legato_widget_radiobutton.o
 .debug_abbrev  0x00000000      0x17b build/lcdc_rgba888_mxt_9x60_wvga/production/_ext/1338867754/legato_widget_radiobutton.o
 .debug_aranges
                0x00000000       0x18 build/lcdc_rgba888_mxt_9x60_wvga/production/_ext/1338867754/legato_widget_radiobutton.o
 .debug_line    0x00000000      0x10d build/lcdc_rgba888_mxt_9x60_wvga/production/_ext/1338867754/legato_widget_radiobutton.o
 .debug_str     0x00000000       0x8b build/lcdc_rgba888_mxt_9x60_wvga/production/_ext/1338867754/legato_widget_radiobutton.o
 .comment       0x00000000       0x2c build/lcdc_rgba888_mxt_9x60_wvga/production/_ext/1338867754/legato_widget_radiobutton.o
 .ARM.attributes
                0x00000000       0x32 build/lcdc_rgba888_mxt_9x60_wvga/production/_ext/1338867754/legato_widget_radiobutton.o
 .text          0x00000000        0x0 build/lcdc_rgba888_mxt_9x60_wvga/production/_ext/1338867754/legato_widget_radiobutton_skin_classic.o
 .data          0x00000000        0x0 build/lcdc_rgba888_mxt_9x60_wvga/production/_ext/1338867754/legato_widget_radiobutton_skin_classic.o
 .bss           0x00000000        0x0 build/lcdc_rgba888_mxt_9x60_wvga/production/_ext/1338867754/legato_widget_radiobutton_skin_classic.o
 .debug_info    0x00000000      0x481 build/lcdc_rgba888_mxt_9x60_wvga/production/_ext/1338867754/legato_widget_radiobutton_skin_classic.o
 .debug_abbrev  0x00000000       0xb5 build/lcdc_rgba888_mxt_9x60_wvga/production/_ext/1338867754/legato_widget_radiobutton_skin_classic.o
 .debug_aranges
                0x00000000       0x18 build/lcdc_rgba888_mxt_9x60_wvga/production/_ext/1338867754/legato_widget_radiobutton_skin_classic.o
 .debug_line    0x00000000       0xb8 build/lcdc_rgba888_mxt_9x60_wvga/production/_ext/1338867754/legato_widget_radiobutton_skin_classic.o
 .debug_str     0x00000000        0x9 build/lcdc_rgba888_mxt_9x60_wvga/production/_ext/1338867754/legato_widget_radiobutton_skin_classic.o
 .comment       0x00000000       0x2c build/lcdc_rgba888_mxt_9x60_wvga/production/_ext/1338867754/legato_widget_radiobutton_skin_classic.o
 .ARM.attributes
                0x00000000       0x32 build/lcdc_rgba888_mxt_9x60_wvga/production/_ext/1338867754/legato_widget_radiobutton_skin_classic.o
 .text          0x00000000        0x0 build/lcdc_rgba888_mxt_9x60_wvga/production/_ext/337100648/legato_widget_rectangle.o
 .data          0x00000000        0x0 build/lcdc_rgba888_mxt_9x60_wvga/production/_ext/337100648/legato_widget_rectangle.o
 .bss           0x00000000        0x0 build/lcdc_rgba888_mxt_9x60_wvga/production/_ext/337100648/legato_widget_rectangle.o
 .text          0x00000000        0x0 build/lcdc_rgba888_mxt_9x60_wvga/production/_ext/337100648/legato_widget_rectangle_skin_classic.o
 .data          0x00000000        0x0 build/lcdc_rgba888_mxt_9x60_wvga/production/_ext/337100648/legato_widget_rectangle_skin_classic.o
 .bss           0x00000000        0x0 build/lcdc_rgba888_mxt_9x60_wvga/production/_ext/337100648/legato_widget_rectangle_skin_classic.o
 .text          0x00000000        0x0 build/lcdc_rgba888_mxt_9x60_wvga/production/_ext/1040606897/legato_widget_scrollbar.o
 .data          0x00000000        0x0 build/lcdc_rgba888_mxt_9x60_wvga/production/_ext/1040606897/legato_widget_scrollbar.o
 .bss           0x00000000        0x0 build/lcdc_rgba888_mxt_9x60_wvga/production/_ext/1040606897/legato_widget_scrollbar.o
 .debug_info    0x00000000      0xd00 build/lcdc_rgba888_mxt_9x60_wvga/production/_ext/1040606897/legato_widget_scrollbar.o
 .debug_abbrev  0x00000000      0x17b build/lcdc_rgba888_mxt_9x60_wvga/production/_ext/1040606897/legato_widget_scrollbar.o
 .debug_aranges
                0x00000000       0x18 build/lcdc_rgba888_mxt_9x60_wvga/production/_ext/1040606897/legato_widget_scrollbar.o
 .debug_line    0x00000000      0x10d build/lcdc_rgba888_mxt_9x60_wvga/production/_ext/1040606897/legato_widget_scrollbar.o
 .debug_str     0x00000000       0x8b build/lcdc_rgba888_mxt_9x60_wvga/production/_ext/1040606897/legato_widget_scrollbar.o
 .comment       0x00000000       0x2c build/lcdc_rgba888_mxt_9x60_wvga/production/_ext/1040606897/legato_widget_scrollbar.o
 .ARM.attributes
                0x00000000       0x32 build/lcdc_rgba888_mxt_9x60_wvga/production/_ext/1040606897/legato_widget_scrollbar.o
 .text          0x00000000        0x0 build/lcdc_rgba888_mxt_9x60_wvga/production/_ext/1040606897/legato_widget_scrollbar_skin_classic.o
 .data          0x00000000        0x0 build/lcdc_rgba888_mxt_9x60_wvga/production/_ext/1040606897/legato_widget_scrollbar_skin_classic.o
 .bss           0x00000000        0x0 build/lcdc_rgba888_mxt_9x60_wvga/production/_ext/1040606897/legato_widget_scrollbar_skin_classic.o
 .debug_info    0x00000000      0x47d build/lcdc_rgba888_mxt_9x60_wvga/production/_ext/1040606897/legato_widget_scrollbar_skin_classic.o
 .debug_abbrev  0x00000000       0xb5 build/lcdc_rgba888_mxt_9x60_wvga/production/_ext/1040606897/legato_widget_scrollbar_skin_classic.o
 .debug_aranges
                0x00000000       0x18 build/lcdc_rgba888_mxt_9x60_wvga/production/_ext/1040606897/legato_widget_scrollbar_skin_classic.o
 .debug_line    0x00000000       0xb8 build/lcdc_rgba888_mxt_9x60_wvga/production/_ext/1040606897/legato_widget_scrollbar_skin_classic.o
 .debug_str     0x00000000        0x9 build/lcdc_rgba888_mxt_9x60_wvga/production/_ext/1040606897/legato_widget_scrollbar_skin_classic.o
 .comment       0x00000000       0x2c build/lcdc_rgba888_mxt_9x60_wvga/production/_ext/1040606897/legato_widget_scrollbar_skin_classic.o
 .ARM.attributes
                0x00000000       0x32 build/lcdc_rgba888_mxt_9x60_wvga/production/_ext/1040606897/legato_widget_scrollbar_skin_classic.o
 .text          0x00000000        0x0 build/lcdc_rgba888_mxt_9x60_wvga/production/_ext/1817042520/legato_widget_slider.o
 .data          0x00000000        0x0 build/lcdc_rgba888_mxt_9x60_wvga/production/_ext/1817042520/legato_widget_slider.o
 .bss           0x00000000        0x0 build/lcdc_rgba888_mxt_9x60_wvga/production/_ext/1817042520/legato_widget_slider.o
 .debug_info    0x00000000      0xcfa build/lcdc_rgba888_mxt_9x60_wvga/production/_ext/1817042520/legato_widget_slider.o
 .debug_abbrev  0x00000000      0x17b build/lcdc_rgba888_mxt_9x60_wvga/production/_ext/1817042520/legato_widget_slider.o
 .debug_aranges
                0x00000000       0x18 build/lcdc_rgba888_mxt_9x60_wvga/production/_ext/1817042520/legato_widget_slider.o
 .debug_line    0x00000000      0x10d build/lcdc_rgba888_mxt_9x60_wvga/production/_ext/1817042520/legato_widget_slider.o
 .debug_str     0x00000000       0x8b build/lcdc_rgba888_mxt_9x60_wvga/production/_ext/1817042520/legato_widget_slider.o
 .comment       0x00000000       0x2c build/lcdc_rgba888_mxt_9x60_wvga/production/_ext/1817042520/legato_widget_slider.o
 .ARM.attributes
                0x00000000       0x32 build/lcdc_rgba888_mxt_9x60_wvga/production/_ext/1817042520/legato_widget_slider.o
 .text          0x00000000        0x0 build/lcdc_rgba888_mxt_9x60_wvga/production/_ext/1817042520/legato_widget_slider_skin_classic.o
 .data          0x00000000        0x0 build/lcdc_rgba888_mxt_9x60_wvga/production/_ext/1817042520/legato_widget_slider_skin_classic.o
 .bss           0x00000000        0x0 build/lcdc_rgba888_mxt_9x60_wvga/production/_ext/1817042520/legato_widget_slider_skin_classic.o
 .debug_info    0x00000000      0x477 build/lcdc_rgba888_mxt_9x60_wvga/production/_ext/1817042520/legato_widget_slider_skin_classic.o
 .debug_abbrev  0x00000000       0xb5 build/lcdc_rgba888_mxt_9x60_wvga/production/_ext/1817042520/legato_widget_slider_skin_classic.o
 .debug_aranges
                0x00000000       0x18 build/lcdc_rgba888_mxt_9x60_wvga/production/_ext/1817042520/legato_widget_slider_skin_classic.o
 .debug_line    0x00000000       0xb8 build/lcdc_rgba888_mxt_9x60_wvga/production/_ext/1817042520/legato_widget_slider_skin_classic.o
 .debug_str     0x00000000        0x9 build/lcdc_rgba888_mxt_9x60_wvga/production/_ext/1817042520/legato_widget_slider_skin_classic.o
 .comment       0x00000000       0x2c build/lcdc_rgba888_mxt_9x60_wvga/production/_ext/1817042520/legato_widget_slider_skin_classic.o
 .ARM.attributes
                0x00000000       0x32 build/lcdc_rgba888_mxt_9x60_wvga/production/_ext/1817042520/legato_widget_slider_skin_classic.o
 .text          0x00000000        0x0 build/lcdc_rgba888_mxt_9x60_wvga/production/_ext/1805132566/legato_widget_textfield.o
 .data          0x00000000        0x0 build/lcdc_rgba888_mxt_9x60_wvga/production/_ext/1805132566/legato_widget_textfield.o
 .bss           0x00000000        0x0 build/lcdc_rgba888_mxt_9x60_wvga/production/_ext/1805132566/legato_widget_textfield.o
 .debug_info    0x00000000      0xd00 build/lcdc_rgba888_mxt_9x60_wvga/production/_ext/1805132566/legato_widget_textfield.o
 .debug_abbrev  0x00000000      0x17b build/lcdc_rgba888_mxt_9x60_wvga/production/_ext/1805132566/legato_widget_textfield.o
 .debug_aranges
                0x00000000       0x18 build/lcdc_rgba888_mxt_9x60_wvga/production/_ext/1805132566/legato_widget_textfield.o
 .debug_line    0x00000000      0x10d build/lcdc_rgba888_mxt_9x60_wvga/production/_ext/1805132566/legato_widget_textfield.o
 .debug_str     0x00000000       0x8b build/lcdc_rgba888_mxt_9x60_wvga/production/_ext/1805132566/legato_widget_textfield.o
 .comment       0x00000000       0x2c build/lcdc_rgba888_mxt_9x60_wvga/production/_ext/1805132566/legato_widget_textfield.o
 .ARM.attributes
                0x00000000       0x32 build/lcdc_rgba888_mxt_9x60_wvga/production/_ext/1805132566/legato_widget_textfield.o
 .text          0x00000000        0x0 build/lcdc_rgba888_mxt_9x60_wvga/production/_ext/1805132566/legato_widget_textfield_skin_classic.o
 .data          0x00000000        0x0 build/lcdc_rgba888_mxt_9x60_wvga/production/_ext/1805132566/legato_widget_textfield_skin_classic.o
 .bss           0x00000000        0x0 build/lcdc_rgba888_mxt_9x60_wvga/production/_ext/1805132566/legato_widget_textfield_skin_classic.o
 .debug_info    0x00000000      0xd0d build/lcdc_rgba888_mxt_9x60_wvga/production/_ext/1805132566/legato_widget_textfield_skin_classic.o
 .debug_abbrev  0x00000000      0x17b build/lcdc_rgba888_mxt_9x60_wvga/production/_ext/1805132566/legato_widget_textfield_skin_classic.o
 .debug_aranges
                0x00000000       0x18 build/lcdc_rgba888_mxt_9x60_wvga/production/_ext/1805132566/legato_widget_textfield_skin_classic.o
 .debug_line    0x00000000      0x10d build/lcdc_rgba888_mxt_9x60_wvga/production/_ext/1805132566/legato_widget_textfield_skin_classic.o
 .debug_str     0x00000000       0x8b build/lcdc_rgba888_mxt_9x60_wvga/production/_ext/1805132566/legato_widget_textfield_skin_classic.o
 .comment       0x00000000       0x2c build/lcdc_rgba888_mxt_9x60_wvga/production/_ext/1805132566/legato_widget_textfield_skin_classic.o
 .ARM.attributes
                0x00000000       0x32 build/lcdc_rgba888_mxt_9x60_wvga/production/_ext/1805132566/legato_widget_textfield_skin_classic.o
 .text          0x00000000        0x0 build/lcdc_rgba888_mxt_9x60_wvga/production/_ext/1093664902/legato_widget_touchtest.o
 .data          0x00000000        0x0 build/lcdc_rgba888_mxt_9x60_wvga/production/_ext/1093664902/legato_widget_touchtest.o
 .bss           0x00000000        0x0 build/lcdc_rgba888_mxt_9x60_wvga/production/_ext/1093664902/legato_widget_touchtest.o
 .debug_info    0x00000000      0x470 build/lcdc_rgba888_mxt_9x60_wvga/production/_ext/1093664902/legato_widget_touchtest.o
 .debug_abbrev  0x00000000       0xb5 build/lcdc_rgba888_mxt_9x60_wvga/production/_ext/1093664902/legato_widget_touchtest.o
 .debug_aranges
                0x00000000       0x18 build/lcdc_rgba888_mxt_9x60_wvga/production/_ext/1093664902/legato_widget_touchtest.o
 .debug_line    0x00000000       0xb8 build/lcdc_rgba888_mxt_9x60_wvga/production/_ext/1093664902/legato_widget_touchtest.o
 .debug_str     0x00000000        0x9 build/lcdc_rgba888_mxt_9x60_wvga/production/_ext/1093664902/legato_widget_touchtest.o
 .comment       0x00000000       0x2c build/lcdc_rgba888_mxt_9x60_wvga/production/_ext/1093664902/legato_widget_touchtest.o
 .ARM.attributes
                0x00000000       0x32 build/lcdc_rgba888_mxt_9x60_wvga/production/_ext/1093664902/legato_widget_touchtest.o
 .text          0x00000000        0x0 build/lcdc_rgba888_mxt_9x60_wvga/production/_ext/1093664902/legato_widget_touchtest_skin_classic.o
 .data          0x00000000        0x0 build/lcdc_rgba888_mxt_9x60_wvga/production/_ext/1093664902/legato_widget_touchtest_skin_classic.o
 .bss           0x00000000        0x0 build/lcdc_rgba888_mxt_9x60_wvga/production/_ext/1093664902/legato_widget_touchtest_skin_classic.o
 .debug_info    0x00000000      0xd0d build/lcdc_rgba888_mxt_9x60_wvga/production/_ext/1093664902/legato_widget_touchtest_skin_classic.o
 .debug_abbrev  0x00000000      0x17b build/lcdc_rgba888_mxt_9x60_wvga/production/_ext/1093664902/legato_widget_touchtest_skin_classic.o
 .debug_aranges
                0x00000000       0x18 build/lcdc_rgba888_mxt_9x60_wvga/production/_ext/1093664902/legato_widget_touchtest_skin_classic.o
 .debug_line    0x00000000      0x10d build/lcdc_rgba888_mxt_9x60_wvga/production/_ext/1093664902/legato_widget_touchtest_skin_classic.o
 .debug_str     0x00000000       0x8b build/lcdc_rgba888_mxt_9x60_wvga/production/_ext/1093664902/legato_widget_touchtest_skin_classic.o
 .comment       0x00000000       0x2c build/lcdc_rgba888_mxt_9x60_wvga/production/_ext/1093664902/legato_widget_touchtest_skin_classic.o
 .ARM.attributes
                0x00000000       0x32 build/lcdc_rgba888_mxt_9x60_wvga/production/_ext/1093664902/legato_widget_touchtest_skin_classic.o
 .text          0x00000000        0x0 build/lcdc_rgba888_mxt_9x60_wvga/production/_ext/1928937831/legato_widget_window_skin_classic.o
 .data          0x00000000        0x0 build/lcdc_rgba888_mxt_9x60_wvga/production/_ext/1928937831/legato_widget_window_skin_classic.o
 .bss           0x00000000        0x0 build/lcdc_rgba888_mxt_9x60_wvga/production/_ext/1928937831/legato_widget_window_skin_classic.o
 .debug_info    0x00000000      0x477 build/lcdc_rgba888_mxt_9x60_wvga/production/_ext/1928937831/legato_widget_window_skin_classic.o
 .debug_abbrev  0x00000000       0xb5 build/lcdc_rgba888_mxt_9x60_wvga/production/_ext/1928937831/legato_widget_window_skin_classic.o
 .debug_aranges
                0x00000000       0x18 build/lcdc_rgba888_mxt_9x60_wvga/production/_ext/1928937831/legato_widget_window_skin_classic.o
 .debug_line    0x00000000       0xb8 build/lcdc_rgba888_mxt_9x60_wvga/production/_ext/1928937831/legato_widget_window_skin_classic.o
 .debug_str     0x00000000        0x9 build/lcdc_rgba888_mxt_9x60_wvga/production/_ext/1928937831/legato_widget_window_skin_classic.o
 .comment       0x00000000       0x2c build/lcdc_rgba888_mxt_9x60_wvga/production/_ext/1928937831/legato_widget_window_skin_classic.o
 .ARM.attributes
                0x00000000       0x32 build/lcdc_rgba888_mxt_9x60_wvga/production/_ext/1928937831/legato_widget_window_skin_classic.o
 .text          0x00000000        0x0 build/lcdc_rgba888_mxt_9x60_wvga/production/_ext/1928937831/legato_widget_window.o
 .data          0x00000000        0x0 build/lcdc_rgba888_mxt_9x60_wvga/production/_ext/1928937831/legato_widget_window.o
 .bss           0x00000000        0x0 build/lcdc_rgba888_mxt_9x60_wvga/production/_ext/1928937831/legato_widget_window.o
 .debug_info    0x00000000      0x46a build/lcdc_rgba888_mxt_9x60_wvga/production/_ext/1928937831/legato_widget_window.o
 .debug_abbrev  0x00000000       0xb5 build/lcdc_rgba888_mxt_9x60_wvga/production/_ext/1928937831/legato_widget_window.o
 .debug_aranges
                0x00000000       0x18 build/lcdc_rgba888_mxt_9x60_wvga/production/_ext/1928937831/legato_widget_window.o
 .debug_line    0x00000000       0xb8 build/lcdc_rgba888_mxt_9x60_wvga/production/_ext/1928937831/legato_widget_window.o
 .debug_str     0x00000000        0x9 build/lcdc_rgba888_mxt_9x60_wvga/production/_ext/1928937831/legato_widget_window.o
 .comment       0x00000000       0x2c build/lcdc_rgba888_mxt_9x60_wvga/production/_ext/1928937831/legato_widget_window.o
 .ARM.attributes
                0x00000000       0x32 build/lcdc_rgba888_mxt_9x60_wvga/production/_ext/1928937831/legato_widget_window.o
 .text          0x00000000        0x0 build/lcdc_rgba888_mxt_9x60_wvga/production/_ext/261620856/legato_widget_skin_classic.o
 .data          0x00000000        0x0 build/lcdc_rgba888_mxt_9x60_wvga/production/_ext/261620856/legato_widget_skin_classic.o
 .bss           0x00000000        0x0 build/lcdc_rgba888_mxt_9x60_wvga/production/_ext/261620856/legato_widget_skin_classic.o
 .text          0x00000000        0x0 build/lcdc_rgba888_mxt_9x60_wvga/production/_ext/261620856/legato_widget.o
 .data          0x00000000        0x0 build/lcdc_rgba888_mxt_9x60_wvga/production/_ext/261620856/legato_widget.o
 .bss           0x00000000        0x0 build/lcdc_rgba888_mxt_9x60_wvga/production/_ext/261620856/legato_widget.o
 .text          0x00000000        0x0 build/lcdc_rgba888_mxt_9x60_wvga/production/_ext/261620856/legato_editwidget.o
 .data          0x00000000        0x0 build/lcdc_rgba888_mxt_9x60_wvga/production/_ext/261620856/legato_editwidget.o
 .bss           0x00000000        0x0 build/lcdc_rgba888_mxt_9x60_wvga/production/_ext/261620856/legato_editwidget.o
 .text._leEditWidget_EditStart
                0x00000000        0x8 build/lcdc_rgba888_mxt_9x60_wvga/production/_ext/261620856/legato_editwidget.o
 .text._leEditWidget_EditEnd
                0x00000000        0x4 build/lcdc_rgba888_mxt_9x60_wvga/production/_ext/261620856/legato_editwidget.o
 .text._leEditWidget_EditClear
                0x00000000        0x4 build/lcdc_rgba888_mxt_9x60_wvga/production/_ext/261620856/legato_editwidget.o
 .text._leEditWidget_EditAccept
                0x00000000        0x4 build/lcdc_rgba888_mxt_9x60_wvga/production/_ext/261620856/legato_editwidget.o
 .text._leEditWidget_EditSet
                0x00000000        0x4 build/lcdc_rgba888_mxt_9x60_wvga/production/_ext/261620856/legato_editwidget.o
 .text._leEditWidget_EditAppend
                0x00000000        0x4 build/lcdc_rgba888_mxt_9x60_wvga/production/_ext/261620856/legato_editwidget.o
 .text._leEditWidget_EditBackspace
                0x00000000        0x4 build/lcdc_rgba888_mxt_9x60_wvga/production/_ext/261620856/legato_editwidget.o
 .text._leEditWidget_Destructor
                0x00000000        0xc build/lcdc_rgba888_mxt_9x60_wvga/production/_ext/261620856/legato_editwidget.o
 .text.leEditWidget_Constructor
                0x00000000       0x20 build/lcdc_rgba888_mxt_9x60_wvga/production/_ext/261620856/legato_editwidget.o
 .text._leEditWidget_Clear
                0x00000000       0x20 build/lcdc_rgba888_mxt_9x60_wvga/production/_ext/261620856/legato_editwidget.o
 .text._leEditWidget_Accept
                0x00000000       0x20 build/lcdc_rgba888_mxt_9x60_wvga/production/_ext/261620856/legato_editwidget.o
 .text._leEditWidget_Set
                0x00000000       0x28 build/lcdc_rgba888_mxt_9x60_wvga/production/_ext/261620856/legato_editwidget.o
 .text._leEditWidget_Append
                0x00000000       0x28 build/lcdc_rgba888_mxt_9x60_wvga/production/_ext/261620856/legato_editwidget.o
 .text._leEditWidget_Backspace
                0x00000000       0x20 build/lcdc_rgba888_mxt_9x60_wvga/production/_ext/261620856/legato_editwidget.o
 .rodata.editWidgetVTable
                0x00000000      0x150 build/lcdc_rgba888_mxt_9x60_wvga/production/_ext/261620856/legato_editwidget.o
 .debug_info    0x00000000     0x38bb build/lcdc_rgba888_mxt_9x60_wvga/production/_ext/261620856/legato_editwidget.o
 .debug_abbrev  0x00000000      0x348 build/lcdc_rgba888_mxt_9x60_wvga/production/_ext/261620856/legato_editwidget.o
 .debug_loc     0x00000000      0x1f9 build/lcdc_rgba888_mxt_9x60_wvga/production/_ext/261620856/legato_editwidget.o
 .debug_aranges
                0x00000000       0x88 build/lcdc_rgba888_mxt_9x60_wvga/production/_ext/261620856/legato_editwidget.o
 .debug_ranges  0x00000000       0x78 build/lcdc_rgba888_mxt_9x60_wvga/production/_ext/261620856/legato_editwidget.o
 .debug_line    0x00000000      0x4f4 build/lcdc_rgba888_mxt_9x60_wvga/production/_ext/261620856/legato_editwidget.o
 .debug_str     0x00000000      0x625 build/lcdc_rgba888_mxt_9x60_wvga/production/_ext/261620856/legato_editwidget.o
 .comment       0x00000000       0x2c build/lcdc_rgba888_mxt_9x60_wvga/production/_ext/261620856/legato_editwidget.o
 .debug_frame   0x00000000      0x128 build/lcdc_rgba888_mxt_9x60_wvga/production/_ext/261620856/legato_editwidget.o
 .ARM.attributes
                0x00000000       0x2c build/lcdc_rgba888_mxt_9x60_wvga/production/_ext/261620856/legato_editwidget.o
 .text          0x00000000        0x0 build/lcdc_rgba888_mxt_9x60_wvga/production/_ext/261620856/legato_widget_skin_classic_common.o
 .data          0x00000000        0x0 build/lcdc_rgba888_mxt_9x60_wvga/production/_ext/261620856/legato_widget_skin_classic_common.o
 .bss           0x00000000        0x0 build/lcdc_rgba888_mxt_9x60_wvga/production/_ext/261620856/legato_widget_skin_classic_common.o
 .text.leDraw_2x1BevelBorder
                0x00000000       0xfc build/lcdc_rgba888_mxt_9x60_wvga/production/_ext/261620856/legato_widget_skin_classic_common.o
 .text.leDraw_1x2BevelBorder
                0x00000000      0x108 build/lcdc_rgba888_mxt_9x60_wvga/production/_ext/261620856/legato_widget_skin_classic_common.o
 .text.leDraw_2x2BevelBorder
                0x00000000      0x154 build/lcdc_rgba888_mxt_9x60_wvga/production/_ext/261620856/legato_widget_skin_classic_common.o
 .text.leWidget_SkinClassic_DrawStandardRoundCornerLineBorder
                0x00000000       0x48 build/lcdc_rgba888_mxt_9x60_wvga/production/_ext/261620856/legato_widget_skin_classic_common.o
 .text          0x00000000        0x0 build/lcdc_rgba888_mxt_9x60_wvga/production/_ext/4986847/plib_aic.o
 .data          0x00000000        0x0 build/lcdc_rgba888_mxt_9x60_wvga/production/_ext/4986847/plib_aic.o
 .bss           0x00000000        0x0 build/lcdc_rgba888_mxt_9x60_wvga/production/_ext/4986847/plib_aic.o
 .text.AIC_INT_IrqEnable
                0x00000000       0x10 build/lcdc_rgba888_mxt_9x60_wvga/production/_ext/4986847/plib_aic.o
 .text          0x00000000        0x0 build/lcdc_rgba888_mxt_9x60_wvga/production/_ext/4988870/plib_clk.o
 .data          0x00000000        0x0 build/lcdc_rgba888_mxt_9x60_wvga/production/_ext/4988870/plib_clk.o
 .bss           0x00000000        0x0 build/lcdc_rgba888_mxt_9x60_wvga/production/_ext/4988870/plib_clk.o
 .text          0x00000000        0x0 build/lcdc_rgba888_mxt_9x60_wvga/production/_ext/813772974/plib_flexcom6_twi_master.o
 .data          0x00000000        0x0 build/lcdc_rgba888_mxt_9x60_wvga/production/_ext/813772974/plib_flexcom6_twi_master.o
 .bss           0x00000000        0x0 build/lcdc_rgba888_mxt_9x60_wvga/production/_ext/813772974/plib_flexcom6_twi_master.o
 .text.FLEXCOM6_TWI_IsBusy
                0x00000000       0x18 build/lcdc_rgba888_mxt_9x60_wvga/production/_ext/813772974/plib_flexcom6_twi_master.o
 .text          0x00000000        0x0 build/lcdc_rgba888_mxt_9x60_wvga/production/_ext/154914322/plib_lcdc.o
 .data          0x00000000        0x0 build/lcdc_rgba888_mxt_9x60_wvga/production/_ext/154914322/plib_lcdc.o
 .bss           0x00000000        0x0 build/lcdc_rgba888_mxt_9x60_wvga/production/_ext/154914322/plib_lcdc.o
 .text.LCDC_SetPixelClockPolarity
                0x00000000       0x24 build/lcdc_rgba888_mxt_9x60_wvga/production/_ext/154914322/plib_lcdc.o
 .text.LCDC_SetVSYNCPulseEnd
                0x00000000       0x2c build/lcdc_rgba888_mxt_9x60_wvga/production/_ext/154914322/plib_lcdc.o
 .text.LCDC_SetDisplaySignalPolarity
                0x00000000       0x2c build/lcdc_rgba888_mxt_9x60_wvga/production/_ext/154914322/plib_lcdc.o
 .text.LCDC_SetDitheringEnable
                0x00000000       0x2c build/lcdc_rgba888_mxt_9x60_wvga/production/_ext/154914322/plib_lcdc.o
 .text.LCDC_SetVSYNCPulseSetupConfig
                0x00000000       0x20 build/lcdc_rgba888_mxt_9x60_wvga/production/_ext/154914322/plib_lcdc.o
 .text.LCDC_SetVSYNCPulseHoldConfig
                0x00000000       0x20 build/lcdc_rgba888_mxt_9x60_wvga/production/_ext/154914322/plib_lcdc.o
 .text.LCDC_ClockReset
                0x00000000       0x18 build/lcdc_rgba888_mxt_9x60_wvga/production/_ext/154914322/plib_lcdc.o
 .text.LCDC_SYNCReset
                0x00000000       0x18 build/lcdc_rgba888_mxt_9x60_wvga/production/_ext/154914322/plib_lcdc.o
 .text.LCDC_DISPSignalReset
                0x00000000       0x18 build/lcdc_rgba888_mxt_9x60_wvga/production/_ext/154914322/plib_lcdc.o
 .text.LCDC_PWMReset
                0x00000000       0x18 build/lcdc_rgba888_mxt_9x60_wvga/production/_ext/154914322/plib_lcdc.o
 .text.LCDC_GetPixelClockStatusRunning
                0x00000000       0x14 build/lcdc_rgba888_mxt_9x60_wvga/production/_ext/154914322/plib_lcdc.o
 .text.LCDC_GetTimingEngineStatusRunning
                0x00000000       0x18 build/lcdc_rgba888_mxt_9x60_wvga/production/_ext/154914322/plib_lcdc.o
 .text.LCDC_GetDisplaySignalStatusActivated
                0x00000000       0x18 build/lcdc_rgba888_mxt_9x60_wvga/production/_ext/154914322/plib_lcdc.o
 .text.LCDC_GetPWMSignalStatusActivated
                0x00000000       0x18 build/lcdc_rgba888_mxt_9x60_wvga/production/_ext/154914322/plib_lcdc.o
 .text.LCDC_GetSynchronizationStatusInProgress
                0x00000000       0x18 build/lcdc_rgba888_mxt_9x60_wvga/production/_ext/154914322/plib_lcdc.o
 .text.LCDC_SetSOFInterruptEnable
                0x00000000       0x28 build/lcdc_rgba888_mxt_9x60_wvga/production/_ext/154914322/plib_lcdc.o
 .text.LCDC_SetLCDDisableInterruptEnable
                0x00000000       0x28 build/lcdc_rgba888_mxt_9x60_wvga/production/_ext/154914322/plib_lcdc.o
 .text.LCDC_UpdateAddToQueue
                0x00000000       0x70 build/lcdc_rgba888_mxt_9x60_wvga/production/_ext/154914322/plib_lcdc.o
 .text.LCDC_AddToQueueEnable
                0x00000000       0x70 build/lcdc_rgba888_mxt_9x60_wvga/production/_ext/154914322/plib_lcdc.o
 .text.LCDC_SetBlenderGlobalAlphaEnable
                0x00000000       0x94 build/lcdc_rgba888_mxt_9x60_wvga/production/_ext/154914322/plib_lcdc.o
 .text.LCDC_SetBlenderGlobalAlpha
                0x00000000       0x60 build/lcdc_rgba888_mxt_9x60_wvga/production/_ext/154914322/plib_lcdc.o
 .text.LCDC_IRQ_Disable
                0x00000000       0xd0 build/lcdc_rgba888_mxt_9x60_wvga/production/_ext/154914322/plib_lcdc.o
 .text.LCDC_IRQ_Status
                0x00000000       0x10 build/lcdc_rgba888_mxt_9x60_wvga/production/_ext/154914322/plib_lcdc.o
 .text.LCDC_SetHEOImageMemSize
                0x00000000       0x30 build/lcdc_rgba888_mxt_9x60_wvga/production/_ext/154914322/plib_lcdc.o
 .text.LCDC_SetHEOVideoPriority
                0x00000000       0x2c build/lcdc_rgba888_mxt_9x60_wvga/production/_ext/154914322/plib_lcdc.o
 .text.LCDC_SetHEOScaler
                0x00000000       0x38 build/lcdc_rgba888_mxt_9x60_wvga/production/_ext/154914322/plib_lcdc.o
 .text.LCDC_SetHEOFilterPhaseOffset
                0x00000000       0x20 build/lcdc_rgba888_mxt_9x60_wvga/production/_ext/154914322/plib_lcdc.o
 .text          0x00000000        0x0 build/lcdc_rgba888_mxt_9x60_wvga/production/_ext/4998521/plib_mmu.o
 .data          0x00000000        0x0 build/lcdc_rgba888_mxt_9x60_wvga/production/_ext/4998521/plib_mmu.o
 .bss           0x00000000        0x0 build/lcdc_rgba888_mxt_9x60_wvga/production/_ext/4998521/plib_mmu.o
 .text.icache_Disable
                0x00000000       0x20 build/lcdc_rgba888_mxt_9x60_wvga/production/_ext/4998521/plib_mmu.o
 .text.dcache_CleanAll
                0x00000000       0x38 build/lcdc_rgba888_mxt_9x60_wvga/production/_ext/4998521/plib_mmu.o
 .text.dcache_CleanInvalidateAll
                0x00000000       0x38 build/lcdc_rgba888_mxt_9x60_wvga/production/_ext/4998521/plib_mmu.o
 .text.dcache_InvalidateByAddr
                0x00000000       0x2c build/lcdc_rgba888_mxt_9x60_wvga/production/_ext/4998521/plib_mmu.o
 .text.dcache_CleanByAddr
                0x00000000       0x2c build/lcdc_rgba888_mxt_9x60_wvga/production/_ext/4998521/plib_mmu.o
 .text.dcache_CleanInvalidateByAddr
                0x00000000       0x2c build/lcdc_rgba888_mxt_9x60_wvga/production/_ext/4998521/plib_mmu.o
 .text.dcache_Disable
                0x00000000       0x24 build/lcdc_rgba888_mxt_9x60_wvga/production/_ext/4998521/plib_mmu.o
 .text          0x00000000        0x0 build/lcdc_rgba888_mxt_9x60_wvga/production/_ext/5001274/plib_pio.o
 .data          0x00000000        0x0 build/lcdc_rgba888_mxt_9x60_wvga/production/_ext/5001274/plib_pio.o
 .bss           0x00000000        0x0 build/lcdc_rgba888_mxt_9x60_wvga/production/_ext/5001274/plib_pio.o
 .text.PIO_PortRead
                0x00000000        0x8 build/lcdc_rgba888_mxt_9x60_wvga/production/_ext/5001274/plib_pio.o
 .text.PIO_PortWrite
                0x00000000       0x18 build/lcdc_rgba888_mxt_9x60_wvga/production/_ext/5001274/plib_pio.o
 .text.PIO_PortLatchRead
                0x00000000        0x8 build/lcdc_rgba888_mxt_9x60_wvga/production/_ext/5001274/plib_pio.o
 .text.PIO_PortSet
                0x00000000        0x8 build/lcdc_rgba888_mxt_9x60_wvga/production/_ext/5001274/plib_pio.o
 .text.PIO_PortClear
                0x00000000        0x8 build/lcdc_rgba888_mxt_9x60_wvga/production/_ext/5001274/plib_pio.o
 .text.PIO_PortToggle
                0x00000000       0x10 build/lcdc_rgba888_mxt_9x60_wvga/production/_ext/5001274/plib_pio.o
 .text.PIO_PortInputEnable
                0x00000000        0x8 build/lcdc_rgba888_mxt_9x60_wvga/production/_ext/5001274/plib_pio.o
 .text.PIO_PortOutputEnable
                0x00000000        0x8 build/lcdc_rgba888_mxt_9x60_wvga/production/_ext/5001274/plib_pio.o
 .text          0x00000000        0x0 build/lcdc_rgba888_mxt_9x60_wvga/production/_ext/1247087435/plib_tc0.o
 .data          0x00000000        0x0 build/lcdc_rgba888_mxt_9x60_wvga/production/_ext/1247087435/plib_tc0.o
 .bss           0x00000000        0x0 build/lcdc_rgba888_mxt_9x60_wvga/production/_ext/1247087435/plib_tc0.o
 .text.TC0_CH0_TimerPeriodGet
                0x00000000       0x10 build/lcdc_rgba888_mxt_9x60_wvga/production/_ext/1247087435/plib_tc0.o
 .text.TC0_CH2_TimerFrequencyGet
                0x00000000        0xc build/lcdc_rgba888_mxt_9x60_wvga/production/_ext/1247087435/plib_tc0.o
 .text.TC0_CH2_TimerPeriodSet
                0x00000000       0x10 build/lcdc_rgba888_mxt_9x60_wvga/production/_ext/1247087435/plib_tc0.o
 .text.TC0_CH2_TimerPeriodGet
                0x00000000       0x10 build/lcdc_rgba888_mxt_9x60_wvga/production/_ext/1247087435/plib_tc0.o
 .text.TC0_CH2_TimerCounterGet
                0x00000000       0x10 build/lcdc_rgba888_mxt_9x60_wvga/production/_ext/1247087435/plib_tc0.o
 .text          0x00000000        0x0 build/lcdc_rgba888_mxt_9x60_wvga/production/_ext/286729486/xc32_monitor.o
 .data          0x00000000        0x0 build/lcdc_rgba888_mxt_9x60_wvga/production/_ext/286729486/xc32_monitor.o
 .bss           0x00000000        0x0 build/lcdc_rgba888_mxt_9x60_wvga/production/_ext/286729486/xc32_monitor.o
 .text.read     0x00000000        0x8 build/lcdc_rgba888_mxt_9x60_wvga/production/_ext/286729486/xc32_monitor.o
 .text          0x00000000        0x0 build/lcdc_rgba888_mxt_9x60_wvga/production/_ext/1408246553/sys_cache.o
 .data          0x00000000        0x0 build/lcdc_rgba888_mxt_9x60_wvga/production/_ext/1408246553/sys_cache.o
 .bss           0x00000000        0x0 build/lcdc_rgba888_mxt_9x60_wvga/production/_ext/1408246553/sys_cache.o
 .text.SYS_CACHE_EnableCaches
                0x00000000       0x10 build/lcdc_rgba888_mxt_9x60_wvga/production/_ext/1408246553/sys_cache.o
 .text.SYS_CACHE_DisableCaches
                0x00000000       0x10 build/lcdc_rgba888_mxt_9x60_wvga/production/_ext/1408246553/sys_cache.o
 .text.SYS_CACHE_EnableICache
                0x00000000        0xc build/lcdc_rgba888_mxt_9x60_wvga/production/_ext/1408246553/sys_cache.o
 .text.SYS_CACHE_DisableICache
                0x00000000        0xc build/lcdc_rgba888_mxt_9x60_wvga/production/_ext/1408246553/sys_cache.o
 .text.SYS_CACHE_InvalidateICache
                0x00000000        0xc build/lcdc_rgba888_mxt_9x60_wvga/production/_ext/1408246553/sys_cache.o
 .text.SYS_CACHE_EnableDCache
                0x00000000        0xc build/lcdc_rgba888_mxt_9x60_wvga/production/_ext/1408246553/sys_cache.o
 .text.SYS_CACHE_DisableDCache
                0x00000000        0xc build/lcdc_rgba888_mxt_9x60_wvga/production/_ext/1408246553/sys_cache.o
 .text.SYS_CACHE_InvalidateDCache
                0x00000000        0xc build/lcdc_rgba888_mxt_9x60_wvga/production/_ext/1408246553/sys_cache.o
 .text.SYS_CACHE_CleanDCache
                0x00000000        0xc build/lcdc_rgba888_mxt_9x60_wvga/production/_ext/1408246553/sys_cache.o
 .text.SYS_CACHE_CleanInvalidateDCache
                0x00000000        0xc build/lcdc_rgba888_mxt_9x60_wvga/production/_ext/1408246553/sys_cache.o
 .text.SYS_CACHE_InvalidateDCache_by_Addr
                0x00000000        0xc build/lcdc_rgba888_mxt_9x60_wvga/production/_ext/1408246553/sys_cache.o
 .text.SYS_CACHE_CleanDCache_by_Addr
                0x00000000        0xc build/lcdc_rgba888_mxt_9x60_wvga/production/_ext/1408246553/sys_cache.o
 .text.SYS_CACHE_CleanInvalidateDCache_by_Addr
                0x00000000        0xc build/lcdc_rgba888_mxt_9x60_wvga/production/_ext/1408246553/sys_cache.o
 .debug_info    0x00000000      0x783 build/lcdc_rgba888_mxt_9x60_wvga/production/_ext/1408246553/sys_cache.o
 .debug_abbrev  0x00000000       0xae build/lcdc_rgba888_mxt_9x60_wvga/production/_ext/1408246553/sys_cache.o
 .debug_loc     0x00000000      0x27e build/lcdc_rgba888_mxt_9x60_wvga/production/_ext/1408246553/sys_cache.o
 .debug_aranges
                0x00000000       0x80 build/lcdc_rgba888_mxt_9x60_wvga/production/_ext/1408246553/sys_cache.o
 .debug_ranges  0x00000000       0x70 build/lcdc_rgba888_mxt_9x60_wvga/production/_ext/1408246553/sys_cache.o
 .debug_line    0x00000000      0x244 build/lcdc_rgba888_mxt_9x60_wvga/production/_ext/1408246553/sys_cache.o
 .debug_str     0x00000000       0xd6 build/lcdc_rgba888_mxt_9x60_wvga/production/_ext/1408246553/sys_cache.o
 .comment       0x00000000       0x2c build/lcdc_rgba888_mxt_9x60_wvga/production/_ext/1408246553/sys_cache.o
 .debug_frame   0x00000000      0x148 build/lcdc_rgba888_mxt_9x60_wvga/production/_ext/1408246553/sys_cache.o
 .ARM.attributes
                0x00000000       0x2c build/lcdc_rgba888_mxt_9x60_wvga/production/_ext/1408246553/sys_cache.o
 .text          0x00000000        0x0 build/lcdc_rgba888_mxt_9x60_wvga/production/_ext/1414187873/sys_input.o
 .data          0x00000000        0x0 build/lcdc_rgba888_mxt_9x60_wvga/production/_ext/1414187873/sys_input.o
 .bss           0x00000000        0x0 build/lcdc_rgba888_mxt_9x60_wvga/production/_ext/1414187873/sys_input.o
 .text.SYS_INP_RemoveListener
                0x00000000       0x40 build/lcdc_rgba888_mxt_9x60_wvga/production/_ext/1414187873/sys_input.o
 .text.SYS_INP_InjectKeyDown
                0x00000000       0x40 build/lcdc_rgba888_mxt_9x60_wvga/production/_ext/1414187873/sys_input.o
 .text.SYS_INP_InjectKeyUp
                0x00000000       0x40 build/lcdc_rgba888_mxt_9x60_wvga/production/_ext/1414187873/sys_input.o
 .text.SYS_INP_InjectMouseButtonDown
                0x00000000       0x40 build/lcdc_rgba888_mxt_9x60_wvga/production/_ext/1414187873/sys_input.o
 .text.SYS_INP_InjectMouseButtonUp
                0x00000000       0x40 build/lcdc_rgba888_mxt_9x60_wvga/production/_ext/1414187873/sys_input.o
 .text.SYS_INP_InjectMouseMove
                0x00000000       0x4c build/lcdc_rgba888_mxt_9x60_wvga/production/_ext/1414187873/sys_input.o
 .text.SYS_INP_InjectFlickGesture
                0x00000000       0x58 build/lcdc_rgba888_mxt_9x60_wvga/production/_ext/1414187873/sys_input.o
 .text.SYS_INP_InjectPinchGesture
                0x00000000       0x58 build/lcdc_rgba888_mxt_9x60_wvga/production/_ext/1414187873/sys_input.o
 .text.SYS_INP_InjectStretchGesture
                0x00000000       0x58 build/lcdc_rgba888_mxt_9x60_wvga/production/_ext/1414187873/sys_input.o
 .text.SYS_INP_InjectRotateGesture
                0x00000000       0x60 build/lcdc_rgba888_mxt_9x60_wvga/production/_ext/1414187873/sys_input.o
 .text.SYS_INP_InjectGenericGesture
                0x00000000       0x58 build/lcdc_rgba888_mxt_9x60_wvga/production/_ext/1414187873/sys_input.o
 .text          0x00000000        0x0 build/lcdc_rgba888_mxt_9x60_wvga/production/_ext/1414187873/sys_input_listener.o
 .data          0x00000000        0x0 build/lcdc_rgba888_mxt_9x60_wvga/production/_ext/1414187873/sys_input_listener.o
 .bss           0x00000000        0x0 build/lcdc_rgba888_mxt_9x60_wvga/production/_ext/1414187873/sys_input_listener.o
 .text.defaultKeyDownHandler
                0x00000000        0x4 build/lcdc_rgba888_mxt_9x60_wvga/production/_ext/1414187873/sys_input_listener.o
 .text.defaultKeyUpHandler
                0x00000000        0x4 build/lcdc_rgba888_mxt_9x60_wvga/production/_ext/1414187873/sys_input_listener.o
 .text.defaultMouseMoveHandler
                0x00000000        0x4 build/lcdc_rgba888_mxt_9x60_wvga/production/_ext/1414187873/sys_input_listener.o
 .text.defaultMouseButtonHandler
                0x00000000        0x4 build/lcdc_rgba888_mxt_9x60_wvga/production/_ext/1414187873/sys_input_listener.o
 .text.defaultTouchStateHandler
                0x00000000        0x4 build/lcdc_rgba888_mxt_9x60_wvga/production/_ext/1414187873/sys_input_listener.o
 .text.defaultTouchMoveHandler
                0x00000000        0x4 build/lcdc_rgba888_mxt_9x60_wvga/production/_ext/1414187873/sys_input_listener.o
 .text.defaultFlickGestureHandler
                0x00000000        0x4 build/lcdc_rgba888_mxt_9x60_wvga/production/_ext/1414187873/sys_input_listener.o
 .text.defaultPinchEventHandler
                0x00000000        0x4 build/lcdc_rgba888_mxt_9x60_wvga/production/_ext/1414187873/sys_input_listener.o
 .text.defaultStretchEventHandler
                0x00000000        0x4 build/lcdc_rgba888_mxt_9x60_wvga/production/_ext/1414187873/sys_input_listener.o
 .text.defaultRotateEventHandler
                0x00000000        0x4 build/lcdc_rgba888_mxt_9x60_wvga/production/_ext/1414187873/sys_input_listener.o
 .text.SYS_INP_ListenerInit
                0x00000000       0x8c build/lcdc_rgba888_mxt_9x60_wvga/production/_ext/1414187873/sys_input_listener.o
 .debug_info    0x00000000     0x17f5 build/lcdc_rgba888_mxt_9x60_wvga/production/_ext/1414187873/sys_input_listener.o
 .debug_abbrev  0x00000000      0x105 build/lcdc_rgba888_mxt_9x60_wvga/production/_ext/1414187873/sys_input_listener.o
 .debug_aranges
                0x00000000       0x70 build/lcdc_rgba888_mxt_9x60_wvga/production/_ext/1414187873/sys_input_listener.o
 .debug_ranges  0x00000000       0x60 build/lcdc_rgba888_mxt_9x60_wvga/production/_ext/1414187873/sys_input_listener.o
 .debug_line    0x00000000      0x295 build/lcdc_rgba888_mxt_9x60_wvga/production/_ext/1414187873/sys_input_listener.o
 .debug_str     0x00000000        0x0 build/lcdc_rgba888_mxt_9x60_wvga/production/_ext/1414187873/sys_input_listener.o
 .comment       0x00000000       0x2c build/lcdc_rgba888_mxt_9x60_wvga/production/_ext/1414187873/sys_input_listener.o
 .debug_frame   0x00000000       0xc0 build/lcdc_rgba888_mxt_9x60_wvga/production/_ext/1414187873/sys_input_listener.o
 .ARM.attributes
                0x00000000       0x2c build/lcdc_rgba888_mxt_9x60_wvga/production/_ext/1414187873/sys_input_listener.o
 .text          0x00000000        0x0 build/lcdc_rgba888_mxt_9x60_wvga/production/_ext/1826491803/sys_int.o
 .data          0x00000000        0x0 build/lcdc_rgba888_mxt_9x60_wvga/production/_ext/1826491803/sys_int.o
 .bss           0x00000000        0x0 build/lcdc_rgba888_mxt_9x60_wvga/production/_ext/1826491803/sys_int.o
 .text.SYS_INT_IsEnabled
                0x00000000       0x14 build/lcdc_rgba888_mxt_9x60_wvga/production/_ext/1826491803/sys_int.o
 .text.SYS_INT_Enable
                0x00000000        0xc build/lcdc_rgba888_mxt_9x60_wvga/production/_ext/1826491803/sys_int.o
 .text.SYS_INT_SourceStatusGet
                0x00000000       0x78 build/lcdc_rgba888_mxt_9x60_wvga/production/_ext/1826491803/sys_int.o
 .text.SYS_INT_SourceStatusSet
                0x00000000       0x28 build/lcdc_rgba888_mxt_9x60_wvga/production/_ext/1826491803/sys_int.o
 .text.SYS_INT_SourceStatusClear
                0x00000000       0x28 build/lcdc_rgba888_mxt_9x60_wvga/production/_ext/1826491803/sys_int.o
 .text          0x00000000        0x0 build/lcdc_rgba888_mxt_9x60_wvga/production/_ext/1812361045/sys_time.o
 .data          0x00000000        0x0 build/lcdc_rgba888_mxt_9x60_wvga/production/_ext/1812361045/sys_time.o
 .bss           0x00000000        0x0 build/lcdc_rgba888_mxt_9x60_wvga/production/_ext/1812361045/sys_time.o
 .text.SYS_TIME_Deinitialize
                0x00000000       0x4c build/lcdc_rgba888_mxt_9x60_wvga/production/_ext/1812361045/sys_time.o
 .text.SYS_TIME_Status
                0x00000000       0x18 build/lcdc_rgba888_mxt_9x60_wvga/production/_ext/1812361045/sys_time.o
 .text.SYS_TIME_FrequencyGet
                0x00000000       0x10 build/lcdc_rgba888_mxt_9x60_wvga/production/_ext/1812361045/sys_time.o
 .text.SYS_TIME_Counter64Get
                0x00000000       0x48 build/lcdc_rgba888_mxt_9x60_wvga/production/_ext/1812361045/sys_time.o
 .text.SYS_TIME_CounterGet
                0x00000000        0xc build/lcdc_rgba888_mxt_9x60_wvga/production/_ext/1812361045/sys_time.o
 .text.SYS_TIME_CounterSet
                0x00000000       0x24 build/lcdc_rgba888_mxt_9x60_wvga/production/_ext/1812361045/sys_time.o
 .text.SYS_TIME_CountToUS
                0x00000000       0x64 build/lcdc_rgba888_mxt_9x60_wvga/production/_ext/1812361045/sys_time.o
 .text.SYS_TIME_CountToMS
                0x00000000       0x5c build/lcdc_rgba888_mxt_9x60_wvga/production/_ext/1812361045/sys_time.o
 .text.SYS_TIME_USToCount
                0x00000000       0x30 build/lcdc_rgba888_mxt_9x60_wvga/production/_ext/1812361045/sys_time.o
 .text.SYS_TIME_MSToCount
                0x00000000       0x2c build/lcdc_rgba888_mxt_9x60_wvga/production/_ext/1812361045/sys_time.o
 .text.SYS_TIME_TimerCreate
                0x00000000       0x2c build/lcdc_rgba888_mxt_9x60_wvga/production/_ext/1812361045/sys_time.o
 .text.SYS_TIME_TimerReload
                0x00000000       0xec build/lcdc_rgba888_mxt_9x60_wvga/production/_ext/1812361045/sys_time.o
 .text.SYS_TIME_TimerCounterGet
                0x00000000       0xe8 build/lcdc_rgba888_mxt_9x60_wvga/production/_ext/1812361045/sys_time.o
 .text.SYS_TIME_DelayUS
                0x00000000       0x88 build/lcdc_rgba888_mxt_9x60_wvga/production/_ext/1812361045/sys_time.o
 .text.SYS_TIME_CallbackRegisterUS
                0x00000000       0xa0 build/lcdc_rgba888_mxt_9x60_wvga/production/_ext/1812361045/sys_time.o
 .text          0x00000000        0x0 build/lcdc_rgba888_mxt_9x60_wvga/production/_ext/2052985144/initialization.o
 .data          0x00000000        0x0 build/lcdc_rgba888_mxt_9x60_wvga/production/_ext/2052985144/initialization.o
 .bss           0x00000000        0x0 build/lcdc_rgba888_mxt_9x60_wvga/production/_ext/2052985144/initialization.o
 .data          0x00000000        0x0 build/lcdc_rgba888_mxt_9x60_wvga/production/_ext/2052985144/cstartup.o
 .bss           0x00000000        0x0 build/lcdc_rgba888_mxt_9x60_wvga/production/_ext/2052985144/cstartup.o
 .text          0x00000000        0x0 build/lcdc_rgba888_mxt_9x60_wvga/production/_ext/2052985144/fault_handlers.o
 .data          0x00000000        0x0 build/lcdc_rgba888_mxt_9x60_wvga/production/_ext/2052985144/fault_handlers.o
 .bss           0x00000000        0x0 build/lcdc_rgba888_mxt_9x60_wvga/production/_ext/2052985144/fault_handlers.o
 .text          0x00000000        0x0 build/lcdc_rgba888_mxt_9x60_wvga/production/_ext/2052985144/interrupts.o
 .data          0x00000000        0x0 build/lcdc_rgba888_mxt_9x60_wvga/production/_ext/2052985144/interrupts.o
 .bss           0x00000000        0x0 build/lcdc_rgba888_mxt_9x60_wvga/production/_ext/2052985144/interrupts.o
 .text.DefaultInterruptHandler
                0x00000000        0x4 build/lcdc_rgba888_mxt_9x60_wvga/production/_ext/2052985144/interrupts.o
 .text.ECC_SharedHandler
                0x00000000        0x4 build/lcdc_rgba888_mxt_9x60_wvga/production/_ext/2052985144/interrupts.o
 .text.MC_SharedHandler
                0x00000000        0x4 build/lcdc_rgba888_mxt_9x60_wvga/production/_ext/2052985144/interrupts.o
 .text          0x00000000        0x0 build/lcdc_rgba888_mxt_9x60_wvga/production/_ext/2052985144/tasks.o
 .data          0x00000000        0x0 build/lcdc_rgba888_mxt_9x60_wvga/production/_ext/2052985144/tasks.o
 .bss           0x00000000        0x0 build/lcdc_rgba888_mxt_9x60_wvga/production/_ext/2052985144/tasks.o
 .text          0x00000000        0x0 build/lcdc_rgba888_mxt_9x60_wvga/production/_ext/1360937237/app.o
 .data          0x00000000        0x0 build/lcdc_rgba888_mxt_9x60_wvga/production/_ext/1360937237/app.o
 .bss           0x00000000        0x0 build/lcdc_rgba888_mxt_9x60_wvga/production/_ext/1360937237/app.o
 .text          0x00000000        0x0 build/lcdc_rgba888_mxt_9x60_wvga/production/_ext/1360937237/main.o
 .data          0x00000000        0x0 build/lcdc_rgba888_mxt_9x60_wvga/production/_ext/1360937237/main.o
 .bss           0x00000000        0x0 build/lcdc_rgba888_mxt_9x60_wvga/production/_ext/1360937237/main.o
 .text          0x00000000        0x0 build/lcdc_rgba888_mxt_9x60_wvga/production/_ext/1360937237/app_screen0.o
 .data          0x00000000        0x0 build/lcdc_rgba888_mxt_9x60_wvga/production/_ext/1360937237/app_screen0.o
 .bss           0x00000000        0x0 build/lcdc_rgba888_mxt_9x60_wvga/production/_ext/1360937237/app_screen0.o
 .text          0x00000000        0x0 build/lcdc_rgba888_mxt_9x60_wvga/production/_ext/5003525/plib_rtc.o
 .data          0x00000000        0x0 build/lcdc_rgba888_mxt_9x60_wvga/production/_ext/5003525/plib_rtc.o
 .bss           0x00000000        0x0 build/lcdc_rgba888_mxt_9x60_wvga/production/_ext/5003525/plib_rtc.o
 .text.RTC_AlarmSet
                0x00000000      0x134 build/lcdc_rgba888_mxt_9x60_wvga/production/_ext/5003525/plib_rtc.o
 .text.RTC_InterruptEnable
                0x00000000        0xc build/lcdc_rgba888_mxt_9x60_wvga/production/_ext/5003525/plib_rtc.o
 .text.RTC_InterruptDisable
                0x00000000        0xc build/lcdc_rgba888_mxt_9x60_wvga/production/_ext/5003525/plib_rtc.o
 .text.RTC_CallbackRegister
                0x00000000       0x14 build/lcdc_rgba888_mxt_9x60_wvga/production/_ext/5003525/plib_rtc.o
 .text          0x00000000        0x0 build/lcdc_rgba888_mxt_9x60_wvga/production/_ext/1360937237/app_screen1.o
 .data          0x00000000        0x0 build/lcdc_rgba888_mxt_9x60_wvga/production/_ext/1360937237/app_screen1.o
 .bss           0x00000000        0x0 build/lcdc_rgba888_mxt_9x60_wvga/production/_ext/1360937237/app_screen1.o
 .text          0x00000000        0x0 build/lcdc_rgba888_mxt_9x60_wvga/production/_ext/1121151461/gfx_canvas_api.o
 .data          0x00000000        0x0 build/lcdc_rgba888_mxt_9x60_wvga/production/_ext/1121151461/gfx_canvas_api.o
 .bss           0x00000000        0x0 build/lcdc_rgba888_mxt_9x60_wvga/production/_ext/1121151461/gfx_canvas_api.o
 .text.gfxcDestroy
                0x00000000       0x3c build/lcdc_rgba888_mxt_9x60_wvga/production/_ext/1121151461/gfx_canvas_api.o
 .text.gfxcGetlayer
                0x00000000       0x24 build/lcdc_rgba888_mxt_9x60_wvga/production/_ext/1121151461/gfx_canvas_api.o
 .text.gfxcClearLayer
                0x00000000       0x50 build/lcdc_rgba888_mxt_9x60_wvga/production/_ext/1121151461/gfx_canvas_api.o
 .text.gfxcSetWindowAlpha
                0x00000000       0x28 build/lcdc_rgba888_mxt_9x60_wvga/production/_ext/1121151461/gfx_canvas_api.o
 .text.gfxcGetWindowPosition
                0x00000000       0x74 build/lcdc_rgba888_mxt_9x60_wvga/production/_ext/1121151461/gfx_canvas_api.o
 .text.gfxcGetWindowSize
                0x00000000       0x74 build/lcdc_rgba888_mxt_9x60_wvga/production/_ext/1121151461/gfx_canvas_api.o
 .text.gfxcHideCanvas
                0x00000000       0x28 build/lcdc_rgba888_mxt_9x60_wvga/production/_ext/1121151461/gfx_canvas_api.o
 .text.gfxcCopyBuffer
                0x00000000        0xc build/lcdc_rgba888_mxt_9x60_wvga/production/_ext/1121151461/gfx_canvas_api.o
 .text.gfxcSetBaseCanvasID
                0x00000000        0xc build/lcdc_rgba888_mxt_9x60_wvga/production/_ext/1121151461/gfx_canvas_api.o
 .text.gfxcSetEffectsInterval
                0x00000000        0xc build/lcdc_rgba888_mxt_9x60_wvga/production/_ext/1121151461/gfx_canvas_api.o
 .text.gfxcSetEffectsCallback
                0x00000000       0x3c build/lcdc_rgba888_mxt_9x60_wvga/production/_ext/1121151461/gfx_canvas_api.o
 .text.gfxcStartEffectFade
                0x00000000       0xc0 build/lcdc_rgba888_mxt_9x60_wvga/production/_ext/1121151461/gfx_canvas_api.o
 .text.gfxcStartEffectMove
                0x00000000       0xdc build/lcdc_rgba888_mxt_9x60_wvga/production/_ext/1121151461/gfx_canvas_api.o
 .text.gfxcStopEffect
                0x00000000       0x64 build/lcdc_rgba888_mxt_9x60_wvga/production/_ext/1121151461/gfx_canvas_api.o
 .text.gfxcGetStatus
                0x00000000        0xc build/lcdc_rgba888_mxt_9x60_wvga/production/_ext/1121151461/gfx_canvas_api.o
 .text          0x00000000        0x0 build/lcdc_rgba888_mxt_9x60_wvga/production/_ext/1121151461/gfx_canvas.o
 .data          0x00000000        0x0 build/lcdc_rgba888_mxt_9x60_wvga/production/_ext/1121151461/gfx_canvas.o
 .bss           0x00000000        0x0 build/lcdc_rgba888_mxt_9x60_wvga/production/_ext/1121151461/gfx_canvas.o
 .text.GFXC_FrameStart
                0x00000000        0x8 build/lcdc_rgba888_mxt_9x60_wvga/production/_ext/1121151461/gfx_canvas.o
 .text.GFXC_FrameEnd
                0x00000000        0x8 build/lcdc_rgba888_mxt_9x60_wvga/production/_ext/1121151461/gfx_canvas.o
 .text.GFXC_GetVSYNCCount
                0x00000000        0x8 build/lcdc_rgba888_mxt_9x60_wvga/production/_ext/1121151461/gfx_canvas.o
 .text.GFXC_GetPixelBuffer
                0x00000000       0x38 build/lcdc_rgba888_mxt_9x60_wvga/production/_ext/1121151461/gfx_canvas.o
 .text._gfxcCopyBuffer
                0x00000000      0x138 build/lcdc_rgba888_mxt_9x60_wvga/production/_ext/1121151461/gfx_canvas.o
 .text._gfxcSetBaseCanvasID
                0x00000000       0x24 build/lcdc_rgba888_mxt_9x60_wvga/production/_ext/1121151461/gfx_canvas.o
 .text.GFXC_GetLayerState
                0x00000000       0x64 build/lcdc_rgba888_mxt_9x60_wvga/production/_ext/1121151461/gfx_canvas.o
 .text._gfxcSetEffectsIntervalMS
                0x00000000       0x48 build/lcdc_rgba888_mxt_9x60_wvga/production/_ext/1121151461/gfx_canvas.o
 .text._gfxcStartEffects
                0x00000000       0x1c build/lcdc_rgba888_mxt_9x60_wvga/production/_ext/1121151461/gfx_canvas.o
 .text._gfxcStopEffects
                0x00000000       0x1c build/lcdc_rgba888_mxt_9x60_wvga/production/_ext/1121151461/gfx_canvas.o
 .text._gfxcGetStatus
                0x00000000       0x28 build/lcdc_rgba888_mxt_9x60_wvga/production/_ext/1121151461/gfx_canvas.o
 .bss.gfxcGPU   0x00000000        0x4 build/lcdc_rgba888_mxt_9x60_wvga/production/_ext/1121151461/gfx_canvas.o
 .data.numLayers
                0x00000000        0x4 build/lcdc_rgba888_mxt_9x60_wvga/production/_ext/1121151461/gfx_canvas.o
 .text          0x00000000        0x0 c:/program files/microchip/xc32/v4.20/bin/bin/../../lib/gcc/pic32c/8.3.1/../../../../pic32c/lib/arm/v5te/nofp\libpic32c.a(data_init_wrapper.o)
 .data          0x00000000        0x0 c:/program files/microchip/xc32/v4.20/bin/bin/../../lib/gcc/pic32c/8.3.1/../../../../pic32c/lib/arm/v5te/nofp\libpic32c.a(data_init_wrapper.o)
 .bss           0x00000000        0x0 c:/program files/microchip/xc32/v4.20/bin/bin/../../lib/gcc/pic32c/8.3.1/../../../../pic32c/lib/arm/v5te/nofp\libpic32c.a(data_init_wrapper.o)
 .xc_stack_usage
                0x00000000       0x2a c:/program files/microchip/xc32/v4.20/bin/bin/../../lib/gcc/pic32c/8.3.1/../../../../pic32c/lib/arm/v5te/nofp\libpic32c.a(data_init_wrapper.o)
 .xc_stack_usage.hdr
                0x00000000        0xe c:/program files/microchip/xc32/v4.20/bin/bin/../../lib/gcc/pic32c/8.3.1/../../../../pic32c/lib/arm/v5te/nofp\libpic32c.a(data_init_wrapper.o)
 .text          0x00000000        0x0 c:/program files/microchip/xc32/v4.20/bin/bin/../../lib/gcc/pic32c/8.3.1/../../../../pic32c/lib/arm/v5te/nofp\libpic32c.a(data_init_0_1.o)
 .data          0x00000000        0x0 c:/program files/microchip/xc32/v4.20/bin/bin/../../lib/gcc/pic32c/8.3.1/../../../../pic32c/lib/arm/v5te/nofp\libpic32c.a(data_init_0_1.o)
 .xc_stack_usage
                0x00000000       0x2f c:/program files/microchip/xc32/v4.20/bin/bin/../../lib/gcc/pic32c/8.3.1/../../../../pic32c/lib/arm/v5te/nofp\libpic32c.a(data_init_0_1.o)
 .xc_stack_usage.hdr
                0x00000000        0xe c:/program files/microchip/xc32/v4.20/bin/bin/../../lib/gcc/pic32c/8.3.1/../../../../pic32c/lib/arm/v5te/nofp\libpic32c.a(data_init_0_1.o)
 .data          0x00000000        0x0 c:/program files/microchip/xc32/v4.20/bin/bin/../../lib/gcc/pic32c/8.3.1/arm/v5te/nofp\libgcc.a(_udivsi3.o)
 .bss           0x00000000        0x0 c:/program files/microchip/xc32/v4.20/bin/bin/../../lib/gcc/pic32c/8.3.1/arm/v5te/nofp\libgcc.a(_udivsi3.o)
 .xc_stack_usage.hdr
                0x00000000        0xe c:/program files/microchip/xc32/v4.20/bin/bin/../../lib/gcc/pic32c/8.3.1/arm/v5te/nofp\libgcc.a(_udivsi3.o)
 .xc_stack_usage
                0x00000000       0x35 c:/program files/microchip/xc32/v4.20/bin/bin/../../lib/gcc/pic32c/8.3.1/arm/v5te/nofp\libgcc.a(_udivsi3.o)
 .data          0x00000000        0x0 c:/program files/microchip/xc32/v4.20/bin/bin/../../lib/gcc/pic32c/8.3.1/arm/v5te/nofp\libgcc.a(_divsi3.o)
 .bss           0x00000000        0x0 c:/program files/microchip/xc32/v4.20/bin/bin/../../lib/gcc/pic32c/8.3.1/arm/v5te/nofp\libgcc.a(_divsi3.o)
 .xc_stack_usage.hdr
                0x00000000        0xe c:/program files/microchip/xc32/v4.20/bin/bin/../../lib/gcc/pic32c/8.3.1/arm/v5te/nofp\libgcc.a(_divsi3.o)
 .xc_stack_usage
                0x00000000       0x33 c:/program files/microchip/xc32/v4.20/bin/bin/../../lib/gcc/pic32c/8.3.1/arm/v5te/nofp\libgcc.a(_divsi3.o)
 .data          0x00000000        0x0 c:/program files/microchip/xc32/v4.20/bin/bin/../../lib/gcc/pic32c/8.3.1/arm/v5te/nofp\libgcc.a(_dvmd_tls.o)
 .bss           0x00000000        0x0 c:/program files/microchip/xc32/v4.20/bin/bin/../../lib/gcc/pic32c/8.3.1/arm/v5te/nofp\libgcc.a(_dvmd_tls.o)
 .xc_stack_usage.hdr
                0x00000000        0xe c:/program files/microchip/xc32/v4.20/bin/bin/../../lib/gcc/pic32c/8.3.1/arm/v5te/nofp\libgcc.a(_dvmd_tls.o)
 .xc_stack_usage
                0x00000000       0x36 c:/program files/microchip/xc32/v4.20/bin/bin/../../lib/gcc/pic32c/8.3.1/arm/v5te/nofp\libgcc.a(_dvmd_tls.o)
 .data          0x00000000        0x0 c:/program files/microchip/xc32/v4.20/bin/bin/../../lib/gcc/pic32c/8.3.1/arm/v5te/nofp\libgcc.a(_arm_addsubsf3.o)
 .bss           0x00000000        0x0 c:/program files/microchip/xc32/v4.20/bin/bin/../../lib/gcc/pic32c/8.3.1/arm/v5te/nofp\libgcc.a(_arm_addsubsf3.o)
 .xc_stack_usage.hdr
                0x00000000        0xe c:/program files/microchip/xc32/v4.20/bin/bin/../../lib/gcc/pic32c/8.3.1/arm/v5te/nofp\libgcc.a(_arm_addsubsf3.o)
 .xc_stack_usage
                0x00000000       0xaf c:/program files/microchip/xc32/v4.20/bin/bin/../../lib/gcc/pic32c/8.3.1/arm/v5te/nofp\libgcc.a(_arm_addsubsf3.o)
 .data          0x00000000        0x0 c:/program files/microchip/xc32/v4.20/bin/bin/../../lib/gcc/pic32c/8.3.1/arm/v5te/nofp\libgcc.a(_arm_muldivsf3.o)
 .bss           0x00000000        0x0 c:/program files/microchip/xc32/v4.20/bin/bin/../../lib/gcc/pic32c/8.3.1/arm/v5te/nofp\libgcc.a(_arm_muldivsf3.o)
 .xc_stack_usage.hdr
                0x00000000        0xe c:/program files/microchip/xc32/v4.20/bin/bin/../../lib/gcc/pic32c/8.3.1/arm/v5te/nofp\libgcc.a(_arm_muldivsf3.o)
 .xc_stack_usage
                0x00000000       0x2c c:/program files/microchip/xc32/v4.20/bin/bin/../../lib/gcc/pic32c/8.3.1/arm/v5te/nofp\libgcc.a(_arm_muldivsf3.o)
 .data          0x00000000        0x0 c:/program files/microchip/xc32/v4.20/bin/bin/../../lib/gcc/pic32c/8.3.1/arm/v5te/nofp\libgcc.a(_arm_cmpsf2.o)
 .bss           0x00000000        0x0 c:/program files/microchip/xc32/v4.20/bin/bin/../../lib/gcc/pic32c/8.3.1/arm/v5te/nofp\libgcc.a(_arm_cmpsf2.o)
 .xc_stack_usage.hdr
                0x00000000        0xe c:/program files/microchip/xc32/v4.20/bin/bin/../../lib/gcc/pic32c/8.3.1/arm/v5te/nofp\libgcc.a(_arm_cmpsf2.o)
 .xc_stack_usage
                0x00000000      0x107 c:/program files/microchip/xc32/v4.20/bin/bin/../../lib/gcc/pic32c/8.3.1/arm/v5te/nofp\libgcc.a(_arm_cmpsf2.o)
 .data          0x00000000        0x0 c:/program files/microchip/xc32/v4.20/bin/bin/../../lib/gcc/pic32c/8.3.1/arm/v5te/nofp\libgcc.a(_arm_fixsfsi.o)
 .bss           0x00000000        0x0 c:/program files/microchip/xc32/v4.20/bin/bin/../../lib/gcc/pic32c/8.3.1/arm/v5te/nofp\libgcc.a(_arm_fixsfsi.o)
 .xc_stack_usage.hdr
                0x00000000        0xe c:/program files/microchip/xc32/v4.20/bin/bin/../../lib/gcc/pic32c/8.3.1/arm/v5te/nofp\libgcc.a(_arm_fixsfsi.o)
 .xc_stack_usage
                0x00000000       0x17 c:/program files/microchip/xc32/v4.20/bin/bin/../../lib/gcc/pic32c/8.3.1/arm/v5te/nofp\libgcc.a(_arm_fixsfsi.o)
 .data          0x00000000        0x0 c:/program files/microchip/xc32/v4.20/bin/bin/../../lib/gcc/pic32c/8.3.1/arm/v5te/nofp\libgcc.a(_arm_fixunssfsi.o)
 .bss           0x00000000        0x0 c:/program files/microchip/xc32/v4.20/bin/bin/../../lib/gcc/pic32c/8.3.1/arm/v5te/nofp\libgcc.a(_arm_fixunssfsi.o)
 .xc_stack_usage.hdr
                0x00000000        0xe c:/program files/microchip/xc32/v4.20/bin/bin/../../lib/gcc/pic32c/8.3.1/arm/v5te/nofp\libgcc.a(_arm_fixunssfsi.o)
 .xc_stack_usage
                0x00000000       0x1a c:/program files/microchip/xc32/v4.20/bin/bin/../../lib/gcc/pic32c/8.3.1/arm/v5te/nofp\libgcc.a(_arm_fixunssfsi.o)
 .data          0x00000000        0x0 c:/program files/microchip/xc32/v4.20/bin/bin/../../lib/gcc/pic32c/8.3.1/arm/v5te/nofp\libgcc.a(_aeabi_uldivmod.o)
 .bss           0x00000000        0x0 c:/program files/microchip/xc32/v4.20/bin/bin/../../lib/gcc/pic32c/8.3.1/arm/v5te/nofp\libgcc.a(_aeabi_uldivmod.o)
 .xc_stack_usage.hdr
                0x00000000        0xe c:/program files/microchip/xc32/v4.20/bin/bin/../../lib/gcc/pic32c/8.3.1/arm/v5te/nofp\libgcc.a(_aeabi_uldivmod.o)
 .xc_stack_usage
                0x00000000       0x1e c:/program files/microchip/xc32/v4.20/bin/bin/../../lib/gcc/pic32c/8.3.1/arm/v5te/nofp\libgcc.a(_aeabi_uldivmod.o)
 .data          0x00000000        0x0 c:/program files/microchip/xc32/v4.20/bin/bin/../../lib/gcc/pic32c/8.3.1/arm/v5te/nofp\libgcc.a(_udivmoddi4.o)
 .bss           0x00000000        0x0 c:/program files/microchip/xc32/v4.20/bin/bin/../../lib/gcc/pic32c/8.3.1/arm/v5te/nofp\libgcc.a(_udivmoddi4.o)
 .xc_stack_usage
                0x00000000       0x1a c:/program files/microchip/xc32/v4.20/bin/bin/../../lib/gcc/pic32c/8.3.1/arm/v5te/nofp\libgcc.a(_udivmoddi4.o)
 .ARM.extab     0x00000000        0x0 c:/program files/microchip/xc32/v4.20/bin/bin/../../lib/gcc/pic32c/8.3.1/arm/v5te/nofp\libgcc.a(_udivmoddi4.o)
 .xc_stack_usage.hdr
                0x00000000        0xe c:/program files/microchip/xc32/v4.20/bin/bin/../../lib/gcc/pic32c/8.3.1/arm/v5te/nofp\libgcc.a(_udivmoddi4.o)
 .text          0x00000000        0x0 c:/program files/microchip/xc32/v4.20/bin/bin/../../lib/gcc/pic32c/8.3.1/../../../../pic32c/lib/arm/v5te/nofp\libm-musl.a(atan.o)
 .data          0x00000000        0x0 c:/program files/microchip/xc32/v4.20/bin/bin/../../lib/gcc/pic32c/8.3.1/../../../../pic32c/lib/arm/v5te/nofp\libm-musl.a(atan.o)
 .bss           0x00000000        0x0 c:/program files/microchip/xc32/v4.20/bin/bin/../../lib/gcc/pic32c/8.3.1/../../../../pic32c/lib/arm/v5te/nofp\libm-musl.a(atan.o)
 .xc_stack_usage
                0x00000000       0x12 c:/program files/microchip/xc32/v4.20/bin/bin/../../lib/gcc/pic32c/8.3.1/../../../../pic32c/lib/arm/v5te/nofp\libm-musl.a(atan.o)
 .text.atan     0x00000000      0x438 c:/program files/microchip/xc32/v4.20/bin/bin/../../lib/gcc/pic32c/8.3.1/../../../../pic32c/lib/arm/v5te/nofp\libm-musl.a(atan.o)
 .rodata        0x00000000       0x40 c:/program files/microchip/xc32/v4.20/bin/bin/../../lib/gcc/pic32c/8.3.1/../../../../pic32c/lib/arm/v5te/nofp\libm-musl.a(atan.o)
 .xc_stack_usage.hdr
                0x00000000        0xe c:/program files/microchip/xc32/v4.20/bin/bin/../../lib/gcc/pic32c/8.3.1/../../../../pic32c/lib/arm/v5te/nofp\libm-musl.a(atan.o)
 .debug_info    0x00000000      0x598 c:/program files/microchip/xc32/v4.20/bin/bin/../../lib/gcc/pic32c/8.3.1/../../../../pic32c/lib/arm/v5te/nofp\libm-musl.a(atan.o)
 .debug_abbrev  0x00000000      0x178 c:/program files/microchip/xc32/v4.20/bin/bin/../../lib/gcc/pic32c/8.3.1/../../../../pic32c/lib/arm/v5te/nofp\libm-musl.a(atan.o)
 .debug_loc     0x00000000      0x2db c:/program files/microchip/xc32/v4.20/bin/bin/../../lib/gcc/pic32c/8.3.1/../../../../pic32c/lib/arm/v5te/nofp\libm-musl.a(atan.o)
 .debug_aranges
                0x00000000       0x20 c:/program files/microchip/xc32/v4.20/bin/bin/../../lib/gcc/pic32c/8.3.1/../../../../pic32c/lib/arm/v5te/nofp\libm-musl.a(atan.o)
 .debug_ranges  0x00000000       0x10 c:/program files/microchip/xc32/v4.20/bin/bin/../../lib/gcc/pic32c/8.3.1/../../../../pic32c/lib/arm/v5te/nofp\libm-musl.a(atan.o)
 .debug_line    0x00000000      0x2eb c:/program files/microchip/xc32/v4.20/bin/bin/../../lib/gcc/pic32c/8.3.1/../../../../pic32c/lib/arm/v5te/nofp\libm-musl.a(atan.o)
 .debug_str     0x00000000        0x0 c:/program files/microchip/xc32/v4.20/bin/bin/../../lib/gcc/pic32c/8.3.1/../../../../pic32c/lib/arm/v5te/nofp\libm-musl.a(atan.o)
 .comment       0x00000000       0x2c c:/program files/microchip/xc32/v4.20/bin/bin/../../lib/gcc/pic32c/8.3.1/../../../../pic32c/lib/arm/v5te/nofp\libm-musl.a(atan.o)
 .note.GNU-stack
                0x00000000        0x0 c:/program files/microchip/xc32/v4.20/bin/bin/../../lib/gcc/pic32c/8.3.1/../../../../pic32c/lib/arm/v5te/nofp\libm-musl.a(atan.o)
 .debug_frame   0x00000000       0x3c c:/program files/microchip/xc32/v4.20/bin/bin/../../lib/gcc/pic32c/8.3.1/../../../../pic32c/lib/arm/v5te/nofp\libm-musl.a(atan.o)
 .ARM.attributes
                0x00000000       0x2d c:/program files/microchip/xc32/v4.20/bin/bin/../../lib/gcc/pic32c/8.3.1/../../../../pic32c/lib/arm/v5te/nofp\libm-musl.a(atan.o)
 .text          0x00000000        0x0 c:/program files/microchip/xc32/v4.20/bin/bin/../../lib/gcc/pic32c/8.3.1/../../../../pic32c/lib/arm/v5te/nofp\libm-musl.a(fabs.o)
 .data          0x00000000        0x0 c:/program files/microchip/xc32/v4.20/bin/bin/../../lib/gcc/pic32c/8.3.1/../../../../pic32c/lib/arm/v5te/nofp\libm-musl.a(fabs.o)
 .bss           0x00000000        0x0 c:/program files/microchip/xc32/v4.20/bin/bin/../../lib/gcc/pic32c/8.3.1/../../../../pic32c/lib/arm/v5te/nofp\libm-musl.a(fabs.o)
 .xc_stack_usage
                0x00000000       0x12 c:/program files/microchip/xc32/v4.20/bin/bin/../../lib/gcc/pic32c/8.3.1/../../../../pic32c/lib/arm/v5te/nofp\libm-musl.a(fabs.o)
 .text.fabs     0x00000000        0xc c:/program files/microchip/xc32/v4.20/bin/bin/../../lib/gcc/pic32c/8.3.1/../../../../pic32c/lib/arm/v5te/nofp\libm-musl.a(fabs.o)
 .xc_stack_usage.hdr
                0x00000000        0xe c:/program files/microchip/xc32/v4.20/bin/bin/../../lib/gcc/pic32c/8.3.1/../../../../pic32c/lib/arm/v5te/nofp\libm-musl.a(fabs.o)
 .debug_info    0x00000000      0x31f c:/program files/microchip/xc32/v4.20/bin/bin/../../lib/gcc/pic32c/8.3.1/../../../../pic32c/lib/arm/v5te/nofp\libm-musl.a(fabs.o)
 .debug_abbrev  0x00000000       0x8a c:/program files/microchip/xc32/v4.20/bin/bin/../../lib/gcc/pic32c/8.3.1/../../../../pic32c/lib/arm/v5te/nofp\libm-musl.a(fabs.o)
 .debug_aranges
                0x00000000       0x20 c:/program files/microchip/xc32/v4.20/bin/bin/../../lib/gcc/pic32c/8.3.1/../../../../pic32c/lib/arm/v5te/nofp\libm-musl.a(fabs.o)
 .debug_ranges  0x00000000       0x10 c:/program files/microchip/xc32/v4.20/bin/bin/../../lib/gcc/pic32c/8.3.1/../../../../pic32c/lib/arm/v5te/nofp\libm-musl.a(fabs.o)
 .debug_line    0x00000000       0xd5 c:/program files/microchip/xc32/v4.20/bin/bin/../../lib/gcc/pic32c/8.3.1/../../../../pic32c/lib/arm/v5te/nofp\libm-musl.a(fabs.o)
 .debug_str     0x00000000        0x0 c:/program files/microchip/xc32/v4.20/bin/bin/../../lib/gcc/pic32c/8.3.1/../../../../pic32c/lib/arm/v5te/nofp\libm-musl.a(fabs.o)
 .comment       0x00000000       0x2c c:/program files/microchip/xc32/v4.20/bin/bin/../../lib/gcc/pic32c/8.3.1/../../../../pic32c/lib/arm/v5te/nofp\libm-musl.a(fabs.o)
 .note.GNU-stack
                0x00000000        0x0 c:/program files/microchip/xc32/v4.20/bin/bin/../../lib/gcc/pic32c/8.3.1/../../../../pic32c/lib/arm/v5te/nofp\libm-musl.a(fabs.o)
 .debug_frame   0x00000000       0x20 c:/program files/microchip/xc32/v4.20/bin/bin/../../lib/gcc/pic32c/8.3.1/../../../../pic32c/lib/arm/v5te/nofp\libm-musl.a(fabs.o)
 .ARM.attributes
                0x00000000       0x2d c:/program files/microchip/xc32/v4.20/bin/bin/../../lib/gcc/pic32c/8.3.1/../../../../pic32c/lib/arm/v5te/nofp\libm-musl.a(fabs.o)
 .text          0x00000000        0x0 c:/program files/microchip/xc32/v4.20/bin/bin/../../lib/gcc/pic32c/8.3.1/../../../../pic32c/lib/arm/v5te/nofp\libc-musl.a(__libc_start_main.o)
 .data          0x00000000        0x0 c:/program files/microchip/xc32/v4.20/bin/bin/../../lib/gcc/pic32c/8.3.1/../../../../pic32c/lib/arm/v5te/nofp\libc-musl.a(__libc_start_main.o)
 .bss           0x00000000        0x0 c:/program files/microchip/xc32/v4.20/bin/bin/../../lib/gcc/pic32c/8.3.1/../../../../pic32c/lib/arm/v5te/nofp\libc-musl.a(__libc_start_main.o)
 .xc_stack_usage
                0x00000000       0x34 c:/program files/microchip/xc32/v4.20/bin/bin/../../lib/gcc/pic32c/8.3.1/../../../../pic32c/lib/arm/v5te/nofp\libc-musl.a(__libc_start_main.o)
 .xc_stack_usage.hdr
                0x00000000        0xe c:/program files/microchip/xc32/v4.20/bin/bin/../../lib/gcc/pic32c/8.3.1/../../../../pic32c/lib/arm/v5te/nofp\libc-musl.a(__libc_start_main.o)
 .text          0x00000000        0x0 c:/program files/microchip/xc32/v4.20/bin/bin/../../lib/gcc/pic32c/8.3.1/../../../../pic32c/lib/arm/v5te/nofp\libc-musl.a(libc.o)
 .data          0x00000000        0x0 c:/program files/microchip/xc32/v4.20/bin/bin/../../lib/gcc/pic32c/8.3.1/../../../../pic32c/lib/arm/v5te/nofp\libc-musl.a(libc.o)
 .xc_stack_usage.hdr
                0x00000000        0xe c:/program files/microchip/xc32/v4.20/bin/bin/../../lib/gcc/pic32c/8.3.1/../../../../pic32c/lib/arm/v5te/nofp\libc-musl.a(libc.o)
 .text          0x00000000        0x0 c:/program files/microchip/xc32/v4.20/bin/bin/../../lib/gcc/pic32c/8.3.1/../../../../pic32c/lib/arm/v5te/nofp\libc-musl.a(__sio_printf_doux.o)
 .data          0x00000000        0x0 c:/program files/microchip/xc32/v4.20/bin/bin/../../lib/gcc/pic32c/8.3.1/../../../../pic32c/lib/arm/v5te/nofp\libc-musl.a(__sio_printf_doux.o)
 .bss           0x00000000        0x0 c:/program files/microchip/xc32/v4.20/bin/bin/../../lib/gcc/pic32c/8.3.1/../../../../pic32c/lib/arm/v5te/nofp\libc-musl.a(__sio_printf_doux.o)
 .xc_stack_usage
                0x00000000       0x3a c:/program files/microchip/xc32/v4.20/bin/bin/../../lib/gcc/pic32c/8.3.1/../../../../pic32c/lib/arm/v5te/nofp\libc-musl.a(__sio_printf_doux.o)
 .text.__wrap_printf
                0x00000000       0x38 c:/program files/microchip/xc32/v4.20/bin/bin/../../lib/gcc/pic32c/8.3.1/../../../../pic32c/lib/arm/v5te/nofp\libc-musl.a(__sio_printf_doux.o)
 .text.__sio_printf_doux
                0x00000000       0x24 c:/program files/microchip/xc32/v4.20/bin/bin/../../lib/gcc/pic32c/8.3.1/../../../../pic32c/lib/arm/v5te/nofp\libc-musl.a(__sio_printf_doux.o)
 .xc_stack_usage.hdr
                0x00000000        0xe c:/program files/microchip/xc32/v4.20/bin/bin/../../lib/gcc/pic32c/8.3.1/../../../../pic32c/lib/arm/v5te/nofp\libc-musl.a(__sio_printf_doux.o)
 .debug_info    0x00000000      0x486 c:/program files/microchip/xc32/v4.20/bin/bin/../../lib/gcc/pic32c/8.3.1/../../../../pic32c/lib/arm/v5te/nofp\libc-musl.a(__sio_printf_doux.o)
 .debug_abbrev  0x00000000      0x145 c:/program files/microchip/xc32/v4.20/bin/bin/../../lib/gcc/pic32c/8.3.1/../../../../pic32c/lib/arm/v5te/nofp\libc-musl.a(__sio_printf_doux.o)
 .debug_loc     0x00000000       0x91 c:/program files/microchip/xc32/v4.20/bin/bin/../../lib/gcc/pic32c/8.3.1/../../../../pic32c/lib/arm/v5te/nofp\libc-musl.a(__sio_printf_doux.o)
 .debug_aranges
                0x00000000       0x28 c:/program files/microchip/xc32/v4.20/bin/bin/../../lib/gcc/pic32c/8.3.1/../../../../pic32c/lib/arm/v5te/nofp\libc-musl.a(__sio_printf_doux.o)
 .debug_ranges  0x00000000       0x18 c:/program files/microchip/xc32/v4.20/bin/bin/../../lib/gcc/pic32c/8.3.1/../../../../pic32c/lib/arm/v5te/nofp\libc-musl.a(__sio_printf_doux.o)
 .debug_line    0x00000000      0x1c6 c:/program files/microchip/xc32/v4.20/bin/bin/../../lib/gcc/pic32c/8.3.1/../../../../pic32c/lib/arm/v5te/nofp\libc-musl.a(__sio_printf_doux.o)
 .debug_str     0x00000000       0x78 c:/program files/microchip/xc32/v4.20/bin/bin/../../lib/gcc/pic32c/8.3.1/../../../../pic32c/lib/arm/v5te/nofp\libc-musl.a(__sio_printf_doux.o)
 .comment       0x00000000       0x2c c:/program files/microchip/xc32/v4.20/bin/bin/../../lib/gcc/pic32c/8.3.1/../../../../pic32c/lib/arm/v5te/nofp\libc-musl.a(__sio_printf_doux.o)
 .note.GNU-stack
                0x00000000        0x0 c:/program files/microchip/xc32/v4.20/bin/bin/../../lib/gcc/pic32c/8.3.1/../../../../pic32c/lib/arm/v5te/nofp\libc-musl.a(__sio_printf_doux.o)
 .debug_frame   0x00000000       0x5c c:/program files/microchip/xc32/v4.20/bin/bin/../../lib/gcc/pic32c/8.3.1/../../../../pic32c/lib/arm/v5te/nofp\libc-musl.a(__sio_printf_doux.o)
 .ARM.attributes
                0x00000000       0x2d c:/program files/microchip/xc32/v4.20/bin/bin/../../lib/gcc/pic32c/8.3.1/../../../../pic32c/lib/arm/v5te/nofp\libc-musl.a(__sio_printf_doux.o)
 .text          0x00000000        0x0 c:/program files/microchip/xc32/v4.20/bin/bin/../../lib/gcc/pic32c/8.3.1/../../../../pic32c/lib/arm/v5te/nofp\libc-musl.a(__sio_sprintf_doux.o)
 .data          0x00000000        0x0 c:/program files/microchip/xc32/v4.20/bin/bin/../../lib/gcc/pic32c/8.3.1/../../../../pic32c/lib/arm/v5te/nofp\libc-musl.a(__sio_sprintf_doux.o)
 .bss           0x00000000        0x0 c:/program files/microchip/xc32/v4.20/bin/bin/../../lib/gcc/pic32c/8.3.1/../../../../pic32c/lib/arm/v5te/nofp\libc-musl.a(__sio_sprintf_doux.o)
 .xc_stack_usage
                0x00000000       0x3c c:/program files/microchip/xc32/v4.20/bin/bin/../../lib/gcc/pic32c/8.3.1/../../../../pic32c/lib/arm/v5te/nofp\libc-musl.a(__sio_sprintf_doux.o)
 .text.__sio_sprintf_doux
                0x00000000       0x24 c:/program files/microchip/xc32/v4.20/bin/bin/../../lib/gcc/pic32c/8.3.1/../../../../pic32c/lib/arm/v5te/nofp\libc-musl.a(__sio_sprintf_doux.o)
 .xc_stack_usage.hdr
                0x00000000        0xe c:/program files/microchip/xc32/v4.20/bin/bin/../../lib/gcc/pic32c/8.3.1/../../../../pic32c/lib/arm/v5te/nofp\libc-musl.a(__sio_sprintf_doux.o)
 .text          0x00000000        0x0 c:/program files/microchip/xc32/v4.20/bin/bin/../../lib/gcc/pic32c/8.3.1/../../../../pic32c/lib/arm/v5te/nofp\libc-musl.a(__sio_sscanf_dosux.o)
 .data          0x00000000        0x0 c:/program files/microchip/xc32/v4.20/bin/bin/../../lib/gcc/pic32c/8.3.1/../../../../pic32c/lib/arm/v5te/nofp\libc-musl.a(__sio_sscanf_dosux.o)
 .bss           0x00000000        0x0 c:/program files/microchip/xc32/v4.20/bin/bin/../../lib/gcc/pic32c/8.3.1/../../../../pic32c/lib/arm/v5te/nofp\libc-musl.a(__sio_sscanf_dosux.o)
 .xc_stack_usage
                0x00000000       0x3b c:/program files/microchip/xc32/v4.20/bin/bin/../../lib/gcc/pic32c/8.3.1/../../../../pic32c/lib/arm/v5te/nofp\libc-musl.a(__sio_sscanf_dosux.o)
 .text.__wrap_sscanf
                0x00000000       0x28 c:/program files/microchip/xc32/v4.20/bin/bin/../../lib/gcc/pic32c/8.3.1/../../../../pic32c/lib/arm/v5te/nofp\libc-musl.a(__sio_sscanf_dosux.o)
 .text.__sio_sscanf_dosux
                0x00000000       0x1c c:/program files/microchip/xc32/v4.20/bin/bin/../../lib/gcc/pic32c/8.3.1/../../../../pic32c/lib/arm/v5te/nofp\libc-musl.a(__sio_sscanf_dosux.o)
 .xc_stack_usage.hdr
                0x00000000        0xe c:/program files/microchip/xc32/v4.20/bin/bin/../../lib/gcc/pic32c/8.3.1/../../../../pic32c/lib/arm/v5te/nofp\libc-musl.a(__sio_sscanf_dosux.o)
 .debug_info    0x00000000      0x437 c:/program files/microchip/xc32/v4.20/bin/bin/../../lib/gcc/pic32c/8.3.1/../../../../pic32c/lib/arm/v5te/nofp\libc-musl.a(__sio_sscanf_dosux.o)
 .debug_abbrev  0x00000000      0x12e c:/program files/microchip/xc32/v4.20/bin/bin/../../lib/gcc/pic32c/8.3.1/../../../../pic32c/lib/arm/v5te/nofp\libc-musl.a(__sio_sscanf_dosux.o)
 .debug_loc     0x00000000       0xb6 c:/program files/microchip/xc32/v4.20/bin/bin/../../lib/gcc/pic32c/8.3.1/../../../../pic32c/lib/arm/v5te/nofp\libc-musl.a(__sio_sscanf_dosux.o)
 .debug_aranges
                0x00000000       0x28 c:/program files/microchip/xc32/v4.20/bin/bin/../../lib/gcc/pic32c/8.3.1/../../../../pic32c/lib/arm/v5te/nofp\libc-musl.a(__sio_sscanf_dosux.o)
 .debug_ranges  0x00000000       0x18 c:/program files/microchip/xc32/v4.20/bin/bin/../../lib/gcc/pic32c/8.3.1/../../../../pic32c/lib/arm/v5te/nofp\libc-musl.a(__sio_sscanf_dosux.o)
 .debug_line    0x00000000      0x1ac c:/program files/microchip/xc32/v4.20/bin/bin/../../lib/gcc/pic32c/8.3.1/../../../../pic32c/lib/arm/v5te/nofp\libc-musl.a(__sio_sscanf_dosux.o)
 .debug_str     0x00000000       0x5a c:/program files/microchip/xc32/v4.20/bin/bin/../../lib/gcc/pic32c/8.3.1/../../../../pic32c/lib/arm/v5te/nofp\libc-musl.a(__sio_sscanf_dosux.o)
 .comment       0x00000000       0x2c c:/program files/microchip/xc32/v4.20/bin/bin/../../lib/gcc/pic32c/8.3.1/../../../../pic32c/lib/arm/v5te/nofp\libc-musl.a(__sio_sscanf_dosux.o)
 .note.GNU-stack
                0x00000000        0x0 c:/program files/microchip/xc32/v4.20/bin/bin/../../lib/gcc/pic32c/8.3.1/../../../../pic32c/lib/arm/v5te/nofp\libc-musl.a(__sio_sscanf_dosux.o)
 .debug_frame   0x00000000       0x58 c:/program files/microchip/xc32/v4.20/bin/bin/../../lib/gcc/pic32c/8.3.1/../../../../pic32c/lib/arm/v5te/nofp\libc-musl.a(__sio_sscanf_dosux.o)
 .ARM.attributes
                0x00000000       0x2d c:/program files/microchip/xc32/v4.20/bin/bin/../../lib/gcc/pic32c/8.3.1/../../../../pic32c/lib/arm/v5te/nofp\libc-musl.a(__sio_sscanf_dosux.o)
 .text          0x00000000        0x0 c:/program files/microchip/xc32/v4.20/bin/bin/../../lib/gcc/pic32c/8.3.1/../../../../pic32c/lib/arm/v5te/nofp\libc-musl.a(__fmt_d.o)
 .data          0x00000000        0x0 c:/program files/microchip/xc32/v4.20/bin/bin/../../lib/gcc/pic32c/8.3.1/../../../../pic32c/lib/arm/v5te/nofp\libc-musl.a(__fmt_d.o)
 .bss           0x00000000        0x0 c:/program files/microchip/xc32/v4.20/bin/bin/../../lib/gcc/pic32c/8.3.1/../../../../pic32c/lib/arm/v5te/nofp\libc-musl.a(__fmt_d.o)
 .xc_stack_usage
                0x00000000       0x15 c:/program files/microchip/xc32/v4.20/bin/bin/../../lib/gcc/pic32c/8.3.1/../../../../pic32c/lib/arm/v5te/nofp\libc-musl.a(__fmt_d.o)
 .xc_stack_usage.hdr
                0x00000000        0xe c:/program files/microchip/xc32/v4.20/bin/bin/../../lib/gcc/pic32c/8.3.1/../../../../pic32c/lib/arm/v5te/nofp\libc-musl.a(__fmt_d.o)
 .text          0x00000000        0x0 c:/program files/microchip/xc32/v4.20/bin/bin/../../lib/gcc/pic32c/8.3.1/../../../../pic32c/lib/arm/v5te/nofp\libc-musl.a(__fmt_o.o)
 .data          0x00000000        0x0 c:/program files/microchip/xc32/v4.20/bin/bin/../../lib/gcc/pic32c/8.3.1/../../../../pic32c/lib/arm/v5te/nofp\libc-musl.a(__fmt_o.o)
 .bss           0x00000000        0x0 c:/program files/microchip/xc32/v4.20/bin/bin/../../lib/gcc/pic32c/8.3.1/../../../../pic32c/lib/arm/v5te/nofp\libc-musl.a(__fmt_o.o)
 .xc_stack_usage
                0x00000000       0x15 c:/program files/microchip/xc32/v4.20/bin/bin/../../lib/gcc/pic32c/8.3.1/../../../../pic32c/lib/arm/v5te/nofp\libc-musl.a(__fmt_o.o)
 .xc_stack_usage.hdr
                0x00000000        0xe c:/program files/microchip/xc32/v4.20/bin/bin/../../lib/gcc/pic32c/8.3.1/../../../../pic32c/lib/arm/v5te/nofp\libc-musl.a(__fmt_o.o)
 .text          0x00000000        0x0 c:/program files/microchip/xc32/v4.20/bin/bin/../../lib/gcc/pic32c/8.3.1/../../../../pic32c/lib/arm/v5te/nofp\libc-musl.a(__fmt_s.o)
 .data          0x00000000        0x0 c:/program files/microchip/xc32/v4.20/bin/bin/../../lib/gcc/pic32c/8.3.1/../../../../pic32c/lib/arm/v5te/nofp\libc-musl.a(__fmt_s.o)
 .bss           0x00000000        0x0 c:/program files/microchip/xc32/v4.20/bin/bin/../../lib/gcc/pic32c/8.3.1/../../../../pic32c/lib/arm/v5te/nofp\libc-musl.a(__fmt_s.o)
 .xc_stack_usage
                0x00000000       0x15 c:/program files/microchip/xc32/v4.20/bin/bin/../../lib/gcc/pic32c/8.3.1/../../../../pic32c/lib/arm/v5te/nofp\libc-musl.a(__fmt_s.o)
 .xc_stack_usage.hdr
                0x00000000        0xe c:/program files/microchip/xc32/v4.20/bin/bin/../../lib/gcc/pic32c/8.3.1/../../../../pic32c/lib/arm/v5te/nofp\libc-musl.a(__fmt_s.o)
 .text          0x00000000        0x0 c:/program files/microchip/xc32/v4.20/bin/bin/../../lib/gcc/pic32c/8.3.1/../../../../pic32c/lib/arm/v5te/nofp\libc-musl.a(__fmt_u.o)
 .data          0x00000000        0x0 c:/program files/microchip/xc32/v4.20/bin/bin/../../lib/gcc/pic32c/8.3.1/../../../../pic32c/lib/arm/v5te/nofp\libc-musl.a(__fmt_u.o)
 .bss           0x00000000        0x0 c:/program files/microchip/xc32/v4.20/bin/bin/../../lib/gcc/pic32c/8.3.1/../../../../pic32c/lib/arm/v5te/nofp\libc-musl.a(__fmt_u.o)
 .xc_stack_usage
                0x00000000       0x2a c:/program files/microchip/xc32/v4.20/bin/bin/../../lib/gcc/pic32c/8.3.1/../../../../pic32c/lib/arm/v5te/nofp\libc-musl.a(__fmt_u.o)
 .xc_stack_usage.hdr
                0x00000000        0xe c:/program files/microchip/xc32/v4.20/bin/bin/../../lib/gcc/pic32c/8.3.1/../../../../pic32c/lib/arm/v5te/nofp\libc-musl.a(__fmt_u.o)
 .text          0x00000000        0x0 c:/program files/microchip/xc32/v4.20/bin/bin/../../lib/gcc/pic32c/8.3.1/../../../../pic32c/lib/arm/v5te/nofp\libc-musl.a(__fmt_x.o)
 .data          0x00000000        0x0 c:/program files/microchip/xc32/v4.20/bin/bin/../../lib/gcc/pic32c/8.3.1/../../../../pic32c/lib/arm/v5te/nofp\libc-musl.a(__fmt_x.o)
 .bss           0x00000000        0x0 c:/program files/microchip/xc32/v4.20/bin/bin/../../lib/gcc/pic32c/8.3.1/../../../../pic32c/lib/arm/v5te/nofp\libc-musl.a(__fmt_x.o)
 .xc_stack_usage
                0x00000000       0x15 c:/program files/microchip/xc32/v4.20/bin/bin/../../lib/gcc/pic32c/8.3.1/../../../../pic32c/lib/arm/v5te/nofp\libc-musl.a(__fmt_x.o)
 .xc_stack_usage.hdr
                0x00000000        0xe c:/program files/microchip/xc32/v4.20/bin/bin/../../lib/gcc/pic32c/8.3.1/../../../../pic32c/lib/arm/v5te/nofp\libc-musl.a(__fmt_x.o)
 .text          0x00000000        0x0 c:/program files/microchip/xc32/v4.20/bin/bin/../../lib/gcc/pic32c/8.3.1/../../../../pic32c/lib/arm/v5te/nofp\libc-musl.a(__pop_int.o)
 .data          0x00000000        0x0 c:/program files/microchip/xc32/v4.20/bin/bin/../../lib/gcc/pic32c/8.3.1/../../../../pic32c/lib/arm/v5te/nofp\libc-musl.a(__pop_int.o)
 .bss           0x00000000        0x0 c:/program files/microchip/xc32/v4.20/bin/bin/../../lib/gcc/pic32c/8.3.1/../../../../pic32c/lib/arm/v5te/nofp\libc-musl.a(__pop_int.o)
 .xc_stack_usage
                0x00000000       0x17 c:/program files/microchip/xc32/v4.20/bin/bin/../../lib/gcc/pic32c/8.3.1/../../../../pic32c/lib/arm/v5te/nofp\libc-musl.a(__pop_int.o)
 .xc_stack_usage.hdr
                0x00000000        0xe c:/program files/microchip/xc32/v4.20/bin/bin/../../lib/gcc/pic32c/8.3.1/../../../../pic32c/lib/arm/v5te/nofp\libc-musl.a(__pop_int.o)
 .text          0x00000000        0x0 c:/program files/microchip/xc32/v4.20/bin/bin/../../lib/gcc/pic32c/8.3.1/../../../../pic32c/lib/arm/v5te/nofp\libc-musl.a(__pop_ptr.o)
 .data          0x00000000        0x0 c:/program files/microchip/xc32/v4.20/bin/bin/../../lib/gcc/pic32c/8.3.1/../../../../pic32c/lib/arm/v5te/nofp\libc-musl.a(__pop_ptr.o)
 .bss           0x00000000        0x0 c:/program files/microchip/xc32/v4.20/bin/bin/../../lib/gcc/pic32c/8.3.1/../../../../pic32c/lib/arm/v5te/nofp\libc-musl.a(__pop_ptr.o)
 .xc_stack_usage
                0x00000000       0x17 c:/program files/microchip/xc32/v4.20/bin/bin/../../lib/gcc/pic32c/8.3.1/../../../../pic32c/lib/arm/v5te/nofp\libc-musl.a(__pop_ptr.o)
 .xc_stack_usage.hdr
                0x00000000        0xe c:/program files/microchip/xc32/v4.20/bin/bin/../../lib/gcc/pic32c/8.3.1/../../../../pic32c/lib/arm/v5te/nofp\libc-musl.a(__pop_ptr.o)
 .text          0x00000000        0x0 c:/program files/microchip/xc32/v4.20/bin/bin/../../lib/gcc/pic32c/8.3.1/../../../../pic32c/lib/arm/v5te/nofp\libc-musl.a(__printf_core.o)
 .data          0x00000000        0x0 c:/program files/microchip/xc32/v4.20/bin/bin/../../lib/gcc/pic32c/8.3.1/../../../../pic32c/lib/arm/v5te/nofp\libc-musl.a(__printf_core.o)
 .bss           0x00000000        0x0 c:/program files/microchip/xc32/v4.20/bin/bin/../../lib/gcc/pic32c/8.3.1/../../../../pic32c/lib/arm/v5te/nofp\libc-musl.a(__printf_core.o)
 .xc_stack_usage
                0x00000000       0xaf c:/program files/microchip/xc32/v4.20/bin/bin/../../lib/gcc/pic32c/8.3.1/../../../../pic32c/lib/arm/v5te/nofp\libc-musl.a(__printf_core.o)
 .text.__string_out
                0x00000000       0x44 c:/program files/microchip/xc32/v4.20/bin/bin/../../lib/gcc/pic32c/8.3.1/../../../../pic32c/lib/arm/v5te/nofp\libc-musl.a(__printf_core.o)
 .text.__dummy_fmt3
                0x00000000        0x8 c:/program files/microchip/xc32/v4.20/bin/bin/../../lib/gcc/pic32c/8.3.1/../../../../pic32c/lib/arm/v5te/nofp\libc-musl.a(__printf_core.o)
 .text.__dummy_fmts
                0x00000000        0x8 c:/program files/microchip/xc32/v4.20/bin/bin/../../lib/gcc/pic32c/8.3.1/../../../../pic32c/lib/arm/v5te/nofp\libc-musl.a(__printf_core.o)
 .xc_stack_usage.hdr
                0x00000000        0xe c:/program files/microchip/xc32/v4.20/bin/bin/../../lib/gcc/pic32c/8.3.1/../../../../pic32c/lib/arm/v5te/nofp\libc-musl.a(__printf_core.o)
 .text          0x00000000        0x0 c:/program files/microchip/xc32/v4.20/bin/bin/../../lib/gcc/pic32c/8.3.1/../../../../pic32c/lib/arm/v5te/nofp\libc-musl.a(__scan_d.o)
 .data          0x00000000        0x0 c:/program files/microchip/xc32/v4.20/bin/bin/../../lib/gcc/pic32c/8.3.1/../../../../pic32c/lib/arm/v5te/nofp\libc-musl.a(__scan_d.o)
 .bss           0x00000000        0x0 c:/program files/microchip/xc32/v4.20/bin/bin/../../lib/gcc/pic32c/8.3.1/../../../../pic32c/lib/arm/v5te/nofp\libc-musl.a(__scan_d.o)
 .xc_stack_usage
                0x00000000       0x51 c:/program files/microchip/xc32/v4.20/bin/bin/../../lib/gcc/pic32c/8.3.1/../../../../pic32c/lib/arm/v5te/nofp\libc-musl.a(__scan_d.o)
 .text.__read_int
                0x00000000       0xec c:/program files/microchip/xc32/v4.20/bin/bin/../../lib/gcc/pic32c/8.3.1/../../../../pic32c/lib/arm/v5te/nofp\libc-musl.a(__scan_d.o)
 .text.__scan_d
                0x00000000       0x4c c:/program files/microchip/xc32/v4.20/bin/bin/../../lib/gcc/pic32c/8.3.1/../../../../pic32c/lib/arm/v5te/nofp\libc-musl.a(__scan_d.o)
 __xc_reference_data
                0x00000000        0xc c:/program files/microchip/xc32/v4.20/bin/bin/../../lib/gcc/pic32c/8.3.1/../../../../pic32c/lib/arm/v5te/nofp\libc-musl.a(__scan_d.o)
 .xc_stack_usage.hdr
                0x00000000        0xe c:/program files/microchip/xc32/v4.20/bin/bin/../../lib/gcc/pic32c/8.3.1/../../../../pic32c/lib/arm/v5te/nofp\libc-musl.a(__scan_d.o)
 .debug_info    0x00000000      0x8b6 c:/program files/microchip/xc32/v4.20/bin/bin/../../lib/gcc/pic32c/8.3.1/../../../../pic32c/lib/arm/v5te/nofp\libc-musl.a(__scan_d.o)
 .debug_abbrev  0x00000000      0x197 c:/program files/microchip/xc32/v4.20/bin/bin/../../lib/gcc/pic32c/8.3.1/../../../../pic32c/lib/arm/v5te/nofp\libc-musl.a(__scan_d.o)
 .debug_loc     0x00000000      0x22b c:/program files/microchip/xc32/v4.20/bin/bin/../../lib/gcc/pic32c/8.3.1/../../../../pic32c/lib/arm/v5te/nofp\libc-musl.a(__scan_d.o)
 .debug_aranges
                0x00000000       0x30 c:/program files/microchip/xc32/v4.20/bin/bin/../../lib/gcc/pic32c/8.3.1/../../../../pic32c/lib/arm/v5te/nofp\libc-musl.a(__scan_d.o)
 .debug_ranges  0x00000000       0x20 c:/program files/microchip/xc32/v4.20/bin/bin/../../lib/gcc/pic32c/8.3.1/../../../../pic32c/lib/arm/v5te/nofp\libc-musl.a(__scan_d.o)
 .debug_line    0x00000000      0x333 c:/program files/microchip/xc32/v4.20/bin/bin/../../lib/gcc/pic32c/8.3.1/../../../../pic32c/lib/arm/v5te/nofp\libc-musl.a(__scan_d.o)
 .debug_str     0x00000000       0x22 c:/program files/microchip/xc32/v4.20/bin/bin/../../lib/gcc/pic32c/8.3.1/../../../../pic32c/lib/arm/v5te/nofp\libc-musl.a(__scan_d.o)
 .comment       0x00000000       0x2c c:/program files/microchip/xc32/v4.20/bin/bin/../../lib/gcc/pic32c/8.3.1/../../../../pic32c/lib/arm/v5te/nofp\libc-musl.a(__scan_d.o)
 .note.GNU-stack
                0x00000000        0x0 c:/program files/microchip/xc32/v4.20/bin/bin/../../lib/gcc/pic32c/8.3.1/../../../../pic32c/lib/arm/v5te/nofp\libc-musl.a(__scan_d.o)
 .debug_frame   0x00000000       0x60 c:/program files/microchip/xc32/v4.20/bin/bin/../../lib/gcc/pic32c/8.3.1/../../../../pic32c/lib/arm/v5te/nofp\libc-musl.a(__scan_d.o)
 .ARM.attributes
                0x00000000       0x2d c:/program files/microchip/xc32/v4.20/bin/bin/../../lib/gcc/pic32c/8.3.1/../../../../pic32c/lib/arm/v5te/nofp\libc-musl.a(__scan_d.o)
 .text          0x00000000        0x0 c:/program files/microchip/xc32/v4.20/bin/bin/../../lib/gcc/pic32c/8.3.1/../../../../pic32c/lib/arm/v5te/nofp\libc-musl.a(__scan_i.o)
 .data          0x00000000        0x0 c:/program files/microchip/xc32/v4.20/bin/bin/../../lib/gcc/pic32c/8.3.1/../../../../pic32c/lib/arm/v5te/nofp\libc-musl.a(__scan_i.o)
 .bss           0x00000000        0x0 c:/program files/microchip/xc32/v4.20/bin/bin/../../lib/gcc/pic32c/8.3.1/../../../../pic32c/lib/arm/v5te/nofp\libc-musl.a(__scan_i.o)
 .xc_stack_usage
                0x00000000       0x16 c:/program files/microchip/xc32/v4.20/bin/bin/../../lib/gcc/pic32c/8.3.1/../../../../pic32c/lib/arm/v5te/nofp\libc-musl.a(__scan_i.o)
 .text.__scan_i
                0x00000000      0x228 c:/program files/microchip/xc32/v4.20/bin/bin/../../lib/gcc/pic32c/8.3.1/../../../../pic32c/lib/arm/v5te/nofp\libc-musl.a(__scan_i.o)
 .xc_stack_usage.hdr
                0x00000000        0xe c:/program files/microchip/xc32/v4.20/bin/bin/../../lib/gcc/pic32c/8.3.1/../../../../pic32c/lib/arm/v5te/nofp\libc-musl.a(__scan_i.o)
 .debug_info    0x00000000      0x8a6 c:/program files/microchip/xc32/v4.20/bin/bin/../../lib/gcc/pic32c/8.3.1/../../../../pic32c/lib/arm/v5te/nofp\libc-musl.a(__scan_i.o)
 .debug_abbrev  0x00000000      0x19c c:/program files/microchip/xc32/v4.20/bin/bin/../../lib/gcc/pic32c/8.3.1/../../../../pic32c/lib/arm/v5te/nofp\libc-musl.a(__scan_i.o)
 .debug_loc     0x00000000      0x2ee c:/program files/microchip/xc32/v4.20/bin/bin/../../lib/gcc/pic32c/8.3.1/../../../../pic32c/lib/arm/v5te/nofp\libc-musl.a(__scan_i.o)
 .debug_aranges
                0x00000000       0x20 c:/program files/microchip/xc32/v4.20/bin/bin/../../lib/gcc/pic32c/8.3.1/../../../../pic32c/lib/arm/v5te/nofp\libc-musl.a(__scan_i.o)
 .debug_ranges  0x00000000       0x10 c:/program files/microchip/xc32/v4.20/bin/bin/../../lib/gcc/pic32c/8.3.1/../../../../pic32c/lib/arm/v5te/nofp\libc-musl.a(__scan_i.o)
 .debug_line    0x00000000      0x3ae c:/program files/microchip/xc32/v4.20/bin/bin/../../lib/gcc/pic32c/8.3.1/../../../../pic32c/lib/arm/v5te/nofp\libc-musl.a(__scan_i.o)
 .debug_str     0x00000000       0x24 c:/program files/microchip/xc32/v4.20/bin/bin/../../lib/gcc/pic32c/8.3.1/../../../../pic32c/lib/arm/v5te/nofp\libc-musl.a(__scan_i.o)
 .comment       0x00000000       0x2c c:/program files/microchip/xc32/v4.20/bin/bin/../../lib/gcc/pic32c/8.3.1/../../../../pic32c/lib/arm/v5te/nofp\libc-musl.a(__scan_i.o)
 .note.GNU-stack
                0x00000000        0x0 c:/program files/microchip/xc32/v4.20/bin/bin/../../lib/gcc/pic32c/8.3.1/../../../../pic32c/lib/arm/v5te/nofp\libc-musl.a(__scan_i.o)
 .debug_frame   0x00000000       0x40 c:/program files/microchip/xc32/v4.20/bin/bin/../../lib/gcc/pic32c/8.3.1/../../../../pic32c/lib/arm/v5te/nofp\libc-musl.a(__scan_i.o)
 .ARM.attributes
                0x00000000       0x2d c:/program files/microchip/xc32/v4.20/bin/bin/../../lib/gcc/pic32c/8.3.1/../../../../pic32c/lib/arm/v5te/nofp\libc-musl.a(__scan_i.o)
 .text          0x00000000        0x0 c:/program files/microchip/xc32/v4.20/bin/bin/../../lib/gcc/pic32c/8.3.1/../../../../pic32c/lib/arm/v5te/nofp\libc-musl.a(__scan_o.o)
 .data          0x00000000        0x0 c:/program files/microchip/xc32/v4.20/bin/bin/../../lib/gcc/pic32c/8.3.1/../../../../pic32c/lib/arm/v5te/nofp\libc-musl.a(__scan_o.o)
 .bss           0x00000000        0x0 c:/program files/microchip/xc32/v4.20/bin/bin/../../lib/gcc/pic32c/8.3.1/../../../../pic32c/lib/arm/v5te/nofp\libc-musl.a(__scan_o.o)
 .xc_stack_usage
                0x00000000       0x16 c:/program files/microchip/xc32/v4.20/bin/bin/../../lib/gcc/pic32c/8.3.1/../../../../pic32c/lib/arm/v5te/nofp\libc-musl.a(__scan_o.o)
 .text.__scan_o
                0x00000000       0xf0 c:/program files/microchip/xc32/v4.20/bin/bin/../../lib/gcc/pic32c/8.3.1/../../../../pic32c/lib/arm/v5te/nofp\libc-musl.a(__scan_o.o)
 .xc_stack_usage.hdr
                0x00000000        0xe c:/program files/microchip/xc32/v4.20/bin/bin/../../lib/gcc/pic32c/8.3.1/../../../../pic32c/lib/arm/v5te/nofp\libc-musl.a(__scan_o.o)
 .debug_info    0x00000000      0x7d1 c:/program files/microchip/xc32/v4.20/bin/bin/../../lib/gcc/pic32c/8.3.1/../../../../pic32c/lib/arm/v5te/nofp\libc-musl.a(__scan_o.o)
 .debug_abbrev  0x00000000      0x15b c:/program files/microchip/xc32/v4.20/bin/bin/../../lib/gcc/pic32c/8.3.1/../../../../pic32c/lib/arm/v5te/nofp\libc-musl.a(__scan_o.o)
 .debug_loc     0x00000000      0x178 c:/program files/microchip/xc32/v4.20/bin/bin/../../lib/gcc/pic32c/8.3.1/../../../../pic32c/lib/arm/v5te/nofp\libc-musl.a(__scan_o.o)
 .debug_aranges
                0x00000000       0x20 c:/program files/microchip/xc32/v4.20/bin/bin/../../lib/gcc/pic32c/8.3.1/../../../../pic32c/lib/arm/v5te/nofp\libc-musl.a(__scan_o.o)
 .debug_ranges  0x00000000       0x10 c:/program files/microchip/xc32/v4.20/bin/bin/../../lib/gcc/pic32c/8.3.1/../../../../pic32c/lib/arm/v5te/nofp\libc-musl.a(__scan_o.o)
 .debug_line    0x00000000      0x2d1 c:/program files/microchip/xc32/v4.20/bin/bin/../../lib/gcc/pic32c/8.3.1/../../../../pic32c/lib/arm/v5te/nofp\libc-musl.a(__scan_o.o)
 .debug_str     0x00000000       0x1b c:/program files/microchip/xc32/v4.20/bin/bin/../../lib/gcc/pic32c/8.3.1/../../../../pic32c/lib/arm/v5te/nofp\libc-musl.a(__scan_o.o)
 .comment       0x00000000       0x2c c:/program files/microchip/xc32/v4.20/bin/bin/../../lib/gcc/pic32c/8.3.1/../../../../pic32c/lib/arm/v5te/nofp\libc-musl.a(__scan_o.o)
 .note.GNU-stack
                0x00000000        0x0 c:/program files/microchip/xc32/v4.20/bin/bin/../../lib/gcc/pic32c/8.3.1/../../../../pic32c/lib/arm/v5te/nofp\libc-musl.a(__scan_o.o)
 .debug_frame   0x00000000       0x3c c:/program files/microchip/xc32/v4.20/bin/bin/../../lib/gcc/pic32c/8.3.1/../../../../pic32c/lib/arm/v5te/nofp\libc-musl.a(__scan_o.o)
 .ARM.attributes
                0x00000000       0x2d c:/program files/microchip/xc32/v4.20/bin/bin/../../lib/gcc/pic32c/8.3.1/../../../../pic32c/lib/arm/v5te/nofp\libc-musl.a(__scan_o.o)
 .text          0x00000000        0x0 c:/program files/microchip/xc32/v4.20/bin/bin/../../lib/gcc/pic32c/8.3.1/../../../../pic32c/lib/arm/v5te/nofp\libc-musl.a(__scan_s.o)
 .data          0x00000000        0x0 c:/program files/microchip/xc32/v4.20/bin/bin/../../lib/gcc/pic32c/8.3.1/../../../../pic32c/lib/arm/v5te/nofp\libc-musl.a(__scan_s.o)
 .bss           0x00000000        0x0 c:/program files/microchip/xc32/v4.20/bin/bin/../../lib/gcc/pic32c/8.3.1/../../../../pic32c/lib/arm/v5te/nofp\libc-musl.a(__scan_s.o)
 .xc_stack_usage
                0x00000000       0x16 c:/program files/microchip/xc32/v4.20/bin/bin/../../lib/gcc/pic32c/8.3.1/../../../../pic32c/lib/arm/v5te/nofp\libc-musl.a(__scan_s.o)
 .text.__scan_s
                0x00000000       0xec c:/program files/microchip/xc32/v4.20/bin/bin/../../lib/gcc/pic32c/8.3.1/../../../../pic32c/lib/arm/v5te/nofp\libc-musl.a(__scan_s.o)
 .xc_stack_usage.hdr
                0x00000000        0xe c:/program files/microchip/xc32/v4.20/bin/bin/../../lib/gcc/pic32c/8.3.1/../../../../pic32c/lib/arm/v5te/nofp\libc-musl.a(__scan_s.o)
 .debug_info    0x00000000      0x74a c:/program files/microchip/xc32/v4.20/bin/bin/../../lib/gcc/pic32c/8.3.1/../../../../pic32c/lib/arm/v5te/nofp\libc-musl.a(__scan_s.o)
 .debug_abbrev  0x00000000      0x183 c:/program files/microchip/xc32/v4.20/bin/bin/../../lib/gcc/pic32c/8.3.1/../../../../pic32c/lib/arm/v5te/nofp\libc-musl.a(__scan_s.o)
 .debug_loc     0x00000000      0x127 c:/program files/microchip/xc32/v4.20/bin/bin/../../lib/gcc/pic32c/8.3.1/../../../../pic32c/lib/arm/v5te/nofp\libc-musl.a(__scan_s.o)
 .debug_aranges
                0x00000000       0x20 c:/program files/microchip/xc32/v4.20/bin/bin/../../lib/gcc/pic32c/8.3.1/../../../../pic32c/lib/arm/v5te/nofp\libc-musl.a(__scan_s.o)
 .debug_ranges  0x00000000       0x10 c:/program files/microchip/xc32/v4.20/bin/bin/../../lib/gcc/pic32c/8.3.1/../../../../pic32c/lib/arm/v5te/nofp\libc-musl.a(__scan_s.o)
 .debug_line    0x00000000      0x2d5 c:/program files/microchip/xc32/v4.20/bin/bin/../../lib/gcc/pic32c/8.3.1/../../../../pic32c/lib/arm/v5te/nofp\libc-musl.a(__scan_s.o)
 .debug_str     0x00000000       0x12 c:/program files/microchip/xc32/v4.20/bin/bin/../../lib/gcc/pic32c/8.3.1/../../../../pic32c/lib/arm/v5te/nofp\libc-musl.a(__scan_s.o)
 .comment       0x00000000       0x2c c:/program files/microchip/xc32/v4.20/bin/bin/../../lib/gcc/pic32c/8.3.1/../../../../pic32c/lib/arm/v5te/nofp\libc-musl.a(__scan_s.o)
 .note.GNU-stack
                0x00000000        0x0 c:/program files/microchip/xc32/v4.20/bin/bin/../../lib/gcc/pic32c/8.3.1/../../../../pic32c/lib/arm/v5te/nofp\libc-musl.a(__scan_s.o)
 .debug_frame   0x00000000       0x34 c:/program files/microchip/xc32/v4.20/bin/bin/../../lib/gcc/pic32c/8.3.1/../../../../pic32c/lib/arm/v5te/nofp\libc-musl.a(__scan_s.o)
 .ARM.attributes
                0x00000000       0x2d c:/program files/microchip/xc32/v4.20/bin/bin/../../lib/gcc/pic32c/8.3.1/../../../../pic32c/lib/arm/v5te/nofp\libc-musl.a(__scan_s.o)
 .text          0x00000000        0x0 c:/program files/microchip/xc32/v4.20/bin/bin/../../lib/gcc/pic32c/8.3.1/../../../../pic32c/lib/arm/v5te/nofp\libc-musl.a(__scan_u.o)
 .data          0x00000000        0x0 c:/program files/microchip/xc32/v4.20/bin/bin/../../lib/gcc/pic32c/8.3.1/../../../../pic32c/lib/arm/v5te/nofp\libc-musl.a(__scan_u.o)
 .bss           0x00000000        0x0 c:/program files/microchip/xc32/v4.20/bin/bin/../../lib/gcc/pic32c/8.3.1/../../../../pic32c/lib/arm/v5te/nofp\libc-musl.a(__scan_u.o)
 .xc_stack_usage
                0x00000000       0x16 c:/program files/microchip/xc32/v4.20/bin/bin/../../lib/gcc/pic32c/8.3.1/../../../../pic32c/lib/arm/v5te/nofp\libc-musl.a(__scan_u.o)
 .text.__scan_u
                0x00000000       0x4c c:/program files/microchip/xc32/v4.20/bin/bin/../../lib/gcc/pic32c/8.3.1/../../../../pic32c/lib/arm/v5te/nofp\libc-musl.a(__scan_u.o)
 .xc_stack_usage.hdr
                0x00000000        0xe c:/program files/microchip/xc32/v4.20/bin/bin/../../lib/gcc/pic32c/8.3.1/../../../../pic32c/lib/arm/v5te/nofp\libc-musl.a(__scan_u.o)
 .debug_info    0x00000000      0x547 c:/program files/microchip/xc32/v4.20/bin/bin/../../lib/gcc/pic32c/8.3.1/../../../../pic32c/lib/arm/v5te/nofp\libc-musl.a(__scan_u.o)
 .debug_abbrev  0x00000000      0x120 c:/program files/microchip/xc32/v4.20/bin/bin/../../lib/gcc/pic32c/8.3.1/../../../../pic32c/lib/arm/v5te/nofp\libc-musl.a(__scan_u.o)
 .debug_loc     0x00000000       0xdf c:/program files/microchip/xc32/v4.20/bin/bin/../../lib/gcc/pic32c/8.3.1/../../../../pic32c/lib/arm/v5te/nofp\libc-musl.a(__scan_u.o)
 .debug_aranges
                0x00000000       0x20 c:/program files/microchip/xc32/v4.20/bin/bin/../../lib/gcc/pic32c/8.3.1/../../../../pic32c/lib/arm/v5te/nofp\libc-musl.a(__scan_u.o)
 .debug_ranges  0x00000000       0x10 c:/program files/microchip/xc32/v4.20/bin/bin/../../lib/gcc/pic32c/8.3.1/../../../../pic32c/lib/arm/v5te/nofp\libc-musl.a(__scan_u.o)
 .debug_line    0x00000000      0x1e6 c:/program files/microchip/xc32/v4.20/bin/bin/../../lib/gcc/pic32c/8.3.1/../../../../pic32c/lib/arm/v5te/nofp\libc-musl.a(__scan_u.o)
 .debug_str     0x00000000       0x14 c:/program files/microchip/xc32/v4.20/bin/bin/../../lib/gcc/pic32c/8.3.1/../../../../pic32c/lib/arm/v5te/nofp\libc-musl.a(__scan_u.o)
 .comment       0x00000000       0x2c c:/program files/microchip/xc32/v4.20/bin/bin/../../lib/gcc/pic32c/8.3.1/../../../../pic32c/lib/arm/v5te/nofp\libc-musl.a(__scan_u.o)
 .note.GNU-stack
                0x00000000        0x0 c:/program files/microchip/xc32/v4.20/bin/bin/../../lib/gcc/pic32c/8.3.1/../../../../pic32c/lib/arm/v5te/nofp\libc-musl.a(__scan_u.o)
 .debug_frame   0x00000000       0x2c c:/program files/microchip/xc32/v4.20/bin/bin/../../lib/gcc/pic32c/8.3.1/../../../../pic32c/lib/arm/v5te/nofp\libc-musl.a(__scan_u.o)
 .ARM.attributes
                0x00000000       0x2d c:/program files/microchip/xc32/v4.20/bin/bin/../../lib/gcc/pic32c/8.3.1/../../../../pic32c/lib/arm/v5te/nofp\libc-musl.a(__scan_u.o)
 .text          0x00000000        0x0 c:/program files/microchip/xc32/v4.20/bin/bin/../../lib/gcc/pic32c/8.3.1/../../../../pic32c/lib/arm/v5te/nofp\libc-musl.a(__scan_x.o)
 .data          0x00000000        0x0 c:/program files/microchip/xc32/v4.20/bin/bin/../../lib/gcc/pic32c/8.3.1/../../../../pic32c/lib/arm/v5te/nofp\libc-musl.a(__scan_x.o)
 .bss           0x00000000        0x0 c:/program files/microchip/xc32/v4.20/bin/bin/../../lib/gcc/pic32c/8.3.1/../../../../pic32c/lib/arm/v5te/nofp\libc-musl.a(__scan_x.o)
 .xc_stack_usage
                0x00000000       0x16 c:/program files/microchip/xc32/v4.20/bin/bin/../../lib/gcc/pic32c/8.3.1/../../../../pic32c/lib/arm/v5te/nofp\libc-musl.a(__scan_x.o)
 .text.__scan_x
                0x00000000      0x164 c:/program files/microchip/xc32/v4.20/bin/bin/../../lib/gcc/pic32c/8.3.1/../../../../pic32c/lib/arm/v5te/nofp\libc-musl.a(__scan_x.o)
 .xc_stack_usage.hdr
                0x00000000        0xe c:/program files/microchip/xc32/v4.20/bin/bin/../../lib/gcc/pic32c/8.3.1/../../../../pic32c/lib/arm/v5te/nofp\libc-musl.a(__scan_x.o)
 .debug_info    0x00000000      0x84c c:/program files/microchip/xc32/v4.20/bin/bin/../../lib/gcc/pic32c/8.3.1/../../../../pic32c/lib/arm/v5te/nofp\libc-musl.a(__scan_x.o)
 .debug_abbrev  0x00000000      0x17a c:/program files/microchip/xc32/v4.20/bin/bin/../../lib/gcc/pic32c/8.3.1/../../../../pic32c/lib/arm/v5te/nofp\libc-musl.a(__scan_x.o)
 .debug_loc     0x00000000      0x18d c:/program files/microchip/xc32/v4.20/bin/bin/../../lib/gcc/pic32c/8.3.1/../../../../pic32c/lib/arm/v5te/nofp\libc-musl.a(__scan_x.o)
 .debug_aranges
                0x00000000       0x20 c:/program files/microchip/xc32/v4.20/bin/bin/../../lib/gcc/pic32c/8.3.1/../../../../pic32c/lib/arm/v5te/nofp\libc-musl.a(__scan_x.o)
 .debug_ranges  0x00000000       0x10 c:/program files/microchip/xc32/v4.20/bin/bin/../../lib/gcc/pic32c/8.3.1/../../../../pic32c/lib/arm/v5te/nofp\libc-musl.a(__scan_x.o)
 .debug_line    0x00000000      0x303 c:/program files/microchip/xc32/v4.20/bin/bin/../../lib/gcc/pic32c/8.3.1/../../../../pic32c/lib/arm/v5te/nofp\libc-musl.a(__scan_x.o)
 .debug_str     0x00000000       0x24 c:/program files/microchip/xc32/v4.20/bin/bin/../../lib/gcc/pic32c/8.3.1/../../../../pic32c/lib/arm/v5te/nofp\libc-musl.a(__scan_x.o)
 .comment       0x00000000       0x2c c:/program files/microchip/xc32/v4.20/bin/bin/../../lib/gcc/pic32c/8.3.1/../../../../pic32c/lib/arm/v5te/nofp\libc-musl.a(__scan_x.o)
 .note.GNU-stack
                0x00000000        0x0 c:/program files/microchip/xc32/v4.20/bin/bin/../../lib/gcc/pic32c/8.3.1/../../../../pic32c/lib/arm/v5te/nofp\libc-musl.a(__scan_x.o)
 .debug_frame   0x00000000       0x3c c:/program files/microchip/xc32/v4.20/bin/bin/../../lib/gcc/pic32c/8.3.1/../../../../pic32c/lib/arm/v5te/nofp\libc-musl.a(__scan_x.o)
 .ARM.attributes
                0x00000000       0x2d c:/program files/microchip/xc32/v4.20/bin/bin/../../lib/gcc/pic32c/8.3.1/../../../../pic32c/lib/arm/v5te/nofp\libc-musl.a(__scan_x.o)
 .text          0x00000000        0x0 c:/program files/microchip/xc32/v4.20/bin/bin/../../lib/gcc/pic32c/8.3.1/../../../../pic32c/lib/arm/v5te/nofp\libc-musl.a(__scanf_core.o)
 .data          0x00000000        0x0 c:/program files/microchip/xc32/v4.20/bin/bin/../../lib/gcc/pic32c/8.3.1/../../../../pic32c/lib/arm/v5te/nofp\libc-musl.a(__scanf_core.o)
 .bss           0x00000000        0x0 c:/program files/microchip/xc32/v4.20/bin/bin/../../lib/gcc/pic32c/8.3.1/../../../../pic32c/lib/arm/v5te/nofp\libc-musl.a(__scanf_core.o)
 .xc_stack_usage
                0x00000000       0x9d c:/program files/microchip/xc32/v4.20/bin/bin/../../lib/gcc/pic32c/8.3.1/../../../../pic32c/lib/arm/v5te/nofp\libc-musl.a(__scanf_core.o)
 .text.__skipws
                0x00000000       0x6c c:/program files/microchip/xc32/v4.20/bin/bin/../../lib/gcc/pic32c/8.3.1/../../../../pic32c/lib/arm/v5te/nofp\libc-musl.a(__scanf_core.o)
 .text.__consumews
                0x00000000       0x58 c:/program files/microchip/xc32/v4.20/bin/bin/../../lib/gcc/pic32c/8.3.1/../../../../pic32c/lib/arm/v5te/nofp\libc-musl.a(__scanf_core.o)
 .text.__dummy_scan
                0x00000000        0x8 c:/program files/microchip/xc32/v4.20/bin/bin/../../lib/gcc/pic32c/8.3.1/../../../../pic32c/lib/arm/v5te/nofp\libc-musl.a(__scanf_core.o)
 .text.__dummy_scan_s
                0x00000000        0x8 c:/program files/microchip/xc32/v4.20/bin/bin/../../lib/gcc/pic32c/8.3.1/../../../../pic32c/lib/arm/v5te/nofp\libc-musl.a(__scanf_core.o)
 .text.__scanf_core
                0x00000000      0x6ac c:/program files/microchip/xc32/v4.20/bin/bin/../../lib/gcc/pic32c/8.3.1/../../../../pic32c/lib/arm/v5te/nofp\libc-musl.a(__scanf_core.o)
 __xc_reference_data
                0x00000000        0x4 c:/program files/microchip/xc32/v4.20/bin/bin/../../lib/gcc/pic32c/8.3.1/../../../../pic32c/lib/arm/v5te/nofp\libc-musl.a(__scanf_core.o)
 .xc_stack_usage.hdr
                0x00000000        0xe c:/program files/microchip/xc32/v4.20/bin/bin/../../lib/gcc/pic32c/8.3.1/../../../../pic32c/lib/arm/v5te/nofp\libc-musl.a(__scanf_core.o)
 .debug_info    0x00000000      0xec9 c:/program files/microchip/xc32/v4.20/bin/bin/../../lib/gcc/pic32c/8.3.1/../../../../pic32c/lib/arm/v5te/nofp\libc-musl.a(__scanf_core.o)
 .debug_abbrev  0x00000000      0x2ce c:/program files/microchip/xc32/v4.20/bin/bin/../../lib/gcc/pic32c/8.3.1/../../../../pic32c/lib/arm/v5te/nofp\libc-musl.a(__scanf_core.o)
 .debug_loc     0x00000000      0x8eb c:/program files/microchip/xc32/v4.20/bin/bin/../../lib/gcc/pic32c/8.3.1/../../../../pic32c/lib/arm/v5te/nofp\libc-musl.a(__scanf_core.o)
 .debug_aranges
                0x00000000       0x48 c:/program files/microchip/xc32/v4.20/bin/bin/../../lib/gcc/pic32c/8.3.1/../../../../pic32c/lib/arm/v5te/nofp\libc-musl.a(__scanf_core.o)
 .debug_ranges  0x00000000       0x98 c:/program files/microchip/xc32/v4.20/bin/bin/../../lib/gcc/pic32c/8.3.1/../../../../pic32c/lib/arm/v5te/nofp\libc-musl.a(__scanf_core.o)
 .debug_line    0x00000000      0x724 c:/program files/microchip/xc32/v4.20/bin/bin/../../lib/gcc/pic32c/8.3.1/../../../../pic32c/lib/arm/v5te/nofp\libc-musl.a(__scanf_core.o)
 .debug_str     0x00000000       0x43 c:/program files/microchip/xc32/v4.20/bin/bin/../../lib/gcc/pic32c/8.3.1/../../../../pic32c/lib/arm/v5te/nofp\libc-musl.a(__scanf_core.o)
 .comment       0x00000000       0x2c c:/program files/microchip/xc32/v4.20/bin/bin/../../lib/gcc/pic32c/8.3.1/../../../../pic32c/lib/arm/v5te/nofp\libc-musl.a(__scanf_core.o)
 .note.GNU-stack
                0x00000000        0x0 c:/program files/microchip/xc32/v4.20/bin/bin/../../lib/gcc/pic32c/8.3.1/../../../../pic32c/lib/arm/v5te/nofp\libc-musl.a(__scanf_core.o)
 .debug_frame   0x00000000       0xa8 c:/program files/microchip/xc32/v4.20/bin/bin/../../lib/gcc/pic32c/8.3.1/../../../../pic32c/lib/arm/v5te/nofp\libc-musl.a(__scanf_core.o)
 .ARM.attributes
                0x00000000       0x2d c:/program files/microchip/xc32/v4.20/bin/bin/../../lib/gcc/pic32c/8.3.1/../../../../pic32c/lib/arm/v5te/nofp\libc-musl.a(__scanf_core.o)
 .text          0x00000000        0x0 c:/program files/microchip/xc32/v4.20/bin/bin/../../lib/gcc/pic32c/8.3.1/../../../../pic32c/lib/arm/v5te/nofp\libc-musl.a(stdout.o)
 .data          0x00000000       0x20 c:/program files/microchip/xc32/v4.20/bin/bin/../../lib/gcc/pic32c/8.3.1/../../../../pic32c/lib/arm/v5te/nofp\libc-musl.a(stdout.o)
 .xc_stack_usage
                0x00000000       0x51 c:/program files/microchip/xc32/v4.20/bin/bin/../../lib/gcc/pic32c/8.3.1/../../../../pic32c/lib/arm/v5te/nofp\libc-musl.a(stdout.o)
 .text.__dummy  0x00000000        0xc c:/program files/microchip/xc32/v4.20/bin/bin/../../lib/gcc/pic32c/8.3.1/../../../../pic32c/lib/arm/v5te/nofp\libc-musl.a(stdout.o)
 .xc_stack_usage.hdr
                0x00000000        0xe c:/program files/microchip/xc32/v4.20/bin/bin/../../lib/gcc/pic32c/8.3.1/../../../../pic32c/lib/arm/v5te/nofp\libc-musl.a(stdout.o)
 .text          0x00000000        0x0 c:/program files/microchip/xc32/v4.20/bin/bin/../../lib/gcc/pic32c/8.3.1/../../../../pic32c/lib/arm/v5te/nofp\libc-musl.a(putchar.o)
 .data          0x00000000        0x0 c:/program files/microchip/xc32/v4.20/bin/bin/../../lib/gcc/pic32c/8.3.1/../../../../pic32c/lib/arm/v5te/nofp\libc-musl.a(putchar.o)
 .bss           0x00000000        0x0 c:/program files/microchip/xc32/v4.20/bin/bin/../../lib/gcc/pic32c/8.3.1/../../../../pic32c/lib/arm/v5te/nofp\libc-musl.a(putchar.o)
 .xc_stack_usage
                0x00000000       0x15 c:/program files/microchip/xc32/v4.20/bin/bin/../../lib/gcc/pic32c/8.3.1/../../../../pic32c/lib/arm/v5te/nofp\libc-musl.a(putchar.o)
 .text.putchar  0x00000000       0x14 c:/program files/microchip/xc32/v4.20/bin/bin/../../lib/gcc/pic32c/8.3.1/../../../../pic32c/lib/arm/v5te/nofp\libc-musl.a(putchar.o)
 .xc_stack_usage.hdr
                0x00000000        0xe c:/program files/microchip/xc32/v4.20/bin/bin/../../lib/gcc/pic32c/8.3.1/../../../../pic32c/lib/arm/v5te/nofp\libc-musl.a(putchar.o)
 .debug_info    0x00000000      0x2c6 c:/program files/microchip/xc32/v4.20/bin/bin/../../lib/gcc/pic32c/8.3.1/../../../../pic32c/lib/arm/v5te/nofp\libc-musl.a(putchar.o)
 .debug_abbrev  0x00000000       0xbc c:/program files/microchip/xc32/v4.20/bin/bin/../../lib/gcc/pic32c/8.3.1/../../../../pic32c/lib/arm/v5te/nofp\libc-musl.a(putchar.o)
 .debug_loc     0x00000000       0x25 c:/program files/microchip/xc32/v4.20/bin/bin/../../lib/gcc/pic32c/8.3.1/../../../../pic32c/lib/arm/v5te/nofp\libc-musl.a(putchar.o)
 .debug_aranges
                0x00000000       0x20 c:/program files/microchip/xc32/v4.20/bin/bin/../../lib/gcc/pic32c/8.3.1/../../../../pic32c/lib/arm/v5te/nofp\libc-musl.a(putchar.o)
 .debug_ranges  0x00000000       0x10 c:/program files/microchip/xc32/v4.20/bin/bin/../../lib/gcc/pic32c/8.3.1/../../../../pic32c/lib/arm/v5te/nofp\libc-musl.a(putchar.o)
 .debug_line    0x00000000      0x13b c:/program files/microchip/xc32/v4.20/bin/bin/../../lib/gcc/pic32c/8.3.1/../../../../pic32c/lib/arm/v5te/nofp\libc-musl.a(putchar.o)
 .debug_str     0x00000000        0x0 c:/program files/microchip/xc32/v4.20/bin/bin/../../lib/gcc/pic32c/8.3.1/../../../../pic32c/lib/arm/v5te/nofp\libc-musl.a(putchar.o)
 .comment       0x00000000       0x2c c:/program files/microchip/xc32/v4.20/bin/bin/../../lib/gcc/pic32c/8.3.1/../../../../pic32c/lib/arm/v5te/nofp\libc-musl.a(putchar.o)
 .note.GNU-stack
                0x00000000        0x0 c:/program files/microchip/xc32/v4.20/bin/bin/../../lib/gcc/pic32c/8.3.1/../../../../pic32c/lib/arm/v5te/nofp\libc-musl.a(putchar.o)
 .debug_frame   0x00000000       0x20 c:/program files/microchip/xc32/v4.20/bin/bin/../../lib/gcc/pic32c/8.3.1/../../../../pic32c/lib/arm/v5te/nofp\libc-musl.a(putchar.o)
 .ARM.attributes
                0x00000000       0x2d c:/program files/microchip/xc32/v4.20/bin/bin/../../lib/gcc/pic32c/8.3.1/../../../../pic32c/lib/arm/v5te/nofp\libc-musl.a(putchar.o)
 .text          0x00000000        0x0 c:/program files/microchip/xc32/v4.20/bin/bin/../../lib/gcc/pic32c/8.3.1/../../../../pic32c/lib/arm/v5te/nofp\libc-musl.a(puts.o)
 .data          0x00000000        0x0 c:/program files/microchip/xc32/v4.20/bin/bin/../../lib/gcc/pic32c/8.3.1/../../../../pic32c/lib/arm/v5te/nofp\libc-musl.a(puts.o)
 .bss           0x00000000        0x0 c:/program files/microchip/xc32/v4.20/bin/bin/../../lib/gcc/pic32c/8.3.1/../../../../pic32c/lib/arm/v5te/nofp\libc-musl.a(puts.o)
 .xc_stack_usage
                0x00000000       0x12 c:/program files/microchip/xc32/v4.20/bin/bin/../../lib/gcc/pic32c/8.3.1/../../../../pic32c/lib/arm/v5te/nofp\libc-musl.a(puts.o)
 .text.puts     0x00000000       0x40 c:/program files/microchip/xc32/v4.20/bin/bin/../../lib/gcc/pic32c/8.3.1/../../../../pic32c/lib/arm/v5te/nofp\libc-musl.a(puts.o)
 .xc_stack_usage.hdr
                0x00000000        0xe c:/program files/microchip/xc32/v4.20/bin/bin/../../lib/gcc/pic32c/8.3.1/../../../../pic32c/lib/arm/v5te/nofp\libc-musl.a(puts.o)
 .debug_info    0x00000000      0x633 c:/program files/microchip/xc32/v4.20/bin/bin/../../lib/gcc/pic32c/8.3.1/../../../../pic32c/lib/arm/v5te/nofp\libc-musl.a(puts.o)
 .debug_abbrev  0x00000000      0x151 c:/program files/microchip/xc32/v4.20/bin/bin/../../lib/gcc/pic32c/8.3.1/../../../../pic32c/lib/arm/v5te/nofp\libc-musl.a(puts.o)
 .debug_loc     0x00000000       0x6a c:/program files/microchip/xc32/v4.20/bin/bin/../../lib/gcc/pic32c/8.3.1/../../../../pic32c/lib/arm/v5te/nofp\libc-musl.a(puts.o)
 .debug_aranges
                0x00000000       0x20 c:/program files/microchip/xc32/v4.20/bin/bin/../../lib/gcc/pic32c/8.3.1/../../../../pic32c/lib/arm/v5te/nofp\libc-musl.a(puts.o)
 .debug_ranges  0x00000000       0x10 c:/program files/microchip/xc32/v4.20/bin/bin/../../lib/gcc/pic32c/8.3.1/../../../../pic32c/lib/arm/v5te/nofp\libc-musl.a(puts.o)
 .debug_line    0x00000000      0x1d6 c:/program files/microchip/xc32/v4.20/bin/bin/../../lib/gcc/pic32c/8.3.1/../../../../pic32c/lib/arm/v5te/nofp\libc-musl.a(puts.o)
 .debug_str     0x00000000        0xe c:/program files/microchip/xc32/v4.20/bin/bin/../../lib/gcc/pic32c/8.3.1/../../../../pic32c/lib/arm/v5te/nofp\libc-musl.a(puts.o)
 .comment       0x00000000       0x2c c:/program files/microchip/xc32/v4.20/bin/bin/../../lib/gcc/pic32c/8.3.1/../../../../pic32c/lib/arm/v5te/nofp\libc-musl.a(puts.o)
 .note.GNU-stack
                0x00000000        0x0 c:/program files/microchip/xc32/v4.20/bin/bin/../../lib/gcc/pic32c/8.3.1/../../../../pic32c/lib/arm/v5te/nofp\libc-musl.a(puts.o)
 .debug_frame   0x00000000       0x28 c:/program files/microchip/xc32/v4.20/bin/bin/../../lib/gcc/pic32c/8.3.1/../../../../pic32c/lib/arm/v5te/nofp\libc-musl.a(puts.o)
 .ARM.attributes
                0x00000000       0x2d c:/program files/microchip/xc32/v4.20/bin/bin/../../lib/gcc/pic32c/8.3.1/../../../../pic32c/lib/arm/v5te/nofp\libc-musl.a(puts.o)
 .text          0x00000000        0x0 c:/program files/microchip/xc32/v4.20/bin/bin/../../lib/gcc/pic32c/8.3.1/../../../../pic32c/lib/arm/v5te/nofp\libc-musl.a(atoi.o)
 .data          0x00000000        0x0 c:/program files/microchip/xc32/v4.20/bin/bin/../../lib/gcc/pic32c/8.3.1/../../../../pic32c/lib/arm/v5te/nofp\libc-musl.a(atoi.o)
 .bss           0x00000000        0x0 c:/program files/microchip/xc32/v4.20/bin/bin/../../lib/gcc/pic32c/8.3.1/../../../../pic32c/lib/arm/v5te/nofp\libc-musl.a(atoi.o)
 .xc_stack_usage
                0x00000000       0x12 c:/program files/microchip/xc32/v4.20/bin/bin/../../lib/gcc/pic32c/8.3.1/../../../../pic32c/lib/arm/v5te/nofp\libc-musl.a(atoi.o)
 .xc_stack_usage.hdr
                0x00000000        0xe c:/program files/microchip/xc32/v4.20/bin/bin/../../lib/gcc/pic32c/8.3.1/../../../../pic32c/lib/arm/v5te/nofp\libc-musl.a(atoi.o)
 .text          0x00000000        0x0 c:/program files/microchip/xc32/v4.20/bin/bin/../../lib/gcc/pic32c/8.3.1/../../../../pic32c/lib/arm/v5te/nofp\libc-musl.a(strtol.o)
 .data          0x00000000        0x0 c:/program files/microchip/xc32/v4.20/bin/bin/../../lib/gcc/pic32c/8.3.1/../../../../pic32c/lib/arm/v5te/nofp\libc-musl.a(strtol.o)
 .bss           0x00000000        0x0 c:/program files/microchip/xc32/v4.20/bin/bin/../../lib/gcc/pic32c/8.3.1/../../../../pic32c/lib/arm/v5te/nofp\libc-musl.a(strtol.o)
 .xc_stack_usage
                0x00000000       0x96 c:/program files/microchip/xc32/v4.20/bin/bin/../../lib/gcc/pic32c/8.3.1/../../../../pic32c/lib/arm/v5te/nofp\libc-musl.a(strtol.o)
 .text.strtox   0x00000000       0x84 c:/program files/microchip/xc32/v4.20/bin/bin/../../lib/gcc/pic32c/8.3.1/../../../../pic32c/lib/arm/v5te/nofp\libc-musl.a(strtol.o)
 .text.strtoull
                0x00000000       0x1c c:/program files/microchip/xc32/v4.20/bin/bin/../../lib/gcc/pic32c/8.3.1/../../../../pic32c/lib/arm/v5te/nofp\libc-musl.a(strtol.o)
 .text.strtoll  0x00000000       0x1c c:/program files/microchip/xc32/v4.20/bin/bin/../../lib/gcc/pic32c/8.3.1/../../../../pic32c/lib/arm/v5te/nofp\libc-musl.a(strtol.o)
 .text.strtoul  0x00000000       0x1c c:/program files/microchip/xc32/v4.20/bin/bin/../../lib/gcc/pic32c/8.3.1/../../../../pic32c/lib/arm/v5te/nofp\libc-musl.a(strtol.o)
 .text.strtol   0x00000000       0x1c c:/program files/microchip/xc32/v4.20/bin/bin/../../lib/gcc/pic32c/8.3.1/../../../../pic32c/lib/arm/v5te/nofp\libc-musl.a(strtol.o)
 .text.strtoimax
                0x00000000        0x4 c:/program files/microchip/xc32/v4.20/bin/bin/../../lib/gcc/pic32c/8.3.1/../../../../pic32c/lib/arm/v5te/nofp\libc-musl.a(strtol.o)
 .text.strtoumax
                0x00000000        0x4 c:/program files/microchip/xc32/v4.20/bin/bin/../../lib/gcc/pic32c/8.3.1/../../../../pic32c/lib/arm/v5te/nofp\libc-musl.a(strtol.o)
 .xc_stack_usage.hdr
                0x00000000        0xe c:/program files/microchip/xc32/v4.20/bin/bin/../../lib/gcc/pic32c/8.3.1/../../../../pic32c/lib/arm/v5te/nofp\libc-musl.a(strtol.o)
 .debug_info    0x00000000      0x9df c:/program files/microchip/xc32/v4.20/bin/bin/../../lib/gcc/pic32c/8.3.1/../../../../pic32c/lib/arm/v5te/nofp\libc-musl.a(strtol.o)
 .debug_abbrev  0x00000000      0x1c7 c:/program files/microchip/xc32/v4.20/bin/bin/../../lib/gcc/pic32c/8.3.1/../../../../pic32c/lib/arm/v5te/nofp\libc-musl.a(strtol.o)
 .debug_loc     0x00000000      0x440 c:/program files/microchip/xc32/v4.20/bin/bin/../../lib/gcc/pic32c/8.3.1/../../../../pic32c/lib/arm/v5te/nofp\libc-musl.a(strtol.o)
 .debug_aranges
                0x00000000       0x50 c:/program files/microchip/xc32/v4.20/bin/bin/../../lib/gcc/pic32c/8.3.1/../../../../pic32c/lib/arm/v5te/nofp\libc-musl.a(strtol.o)
 .debug_ranges  0x00000000       0x40 c:/program files/microchip/xc32/v4.20/bin/bin/../../lib/gcc/pic32c/8.3.1/../../../../pic32c/lib/arm/v5te/nofp\libc-musl.a(strtol.o)
 .debug_line    0x00000000      0x2e4 c:/program files/microchip/xc32/v4.20/bin/bin/../../lib/gcc/pic32c/8.3.1/../../../../pic32c/lib/arm/v5te/nofp\libc-musl.a(strtol.o)
 .debug_str     0x00000000        0xf c:/program files/microchip/xc32/v4.20/bin/bin/../../lib/gcc/pic32c/8.3.1/../../../../pic32c/lib/arm/v5te/nofp\libc-musl.a(strtol.o)
 .comment       0x00000000       0x2c c:/program files/microchip/xc32/v4.20/bin/bin/../../lib/gcc/pic32c/8.3.1/../../../../pic32c/lib/arm/v5te/nofp\libc-musl.a(strtol.o)
 .note.GNU-stack
                0x00000000        0x0 c:/program files/microchip/xc32/v4.20/bin/bin/../../lib/gcc/pic32c/8.3.1/../../../../pic32c/lib/arm/v5te/nofp\libc-musl.a(strtol.o)
 .debug_frame   0x00000000       0xc4 c:/program files/microchip/xc32/v4.20/bin/bin/../../lib/gcc/pic32c/8.3.1/../../../../pic32c/lib/arm/v5te/nofp\libc-musl.a(strtol.o)
 .ARM.attributes
                0x00000000       0x2d c:/program files/microchip/xc32/v4.20/bin/bin/../../lib/gcc/pic32c/8.3.1/../../../../pic32c/lib/arm/v5te/nofp\libc-musl.a(strtol.o)
 .text          0x00000000        0x0 c:/program files/microchip/xc32/v4.20/bin/bin/../../lib/gcc/pic32c/8.3.1/../../../../pic32c/lib/arm/v5te/nofp\libc-musl.a(memcpy.o)
 .data          0x00000000        0x0 c:/program files/microchip/xc32/v4.20/bin/bin/../../lib/gcc/pic32c/8.3.1/../../../../pic32c/lib/arm/v5te/nofp\libc-musl.a(memcpy.o)
 .bss           0x00000000        0x0 c:/program files/microchip/xc32/v4.20/bin/bin/../../lib/gcc/pic32c/8.3.1/../../../../pic32c/lib/arm/v5te/nofp\libc-musl.a(memcpy.o)
 .xc_stack_usage
                0x00000000       0x14 c:/program files/microchip/xc32/v4.20/bin/bin/../../lib/gcc/pic32c/8.3.1/../../../../pic32c/lib/arm/v5te/nofp\libc-musl.a(memcpy.o)
 .xc_stack_usage.hdr
                0x00000000        0xe c:/program files/microchip/xc32/v4.20/bin/bin/../../lib/gcc/pic32c/8.3.1/../../../../pic32c/lib/arm/v5te/nofp\libc-musl.a(memcpy.o)
 .text          0x00000000        0x0 c:/program files/microchip/xc32/v4.20/bin/bin/../../lib/gcc/pic32c/8.3.1/../../../../pic32c/lib/arm/v5te/nofp\libc-musl.a(memset.o)
 .data          0x00000000        0x0 c:/program files/microchip/xc32/v4.20/bin/bin/../../lib/gcc/pic32c/8.3.1/../../../../pic32c/lib/arm/v5te/nofp\libc-musl.a(memset.o)
 .bss           0x00000000        0x0 c:/program files/microchip/xc32/v4.20/bin/bin/../../lib/gcc/pic32c/8.3.1/../../../../pic32c/lib/arm/v5te/nofp\libc-musl.a(memset.o)
 .xc_stack_usage
                0x00000000       0x14 c:/program files/microchip/xc32/v4.20/bin/bin/../../lib/gcc/pic32c/8.3.1/../../../../pic32c/lib/arm/v5te/nofp\libc-musl.a(memset.o)
 .xc_stack_usage.hdr
                0x00000000        0xe c:/program files/microchip/xc32/v4.20/bin/bin/../../lib/gcc/pic32c/8.3.1/../../../../pic32c/lib/arm/v5te/nofp\libc-musl.a(memset.o)
 .text          0x00000000        0x0 c:/program files/microchip/xc32/v4.20/bin/bin/../../lib/gcc/pic32c/8.3.1/../../../../pic32c/lib/arm/v5te/nofp\libc-musl.a(strlen.o)
 .data          0x00000000        0x0 c:/program files/microchip/xc32/v4.20/bin/bin/../../lib/gcc/pic32c/8.3.1/../../../../pic32c/lib/arm/v5te/nofp\libc-musl.a(strlen.o)
 .bss           0x00000000        0x0 c:/program files/microchip/xc32/v4.20/bin/bin/../../lib/gcc/pic32c/8.3.1/../../../../pic32c/lib/arm/v5te/nofp\libc-musl.a(strlen.o)
 .xc_stack_usage
                0x00000000       0x14 c:/program files/microchip/xc32/v4.20/bin/bin/../../lib/gcc/pic32c/8.3.1/../../../../pic32c/lib/arm/v5te/nofp\libc-musl.a(strlen.o)
 .xc_stack_usage.hdr
                0x00000000        0xe c:/program files/microchip/xc32/v4.20/bin/bin/../../lib/gcc/pic32c/8.3.1/../../../../pic32c/lib/arm/v5te/nofp\libc-musl.a(strlen.o)
 .text          0x00000000        0x0 c:/program files/microchip/xc32/v4.20/bin/bin/../../lib/gcc/pic32c/8.3.1/../../../../pic32c/lib/arm/v5te/nofp\libc-musl.a(strcmp.o)
 .data          0x00000000        0x0 c:/program files/microchip/xc32/v4.20/bin/bin/../../lib/gcc/pic32c/8.3.1/../../../../pic32c/lib/arm/v5te/nofp\libc-musl.a(strcmp.o)
 .bss           0x00000000        0x0 c:/program files/microchip/xc32/v4.20/bin/bin/../../lib/gcc/pic32c/8.3.1/../../../../pic32c/lib/arm/v5te/nofp\libc-musl.a(strcmp.o)
 .xc_stack_usage
                0x00000000       0x14 c:/program files/microchip/xc32/v4.20/bin/bin/../../lib/gcc/pic32c/8.3.1/../../../../pic32c/lib/arm/v5te/nofp\libc-musl.a(strcmp.o)
 .text.strcmp   0x00000000       0x28 c:/program files/microchip/xc32/v4.20/bin/bin/../../lib/gcc/pic32c/8.3.1/../../../../pic32c/lib/arm/v5te/nofp\libc-musl.a(strcmp.o)
 .xc_stack_usage.hdr
                0x00000000        0xe c:/program files/microchip/xc32/v4.20/bin/bin/../../lib/gcc/pic32c/8.3.1/../../../../pic32c/lib/arm/v5te/nofp\libc-musl.a(strcmp.o)
 .debug_info    0x00000000      0x276 c:/program files/microchip/xc32/v4.20/bin/bin/../../lib/gcc/pic32c/8.3.1/../../../../pic32c/lib/arm/v5te/nofp\libc-musl.a(strcmp.o)
 .debug_abbrev  0x00000000       0x63 c:/program files/microchip/xc32/v4.20/bin/bin/../../lib/gcc/pic32c/8.3.1/../../../../pic32c/lib/arm/v5te/nofp\libc-musl.a(strcmp.o)
 .debug_loc     0x00000000       0x76 c:/program files/microchip/xc32/v4.20/bin/bin/../../lib/gcc/pic32c/8.3.1/../../../../pic32c/lib/arm/v5te/nofp\libc-musl.a(strcmp.o)
 .debug_aranges
                0x00000000       0x20 c:/program files/microchip/xc32/v4.20/bin/bin/../../lib/gcc/pic32c/8.3.1/../../../../pic32c/lib/arm/v5te/nofp\libc-musl.a(strcmp.o)
 .debug_ranges  0x00000000       0x10 c:/program files/microchip/xc32/v4.20/bin/bin/../../lib/gcc/pic32c/8.3.1/../../../../pic32c/lib/arm/v5te/nofp\libc-musl.a(strcmp.o)
 .debug_line    0x00000000       0xbb c:/program files/microchip/xc32/v4.20/bin/bin/../../lib/gcc/pic32c/8.3.1/../../../../pic32c/lib/arm/v5te/nofp\libc-musl.a(strcmp.o)
 .debug_str     0x00000000        0x0 c:/program files/microchip/xc32/v4.20/bin/bin/../../lib/gcc/pic32c/8.3.1/../../../../pic32c/lib/arm/v5te/nofp\libc-musl.a(strcmp.o)
 .comment       0x00000000       0x2c c:/program files/microchip/xc32/v4.20/bin/bin/../../lib/gcc/pic32c/8.3.1/../../../../pic32c/lib/arm/v5te/nofp\libc-musl.a(strcmp.o)
 .note.GNU-stack
                0x00000000        0x0 c:/program files/microchip/xc32/v4.20/bin/bin/../../lib/gcc/pic32c/8.3.1/../../../../pic32c/lib/arm/v5te/nofp\libc-musl.a(strcmp.o)
 .debug_frame   0x00000000       0x20 c:/program files/microchip/xc32/v4.20/bin/bin/../../lib/gcc/pic32c/8.3.1/../../../../pic32c/lib/arm/v5te/nofp\libc-musl.a(strcmp.o)
 .ARM.attributes
                0x00000000       0x2d c:/program files/microchip/xc32/v4.20/bin/bin/../../lib/gcc/pic32c/8.3.1/../../../../pic32c/lib/arm/v5te/nofp\libc-musl.a(strcmp.o)
 .text          0x00000000        0x0 c:/program files/microchip/xc32/v4.20/bin/bin/../../lib/gcc/pic32c/8.3.1/../../../../pic32c/lib/arm/v5te/nofp\libc-musl.a(strncmp.o)
 .data          0x00000000        0x0 c:/program files/microchip/xc32/v4.20/bin/bin/../../lib/gcc/pic32c/8.3.1/../../../../pic32c/lib/arm/v5te/nofp\libc-musl.a(strncmp.o)
 .bss           0x00000000        0x0 c:/program files/microchip/xc32/v4.20/bin/bin/../../lib/gcc/pic32c/8.3.1/../../../../pic32c/lib/arm/v5te/nofp\libc-musl.a(strncmp.o)
 .xc_stack_usage
                0x00000000       0x15 c:/program files/microchip/xc32/v4.20/bin/bin/../../lib/gcc/pic32c/8.3.1/../../../../pic32c/lib/arm/v5te/nofp\libc-musl.a(strncmp.o)
 .text.strncmp  0x00000000       0x64 c:/program files/microchip/xc32/v4.20/bin/bin/../../lib/gcc/pic32c/8.3.1/../../../../pic32c/lib/arm/v5te/nofp\libc-musl.a(strncmp.o)
 .xc_stack_usage.hdr
                0x00000000        0xe c:/program files/microchip/xc32/v4.20/bin/bin/../../lib/gcc/pic32c/8.3.1/../../../../pic32c/lib/arm/v5te/nofp\libc-musl.a(strncmp.o)
 .debug_info    0x00000000      0x2dc c:/program files/microchip/xc32/v4.20/bin/bin/../../lib/gcc/pic32c/8.3.1/../../../../pic32c/lib/arm/v5te/nofp\libc-musl.a(strncmp.o)
 .debug_abbrev  0x00000000       0x86 c:/program files/microchip/xc32/v4.20/bin/bin/../../lib/gcc/pic32c/8.3.1/../../../../pic32c/lib/arm/v5te/nofp\libc-musl.a(strncmp.o)
 .debug_loc     0x00000000      0x19f c:/program files/microchip/xc32/v4.20/bin/bin/../../lib/gcc/pic32c/8.3.1/../../../../pic32c/lib/arm/v5te/nofp\libc-musl.a(strncmp.o)
 .debug_aranges
                0x00000000       0x20 c:/program files/microchip/xc32/v4.20/bin/bin/../../lib/gcc/pic32c/8.3.1/../../../../pic32c/lib/arm/v5te/nofp\libc-musl.a(strncmp.o)
 .debug_ranges  0x00000000       0x10 c:/program files/microchip/xc32/v4.20/bin/bin/../../lib/gcc/pic32c/8.3.1/../../../../pic32c/lib/arm/v5te/nofp\libc-musl.a(strncmp.o)
 .debug_line    0x00000000       0xf1 c:/program files/microchip/xc32/v4.20/bin/bin/../../lib/gcc/pic32c/8.3.1/../../../../pic32c/lib/arm/v5te/nofp\libc-musl.a(strncmp.o)
 .debug_str     0x00000000        0x0 c:/program files/microchip/xc32/v4.20/bin/bin/../../lib/gcc/pic32c/8.3.1/../../../../pic32c/lib/arm/v5te/nofp\libc-musl.a(strncmp.o)
 .comment       0x00000000       0x2c c:/program files/microchip/xc32/v4.20/bin/bin/../../lib/gcc/pic32c/8.3.1/../../../../pic32c/lib/arm/v5te/nofp\libc-musl.a(strncmp.o)
 .note.GNU-stack
                0x00000000        0x0 c:/program files/microchip/xc32/v4.20/bin/bin/../../lib/gcc/pic32c/8.3.1/../../../../pic32c/lib/arm/v5te/nofp\libc-musl.a(strncmp.o)
 .debug_frame   0x00000000       0x2c c:/program files/microchip/xc32/v4.20/bin/bin/../../lib/gcc/pic32c/8.3.1/../../../../pic32c/lib/arm/v5te/nofp\libc-musl.a(strncmp.o)
 .ARM.attributes
                0x00000000       0x2d c:/program files/microchip/xc32/v4.20/bin/bin/../../lib/gcc/pic32c/8.3.1/../../../../pic32c/lib/arm/v5te/nofp\libc-musl.a(strncmp.o)
 .text          0x00000000        0x0 c:/program files/microchip/xc32/v4.20/bin/bin/../../lib/gcc/pic32c/8.3.1/../../../../pic32c/lib/arm/v5te/nofp\libc-musl.a(strrchr.o)
 .data          0x00000000        0x0 c:/program files/microchip/xc32/v4.20/bin/bin/../../lib/gcc/pic32c/8.3.1/../../../../pic32c/lib/arm/v5te/nofp\libc-musl.a(strrchr.o)
 .bss           0x00000000        0x0 c:/program files/microchip/xc32/v4.20/bin/bin/../../lib/gcc/pic32c/8.3.1/../../../../pic32c/lib/arm/v5te/nofp\libc-musl.a(strrchr.o)
 .xc_stack_usage
                0x00000000       0x15 c:/program files/microchip/xc32/v4.20/bin/bin/../../lib/gcc/pic32c/8.3.1/../../../../pic32c/lib/arm/v5te/nofp\libc-musl.a(strrchr.o)
 .text.strrchr  0x00000000       0x24 c:/program files/microchip/xc32/v4.20/bin/bin/../../lib/gcc/pic32c/8.3.1/../../../../pic32c/lib/arm/v5te/nofp\libc-musl.a(strrchr.o)
 .xc_stack_usage.hdr
                0x00000000        0xe c:/program files/microchip/xc32/v4.20/bin/bin/../../lib/gcc/pic32c/8.3.1/../../../../pic32c/lib/arm/v5te/nofp\libc-musl.a(strrchr.o)
 .debug_info    0x00000000      0x2ce c:/program files/microchip/xc32/v4.20/bin/bin/../../lib/gcc/pic32c/8.3.1/../../../../pic32c/lib/arm/v5te/nofp\libc-musl.a(strrchr.o)
 .debug_abbrev  0x00000000       0xb2 c:/program files/microchip/xc32/v4.20/bin/bin/../../lib/gcc/pic32c/8.3.1/../../../../pic32c/lib/arm/v5te/nofp\libc-musl.a(strrchr.o)
 .debug_loc     0x00000000       0xaa c:/program files/microchip/xc32/v4.20/bin/bin/../../lib/gcc/pic32c/8.3.1/../../../../pic32c/lib/arm/v5te/nofp\libc-musl.a(strrchr.o)
 .debug_aranges
                0x00000000       0x20 c:/program files/microchip/xc32/v4.20/bin/bin/../../lib/gcc/pic32c/8.3.1/../../../../pic32c/lib/arm/v5te/nofp\libc-musl.a(strrchr.o)
 .debug_ranges  0x00000000       0x10 c:/program files/microchip/xc32/v4.20/bin/bin/../../lib/gcc/pic32c/8.3.1/../../../../pic32c/lib/arm/v5te/nofp\libc-musl.a(strrchr.o)
 .debug_line    0x00000000      0x129 c:/program files/microchip/xc32/v4.20/bin/bin/../../lib/gcc/pic32c/8.3.1/../../../../pic32c/lib/arm/v5te/nofp\libc-musl.a(strrchr.o)
 .debug_str     0x00000000        0xa c:/program files/microchip/xc32/v4.20/bin/bin/../../lib/gcc/pic32c/8.3.1/../../../../pic32c/lib/arm/v5te/nofp\libc-musl.a(strrchr.o)
 .comment       0x00000000       0x2c c:/program files/microchip/xc32/v4.20/bin/bin/../../lib/gcc/pic32c/8.3.1/../../../../pic32c/lib/arm/v5te/nofp\libc-musl.a(strrchr.o)
 .note.GNU-stack
                0x00000000        0x0 c:/program files/microchip/xc32/v4.20/bin/bin/../../lib/gcc/pic32c/8.3.1/../../../../pic32c/lib/arm/v5te/nofp\libc-musl.a(strrchr.o)
 .debug_frame   0x00000000       0x34 c:/program files/microchip/xc32/v4.20/bin/bin/../../lib/gcc/pic32c/8.3.1/../../../../pic32c/lib/arm/v5te/nofp\libc-musl.a(strrchr.o)
 .ARM.attributes
                0x00000000       0x2d c:/program files/microchip/xc32/v4.20/bin/bin/../../lib/gcc/pic32c/8.3.1/../../../../pic32c/lib/arm/v5te/nofp\libc-musl.a(strrchr.o)
 .text          0x00000000        0x0 c:/program files/microchip/xc32/v4.20/bin/bin/../../lib/gcc/pic32c/8.3.1/../../../../pic32c/lib/arm/v5te/nofp\libc-musl.a(strtok.o)
 .data          0x00000000        0x0 c:/program files/microchip/xc32/v4.20/bin/bin/../../lib/gcc/pic32c/8.3.1/../../../../pic32c/lib/arm/v5te/nofp\libc-musl.a(strtok.o)
 .bss           0x00000000        0x4 c:/program files/microchip/xc32/v4.20/bin/bin/../../lib/gcc/pic32c/8.3.1/../../../../pic32c/lib/arm/v5te/nofp\libc-musl.a(strtok.o)
 .xc_stack_usage
                0x00000000       0x14 c:/program files/microchip/xc32/v4.20/bin/bin/../../lib/gcc/pic32c/8.3.1/../../../../pic32c/lib/arm/v5te/nofp\libc-musl.a(strtok.o)
 .text.strtok   0x00000000       0x7c c:/program files/microchip/xc32/v4.20/bin/bin/../../lib/gcc/pic32c/8.3.1/../../../../pic32c/lib/arm/v5te/nofp\libc-musl.a(strtok.o)
 .xc_stack_usage.hdr
                0x00000000        0xe c:/program files/microchip/xc32/v4.20/bin/bin/../../lib/gcc/pic32c/8.3.1/../../../../pic32c/lib/arm/v5te/nofp\libc-musl.a(strtok.o)
 .debug_info    0x00000000      0x2e2 c:/program files/microchip/xc32/v4.20/bin/bin/../../lib/gcc/pic32c/8.3.1/../../../../pic32c/lib/arm/v5te/nofp\libc-musl.a(strtok.o)
 .debug_abbrev  0x00000000       0xac c:/program files/microchip/xc32/v4.20/bin/bin/../../lib/gcc/pic32c/8.3.1/../../../../pic32c/lib/arm/v5te/nofp\libc-musl.a(strtok.o)
 .debug_loc     0x00000000       0x64 c:/program files/microchip/xc32/v4.20/bin/bin/../../lib/gcc/pic32c/8.3.1/../../../../pic32c/lib/arm/v5te/nofp\libc-musl.a(strtok.o)
 .debug_aranges
                0x00000000       0x20 c:/program files/microchip/xc32/v4.20/bin/bin/../../lib/gcc/pic32c/8.3.1/../../../../pic32c/lib/arm/v5te/nofp\libc-musl.a(strtok.o)
 .debug_ranges  0x00000000       0x10 c:/program files/microchip/xc32/v4.20/bin/bin/../../lib/gcc/pic32c/8.3.1/../../../../pic32c/lib/arm/v5te/nofp\libc-musl.a(strtok.o)
 .debug_line    0x00000000      0x16f c:/program files/microchip/xc32/v4.20/bin/bin/../../lib/gcc/pic32c/8.3.1/../../../../pic32c/lib/arm/v5te/nofp\libc-musl.a(strtok.o)
 .debug_str     0x00000000        0x0 c:/program files/microchip/xc32/v4.20/bin/bin/../../lib/gcc/pic32c/8.3.1/../../../../pic32c/lib/arm/v5te/nofp\libc-musl.a(strtok.o)
 .comment       0x00000000       0x2c c:/program files/microchip/xc32/v4.20/bin/bin/../../lib/gcc/pic32c/8.3.1/../../../../pic32c/lib/arm/v5te/nofp\libc-musl.a(strtok.o)
 .note.GNU-stack
                0x00000000        0x0 c:/program files/microchip/xc32/v4.20/bin/bin/../../lib/gcc/pic32c/8.3.1/../../../../pic32c/lib/arm/v5te/nofp\libc-musl.a(strtok.o)
 .debug_frame   0x00000000       0x2c c:/program files/microchip/xc32/v4.20/bin/bin/../../lib/gcc/pic32c/8.3.1/../../../../pic32c/lib/arm/v5te/nofp\libc-musl.a(strtok.o)
 .ARM.attributes
                0x00000000       0x2d c:/program files/microchip/xc32/v4.20/bin/bin/../../lib/gcc/pic32c/8.3.1/../../../../pic32c/lib/arm/v5te/nofp\libc-musl.a(strtok.o)
 .text          0x00000000        0x0 c:/program files/microchip/xc32/v4.20/bin/bin/../../lib/gcc/pic32c/8.3.1/../../../../pic32c/lib/arm/v5te/nofp\libc-musl.a(isxdigit.o)
 .data          0x00000000        0x0 c:/program files/microchip/xc32/v4.20/bin/bin/../../lib/gcc/pic32c/8.3.1/../../../../pic32c/lib/arm/v5te/nofp\libc-musl.a(isxdigit.o)
 .bss           0x00000000        0x0 c:/program files/microchip/xc32/v4.20/bin/bin/../../lib/gcc/pic32c/8.3.1/../../../../pic32c/lib/arm/v5te/nofp\libc-musl.a(isxdigit.o)
 .xc_stack_usage
                0x00000000       0x30 c:/program files/microchip/xc32/v4.20/bin/bin/../../lib/gcc/pic32c/8.3.1/../../../../pic32c/lib/arm/v5te/nofp\libc-musl.a(isxdigit.o)
 .text.isxdigit
                0x00000000       0x2c c:/program files/microchip/xc32/v4.20/bin/bin/../../lib/gcc/pic32c/8.3.1/../../../../pic32c/lib/arm/v5te/nofp\libc-musl.a(isxdigit.o)
 .text.__isxdigit_l
                0x00000000        0x4 c:/program files/microchip/xc32/v4.20/bin/bin/../../lib/gcc/pic32c/8.3.1/../../../../pic32c/lib/arm/v5te/nofp\libc-musl.a(isxdigit.o)
 .xc_stack_usage.hdr
                0x00000000        0xe c:/program files/microchip/xc32/v4.20/bin/bin/../../lib/gcc/pic32c/8.3.1/../../../../pic32c/lib/arm/v5te/nofp\libc-musl.a(isxdigit.o)
 .debug_info    0x00000000      0x342 c:/program files/microchip/xc32/v4.20/bin/bin/../../lib/gcc/pic32c/8.3.1/../../../../pic32c/lib/arm/v5te/nofp\libc-musl.a(isxdigit.o)
 .debug_abbrev  0x00000000       0xfd c:/program files/microchip/xc32/v4.20/bin/bin/../../lib/gcc/pic32c/8.3.1/../../../../pic32c/lib/arm/v5te/nofp\libc-musl.a(isxdigit.o)
 .debug_loc     0x00000000       0x65 c:/program files/microchip/xc32/v4.20/bin/bin/../../lib/gcc/pic32c/8.3.1/../../../../pic32c/lib/arm/v5te/nofp\libc-musl.a(isxdigit.o)
 .debug_aranges
                0x00000000       0x28 c:/program files/microchip/xc32/v4.20/bin/bin/../../lib/gcc/pic32c/8.3.1/../../../../pic32c/lib/arm/v5te/nofp\libc-musl.a(isxdigit.o)
 .debug_ranges  0x00000000       0x18 c:/program files/microchip/xc32/v4.20/bin/bin/../../lib/gcc/pic32c/8.3.1/../../../../pic32c/lib/arm/v5te/nofp\libc-musl.a(isxdigit.o)
 .debug_line    0x00000000      0x166 c:/program files/microchip/xc32/v4.20/bin/bin/../../lib/gcc/pic32c/8.3.1/../../../../pic32c/lib/arm/v5te/nofp\libc-musl.a(isxdigit.o)
 .debug_str     0x00000000        0x0 c:/program files/microchip/xc32/v4.20/bin/bin/../../lib/gcc/pic32c/8.3.1/../../../../pic32c/lib/arm/v5te/nofp\libc-musl.a(isxdigit.o)
 .comment       0x00000000       0x2c c:/program files/microchip/xc32/v4.20/bin/bin/../../lib/gcc/pic32c/8.3.1/../../../../pic32c/lib/arm/v5te/nofp\libc-musl.a(isxdigit.o)
 .note.GNU-stack
                0x00000000        0x0 c:/program files/microchip/xc32/v4.20/bin/bin/../../lib/gcc/pic32c/8.3.1/../../../../pic32c/lib/arm/v5te/nofp\libc-musl.a(isxdigit.o)
 .debug_frame   0x00000000       0x30 c:/program files/microchip/xc32/v4.20/bin/bin/../../lib/gcc/pic32c/8.3.1/../../../../pic32c/lib/arm/v5te/nofp\libc-musl.a(isxdigit.o)
 .ARM.attributes
                0x00000000       0x2d c:/program files/microchip/xc32/v4.20/bin/bin/../../lib/gcc/pic32c/8.3.1/../../../../pic32c/lib/arm/v5te/nofp\libc-musl.a(isxdigit.o)
 .text          0x00000000        0x0 c:/program files/microchip/xc32/v4.20/bin/bin/../../lib/gcc/pic32c/8.3.1/../../../../pic32c/lib/arm/v5te/nofp\libc-musl.a(tolower.o)
 .data          0x00000000        0x0 c:/program files/microchip/xc32/v4.20/bin/bin/../../lib/gcc/pic32c/8.3.1/../../../../pic32c/lib/arm/v5te/nofp\libc-musl.a(tolower.o)
 .bss           0x00000000        0x0 c:/program files/microchip/xc32/v4.20/bin/bin/../../lib/gcc/pic32c/8.3.1/../../../../pic32c/lib/arm/v5te/nofp\libc-musl.a(tolower.o)
 .xc_stack_usage
                0x00000000       0x2e c:/program files/microchip/xc32/v4.20/bin/bin/../../lib/gcc/pic32c/8.3.1/../../../../pic32c/lib/arm/v5te/nofp\libc-musl.a(tolower.o)
 .text.__tolower_l
                0x00000000        0x4 c:/program files/microchip/xc32/v4.20/bin/bin/../../lib/gcc/pic32c/8.3.1/../../../../pic32c/lib/arm/v5te/nofp\libc-musl.a(tolower.o)
 .xc_stack_usage.hdr
                0x00000000        0xe c:/program files/microchip/xc32/v4.20/bin/bin/../../lib/gcc/pic32c/8.3.1/../../../../pic32c/lib/arm/v5te/nofp\libc-musl.a(tolower.o)
 .text          0x00000000        0x0 c:/program files/microchip/xc32/v4.20/bin/bin/../../lib/gcc/pic32c/8.3.1/../../../../pic32c/lib/arm/v5te/nofp\libc-musl.a(toupper.o)
 .data          0x00000000        0x0 c:/program files/microchip/xc32/v4.20/bin/bin/../../lib/gcc/pic32c/8.3.1/../../../../pic32c/lib/arm/v5te/nofp\libc-musl.a(toupper.o)
 .bss           0x00000000        0x0 c:/program files/microchip/xc32/v4.20/bin/bin/../../lib/gcc/pic32c/8.3.1/../../../../pic32c/lib/arm/v5te/nofp\libc-musl.a(toupper.o)
 .xc_stack_usage
                0x00000000       0x2e c:/program files/microchip/xc32/v4.20/bin/bin/../../lib/gcc/pic32c/8.3.1/../../../../pic32c/lib/arm/v5te/nofp\libc-musl.a(toupper.o)
 .text.__toupper_l
                0x00000000        0x4 c:/program files/microchip/xc32/v4.20/bin/bin/../../lib/gcc/pic32c/8.3.1/../../../../pic32c/lib/arm/v5te/nofp\libc-musl.a(toupper.o)
 .xc_stack_usage.hdr
                0x00000000        0xe c:/program files/microchip/xc32/v4.20/bin/bin/../../lib/gcc/pic32c/8.3.1/../../../../pic32c/lib/arm/v5te/nofp\libc-musl.a(toupper.o)
 .text          0x00000000        0x0 c:/program files/microchip/xc32/v4.20/bin/bin/../../lib/gcc/pic32c/8.3.1/../../../../pic32c/lib/arm/v5te/nofp\libc-musl.a(__environ.o)
 .data          0x00000000        0x0 c:/program files/microchip/xc32/v4.20/bin/bin/../../lib/gcc/pic32c/8.3.1/../../../../pic32c/lib/arm/v5te/nofp\libc-musl.a(__environ.o)
 .xc_stack_usage.hdr
                0x00000000        0xe c:/program files/microchip/xc32/v4.20/bin/bin/../../lib/gcc/pic32c/8.3.1/../../../../pic32c/lib/arm/v5te/nofp\libc-musl.a(__environ.o)
 .text          0x00000000        0x0 c:/program files/microchip/xc32/v4.20/bin/bin/../../lib/gcc/pic32c/8.3.1/../../../../pic32c/lib/arm/v5te/nofp\libc-musl.a(__errno_location.o)
 .data          0x00000000        0x0 c:/program files/microchip/xc32/v4.20/bin/bin/../../lib/gcc/pic32c/8.3.1/../../../../pic32c/lib/arm/v5te/nofp\libc-musl.a(__errno_location.o)
 .xc_stack_usage.hdr
                0x00000000        0xe c:/program files/microchip/xc32/v4.20/bin/bin/../../lib/gcc/pic32c/8.3.1/../../../../pic32c/lib/arm/v5te/nofp\libc-musl.a(__errno_location.o)
 .text          0x00000000        0x0 c:/program files/microchip/xc32/v4.20/bin/bin/../../lib/gcc/pic32c/8.3.1/../../../../pic32c/lib/arm/v5te/nofp\libc-musl.a(intscan.o)
 .data          0x00000000        0x0 c:/program files/microchip/xc32/v4.20/bin/bin/../../lib/gcc/pic32c/8.3.1/../../../../pic32c/lib/arm/v5te/nofp\libc-musl.a(intscan.o)
 .bss           0x00000000        0x0 c:/program files/microchip/xc32/v4.20/bin/bin/../../lib/gcc/pic32c/8.3.1/../../../../pic32c/lib/arm/v5te/nofp\libc-musl.a(intscan.o)
 .xc_stack_usage
                0x00000000       0x17 c:/program files/microchip/xc32/v4.20/bin/bin/../../lib/gcc/pic32c/8.3.1/../../../../pic32c/lib/arm/v5te/nofp\libc-musl.a(intscan.o)
 .text.__intscan
                0x00000000      0x608 c:/program files/microchip/xc32/v4.20/bin/bin/../../lib/gcc/pic32c/8.3.1/../../../../pic32c/lib/arm/v5te/nofp\libc-musl.a(intscan.o)
 .rodata        0x00000000      0x10a c:/program files/microchip/xc32/v4.20/bin/bin/../../lib/gcc/pic32c/8.3.1/../../../../pic32c/lib/arm/v5te/nofp\libc-musl.a(intscan.o)
 .xc_stack_usage.hdr
                0x00000000        0xe c:/program files/microchip/xc32/v4.20/bin/bin/../../lib/gcc/pic32c/8.3.1/../../../../pic32c/lib/arm/v5te/nofp\libc-musl.a(intscan.o)
 .debug_info    0x00000000      0x830 c:/program files/microchip/xc32/v4.20/bin/bin/../../lib/gcc/pic32c/8.3.1/../../../../pic32c/lib/arm/v5te/nofp\libc-musl.a(intscan.o)
 .debug_abbrev  0x00000000      0x1d9 c:/program files/microchip/xc32/v4.20/bin/bin/../../lib/gcc/pic32c/8.3.1/../../../../pic32c/lib/arm/v5te/nofp\libc-musl.a(intscan.o)
 .debug_loc     0x00000000      0x3b8 c:/program files/microchip/xc32/v4.20/bin/bin/../../lib/gcc/pic32c/8.3.1/../../../../pic32c/lib/arm/v5te/nofp\libc-musl.a(intscan.o)
 .debug_aranges
                0x00000000       0x20 c:/program files/microchip/xc32/v4.20/bin/bin/../../lib/gcc/pic32c/8.3.1/../../../../pic32c/lib/arm/v5te/nofp\libc-musl.a(intscan.o)
 .debug_ranges  0x00000000       0x10 c:/program files/microchip/xc32/v4.20/bin/bin/../../lib/gcc/pic32c/8.3.1/../../../../pic32c/lib/arm/v5te/nofp\libc-musl.a(intscan.o)
 .debug_line    0x00000000      0x48a c:/program files/microchip/xc32/v4.20/bin/bin/../../lib/gcc/pic32c/8.3.1/../../../../pic32c/lib/arm/v5te/nofp\libc-musl.a(intscan.o)
 .debug_str     0x00000000        0x9 c:/program files/microchip/xc32/v4.20/bin/bin/../../lib/gcc/pic32c/8.3.1/../../../../pic32c/lib/arm/v5te/nofp\libc-musl.a(intscan.o)
 .comment       0x00000000       0x2c c:/program files/microchip/xc32/v4.20/bin/bin/../../lib/gcc/pic32c/8.3.1/../../../../pic32c/lib/arm/v5te/nofp\libc-musl.a(intscan.o)
 .note.GNU-stack
                0x00000000        0x0 c:/program files/microchip/xc32/v4.20/bin/bin/../../lib/gcc/pic32c/8.3.1/../../../../pic32c/lib/arm/v5te/nofp\libc-musl.a(intscan.o)
 .debug_frame   0x00000000       0x40 c:/program files/microchip/xc32/v4.20/bin/bin/../../lib/gcc/pic32c/8.3.1/../../../../pic32c/lib/arm/v5te/nofp\libc-musl.a(intscan.o)
 .ARM.attributes
                0x00000000       0x2d c:/program files/microchip/xc32/v4.20/bin/bin/../../lib/gcc/pic32c/8.3.1/../../../../pic32c/lib/arm/v5te/nofp\libc-musl.a(intscan.o)
 .text          0x00000000        0x0 c:/program files/microchip/xc32/v4.20/bin/bin/../../lib/gcc/pic32c/8.3.1/../../../../pic32c/lib/arm/v5te/nofp\libc-musl.a(shgetc.o)
 .data          0x00000000        0x0 c:/program files/microchip/xc32/v4.20/bin/bin/../../lib/gcc/pic32c/8.3.1/../../../../pic32c/lib/arm/v5te/nofp\libc-musl.a(shgetc.o)
 .bss           0x00000000        0x0 c:/program files/microchip/xc32/v4.20/bin/bin/../../lib/gcc/pic32c/8.3.1/../../../../pic32c/lib/arm/v5te/nofp\libc-musl.a(shgetc.o)
 .xc_stack_usage
                0x00000000       0x2b c:/program files/microchip/xc32/v4.20/bin/bin/../../lib/gcc/pic32c/8.3.1/../../../../pic32c/lib/arm/v5te/nofp\libc-musl.a(shgetc.o)
 .text.__shlim  0x00000000       0x28 c:/program files/microchip/xc32/v4.20/bin/bin/../../lib/gcc/pic32c/8.3.1/../../../../pic32c/lib/arm/v5te/nofp\libc-musl.a(shgetc.o)
 .text.__shgetc
                0x00000000       0xa4 c:/program files/microchip/xc32/v4.20/bin/bin/../../lib/gcc/pic32c/8.3.1/../../../../pic32c/lib/arm/v5te/nofp\libc-musl.a(shgetc.o)
 .xc_stack_usage.hdr
                0x00000000        0xe c:/program files/microchip/xc32/v4.20/bin/bin/../../lib/gcc/pic32c/8.3.1/../../../../pic32c/lib/arm/v5te/nofp\libc-musl.a(shgetc.o)
 .debug_info    0x00000000      0x62f c:/program files/microchip/xc32/v4.20/bin/bin/../../lib/gcc/pic32c/8.3.1/../../../../pic32c/lib/arm/v5te/nofp\libc-musl.a(shgetc.o)
 .debug_abbrev  0x00000000      0x14a c:/program files/microchip/xc32/v4.20/bin/bin/../../lib/gcc/pic32c/8.3.1/../../../../pic32c/lib/arm/v5te/nofp\libc-musl.a(shgetc.o)
 .debug_loc     0x00000000       0x71 c:/program files/microchip/xc32/v4.20/bin/bin/../../lib/gcc/pic32c/8.3.1/../../../../pic32c/lib/arm/v5te/nofp\libc-musl.a(shgetc.o)
 .debug_aranges
                0x00000000       0x28 c:/program files/microchip/xc32/v4.20/bin/bin/../../lib/gcc/pic32c/8.3.1/../../../../pic32c/lib/arm/v5te/nofp\libc-musl.a(shgetc.o)
 .debug_ranges  0x00000000       0x18 c:/program files/microchip/xc32/v4.20/bin/bin/../../lib/gcc/pic32c/8.3.1/../../../../pic32c/lib/arm/v5te/nofp\libc-musl.a(shgetc.o)
 .debug_line    0x00000000      0x201 c:/program files/microchip/xc32/v4.20/bin/bin/../../lib/gcc/pic32c/8.3.1/../../../../pic32c/lib/arm/v5te/nofp\libc-musl.a(shgetc.o)
 .debug_str     0x00000000        0x0 c:/program files/microchip/xc32/v4.20/bin/bin/../../lib/gcc/pic32c/8.3.1/../../../../pic32c/lib/arm/v5te/nofp\libc-musl.a(shgetc.o)
 .comment       0x00000000       0x2c c:/program files/microchip/xc32/v4.20/bin/bin/../../lib/gcc/pic32c/8.3.1/../../../../pic32c/lib/arm/v5te/nofp\libc-musl.a(shgetc.o)
 .note.GNU-stack
                0x00000000        0x0 c:/program files/microchip/xc32/v4.20/bin/bin/../../lib/gcc/pic32c/8.3.1/../../../../pic32c/lib/arm/v5te/nofp\libc-musl.a(shgetc.o)
 .debug_frame   0x00000000       0x38 c:/program files/microchip/xc32/v4.20/bin/bin/../../lib/gcc/pic32c/8.3.1/../../../../pic32c/lib/arm/v5te/nofp\libc-musl.a(shgetc.o)
 .ARM.attributes
                0x00000000       0x2d c:/program files/microchip/xc32/v4.20/bin/bin/../../lib/gcc/pic32c/8.3.1/../../../../pic32c/lib/arm/v5te/nofp\libc-musl.a(shgetc.o)
 .text          0x00000000        0x0 c:/program files/microchip/xc32/v4.20/bin/bin/../../lib/gcc/pic32c/8.3.1/../../../../pic32c/lib/arm/v5te/nofp\libc-musl.a(__int_vfprintf.o)
 .data          0x00000000        0x0 c:/program files/microchip/xc32/v4.20/bin/bin/../../lib/gcc/pic32c/8.3.1/../../../../pic32c/lib/arm/v5te/nofp\libc-musl.a(__int_vfprintf.o)
 .bss           0x00000000        0x0 c:/program files/microchip/xc32/v4.20/bin/bin/../../lib/gcc/pic32c/8.3.1/../../../../pic32c/lib/arm/v5te/nofp\libc-musl.a(__int_vfprintf.o)
 .xc_stack_usage
                0x00000000       0x18 c:/program files/microchip/xc32/v4.20/bin/bin/../../lib/gcc/pic32c/8.3.1/../../../../pic32c/lib/arm/v5te/nofp\libc-musl.a(__int_vfprintf.o)
 .xc_stack_usage.hdr
                0x00000000        0xe c:/program files/microchip/xc32/v4.20/bin/bin/../../lib/gcc/pic32c/8.3.1/../../../../pic32c/lib/arm/v5te/nofp\libc-musl.a(__int_vfprintf.o)
 .text          0x00000000        0x0 c:/program files/microchip/xc32/v4.20/bin/bin/../../lib/gcc/pic32c/8.3.1/../../../../pic32c/lib/arm/v5te/nofp\libc-musl.a(__int_vsprintf.o)
 .data          0x00000000        0x0 c:/program files/microchip/xc32/v4.20/bin/bin/../../lib/gcc/pic32c/8.3.1/../../../../pic32c/lib/arm/v5te/nofp\libc-musl.a(__int_vsprintf.o)
 .bss           0x00000000        0x0 c:/program files/microchip/xc32/v4.20/bin/bin/../../lib/gcc/pic32c/8.3.1/../../../../pic32c/lib/arm/v5te/nofp\libc-musl.a(__int_vsprintf.o)
 .xc_stack_usage
                0x00000000       0x18 c:/program files/microchip/xc32/v4.20/bin/bin/../../lib/gcc/pic32c/8.3.1/../../../../pic32c/lib/arm/v5te/nofp\libc-musl.a(__int_vsprintf.o)
 .xc_stack_usage.hdr
                0x00000000        0xe c:/program files/microchip/xc32/v4.20/bin/bin/../../lib/gcc/pic32c/8.3.1/../../../../pic32c/lib/arm/v5te/nofp\libc-musl.a(__int_vsprintf.o)
 .text          0x00000000        0x0 c:/program files/microchip/xc32/v4.20/bin/bin/../../lib/gcc/pic32c/8.3.1/../../../../pic32c/lib/arm/v5te/nofp\libc-musl.a(__int_vsscanf.o)
 .data          0x00000000        0x0 c:/program files/microchip/xc32/v4.20/bin/bin/../../lib/gcc/pic32c/8.3.1/../../../../pic32c/lib/arm/v5te/nofp\libc-musl.a(__int_vsscanf.o)
 .bss           0x00000000        0x0 c:/program files/microchip/xc32/v4.20/bin/bin/../../lib/gcc/pic32c/8.3.1/../../../../pic32c/lib/arm/v5te/nofp\libc-musl.a(__int_vsscanf.o)
 .xc_stack_usage
                0x00000000       0x2c c:/program files/microchip/xc32/v4.20/bin/bin/../../lib/gcc/pic32c/8.3.1/../../../../pic32c/lib/arm/v5te/nofp\libc-musl.a(__int_vsscanf.o)
 .text.do_read  0x00000000        0x4 c:/program files/microchip/xc32/v4.20/bin/bin/../../lib/gcc/pic32c/8.3.1/../../../../pic32c/lib/arm/v5te/nofp\libc-musl.a(__int_vsscanf.o)
 .text.__vsscanf
                0x00000000       0x50 c:/program files/microchip/xc32/v4.20/bin/bin/../../lib/gcc/pic32c/8.3.1/../../../../pic32c/lib/arm/v5te/nofp\libc-musl.a(__int_vsscanf.o)
 .xc_stack_usage.hdr
                0x00000000        0xe c:/program files/microchip/xc32/v4.20/bin/bin/../../lib/gcc/pic32c/8.3.1/../../../../pic32c/lib/arm/v5te/nofp\libc-musl.a(__int_vsscanf.o)
 .debug_info    0x00000000      0x726 c:/program files/microchip/xc32/v4.20/bin/bin/../../lib/gcc/pic32c/8.3.1/../../../../pic32c/lib/arm/v5te/nofp\libc-musl.a(__int_vsscanf.o)
 .debug_abbrev  0x00000000      0x17f c:/program files/microchip/xc32/v4.20/bin/bin/../../lib/gcc/pic32c/8.3.1/../../../../pic32c/lib/arm/v5te/nofp\libc-musl.a(__int_vsscanf.o)
 .debug_loc     0x00000000      0x12e c:/program files/microchip/xc32/v4.20/bin/bin/../../lib/gcc/pic32c/8.3.1/../../../../pic32c/lib/arm/v5te/nofp\libc-musl.a(__int_vsscanf.o)
 .debug_aranges
                0x00000000       0x28 c:/program files/microchip/xc32/v4.20/bin/bin/../../lib/gcc/pic32c/8.3.1/../../../../pic32c/lib/arm/v5te/nofp\libc-musl.a(__int_vsscanf.o)
 .debug_ranges  0x00000000       0x18 c:/program files/microchip/xc32/v4.20/bin/bin/../../lib/gcc/pic32c/8.3.1/../../../../pic32c/lib/arm/v5te/nofp\libc-musl.a(__int_vsscanf.o)
 .debug_line    0x00000000      0x20c c:/program files/microchip/xc32/v4.20/bin/bin/../../lib/gcc/pic32c/8.3.1/../../../../pic32c/lib/arm/v5te/nofp\libc-musl.a(__int_vsscanf.o)
 .debug_str     0x00000000       0x18 c:/program files/microchip/xc32/v4.20/bin/bin/../../lib/gcc/pic32c/8.3.1/../../../../pic32c/lib/arm/v5te/nofp\libc-musl.a(__int_vsscanf.o)
 .comment       0x00000000       0x2c c:/program files/microchip/xc32/v4.20/bin/bin/../../lib/gcc/pic32c/8.3.1/../../../../pic32c/lib/arm/v5te/nofp\libc-musl.a(__int_vsscanf.o)
 .note.GNU-stack
                0x00000000        0x0 c:/program files/microchip/xc32/v4.20/bin/bin/../../lib/gcc/pic32c/8.3.1/../../../../pic32c/lib/arm/v5te/nofp\libc-musl.a(__int_vsscanf.o)
 .debug_frame   0x00000000       0x44 c:/program files/microchip/xc32/v4.20/bin/bin/../../lib/gcc/pic32c/8.3.1/../../../../pic32c/lib/arm/v5te/nofp\libc-musl.a(__int_vsscanf.o)
 .ARM.attributes
                0x00000000       0x2d c:/program files/microchip/xc32/v4.20/bin/bin/../../lib/gcc/pic32c/8.3.1/../../../../pic32c/lib/arm/v5te/nofp\libc-musl.a(__int_vsscanf.o)
 .text          0x00000000        0x0 c:/program files/microchip/xc32/v4.20/bin/bin/../../lib/gcc/pic32c/8.3.1/../../../../pic32c/lib/arm/v5te/nofp\libc-musl.a(__string_read.o)
 .data          0x00000000        0x0 c:/program files/microchip/xc32/v4.20/bin/bin/../../lib/gcc/pic32c/8.3.1/../../../../pic32c/lib/arm/v5te/nofp\libc-musl.a(__string_read.o)
 .bss           0x00000000        0x0 c:/program files/microchip/xc32/v4.20/bin/bin/../../lib/gcc/pic32c/8.3.1/../../../../pic32c/lib/arm/v5te/nofp\libc-musl.a(__string_read.o)
 .xc_stack_usage
                0x00000000       0x1b c:/program files/microchip/xc32/v4.20/bin/bin/../../lib/gcc/pic32c/8.3.1/../../../../pic32c/lib/arm/v5te/nofp\libc-musl.a(__string_read.o)
 .text.__string_read
                0x00000000       0x64 c:/program files/microchip/xc32/v4.20/bin/bin/../../lib/gcc/pic32c/8.3.1/../../../../pic32c/lib/arm/v5te/nofp\libc-musl.a(__string_read.o)
 .xc_stack_usage.hdr
                0x00000000        0xe c:/program files/microchip/xc32/v4.20/bin/bin/../../lib/gcc/pic32c/8.3.1/../../../../pic32c/lib/arm/v5te/nofp\libc-musl.a(__string_read.o)
 .debug_info    0x00000000      0x692 c:/program files/microchip/xc32/v4.20/bin/bin/../../lib/gcc/pic32c/8.3.1/../../../../pic32c/lib/arm/v5te/nofp\libc-musl.a(__string_read.o)
 .debug_abbrev  0x00000000      0x12a c:/program files/microchip/xc32/v4.20/bin/bin/../../lib/gcc/pic32c/8.3.1/../../../../pic32c/lib/arm/v5te/nofp\libc-musl.a(__string_read.o)
 .debug_loc     0x00000000       0xc5 c:/program files/microchip/xc32/v4.20/bin/bin/../../lib/gcc/pic32c/8.3.1/../../../../pic32c/lib/arm/v5te/nofp\libc-musl.a(__string_read.o)
 .debug_aranges
                0x00000000       0x20 c:/program files/microchip/xc32/v4.20/bin/bin/../../lib/gcc/pic32c/8.3.1/../../../../pic32c/lib/arm/v5te/nofp\libc-musl.a(__string_read.o)
 .debug_ranges  0x00000000       0x10 c:/program files/microchip/xc32/v4.20/bin/bin/../../lib/gcc/pic32c/8.3.1/../../../../pic32c/lib/arm/v5te/nofp\libc-musl.a(__string_read.o)
 .debug_line    0x00000000      0x284 c:/program files/microchip/xc32/v4.20/bin/bin/../../lib/gcc/pic32c/8.3.1/../../../../pic32c/lib/arm/v5te/nofp\libc-musl.a(__string_read.o)
 .debug_str     0x00000000        0x0 c:/program files/microchip/xc32/v4.20/bin/bin/../../lib/gcc/pic32c/8.3.1/../../../../pic32c/lib/arm/v5te/nofp\libc-musl.a(__string_read.o)
 .comment       0x00000000       0x2c c:/program files/microchip/xc32/v4.20/bin/bin/../../lib/gcc/pic32c/8.3.1/../../../../pic32c/lib/arm/v5te/nofp\libc-musl.a(__string_read.o)
 .note.GNU-stack
                0x00000000        0x0 c:/program files/microchip/xc32/v4.20/bin/bin/../../lib/gcc/pic32c/8.3.1/../../../../pic32c/lib/arm/v5te/nofp\libc-musl.a(__string_read.o)
 .debug_frame   0x00000000       0x30 c:/program files/microchip/xc32/v4.20/bin/bin/../../lib/gcc/pic32c/8.3.1/../../../../pic32c/lib/arm/v5te/nofp\libc-musl.a(__string_read.o)
 .ARM.attributes
                0x00000000       0x2d c:/program files/microchip/xc32/v4.20/bin/bin/../../lib/gcc/pic32c/8.3.1/../../../../pic32c/lib/arm/v5te/nofp\libc-musl.a(__string_read.o)
 .text          0x00000000        0x0 c:/program files/microchip/xc32/v4.20/bin/bin/../../lib/gcc/pic32c/8.3.1/../../../../pic32c/lib/arm/v5te/nofp\libc-musl.a(__uflow.o)
 .data          0x00000000        0x0 c:/program files/microchip/xc32/v4.20/bin/bin/../../lib/gcc/pic32c/8.3.1/../../../../pic32c/lib/arm/v5te/nofp\libc-musl.a(__uflow.o)
 .bss           0x00000000        0x0 c:/program files/microchip/xc32/v4.20/bin/bin/../../lib/gcc/pic32c/8.3.1/../../../../pic32c/lib/arm/v5te/nofp\libc-musl.a(__uflow.o)
 .xc_stack_usage
                0x00000000       0x15 c:/program files/microchip/xc32/v4.20/bin/bin/../../lib/gcc/pic32c/8.3.1/../../../../pic32c/lib/arm/v5te/nofp\libc-musl.a(__uflow.o)
 .text.__uflow  0x00000000       0x44 c:/program files/microchip/xc32/v4.20/bin/bin/../../lib/gcc/pic32c/8.3.1/../../../../pic32c/lib/arm/v5te/nofp\libc-musl.a(__uflow.o)
 .xc_stack_usage.hdr
                0x00000000        0xe c:/program files/microchip/xc32/v4.20/bin/bin/../../lib/gcc/pic32c/8.3.1/../../../../pic32c/lib/arm/v5te/nofp\libc-musl.a(__uflow.o)
 .debug_info    0x00000000      0x601 c:/program files/microchip/xc32/v4.20/bin/bin/../../lib/gcc/pic32c/8.3.1/../../../../pic32c/lib/arm/v5te/nofp\libc-musl.a(__uflow.o)
 .debug_abbrev  0x00000000      0x125 c:/program files/microchip/xc32/v4.20/bin/bin/../../lib/gcc/pic32c/8.3.1/../../../../pic32c/lib/arm/v5te/nofp\libc-musl.a(__uflow.o)
 .debug_loc     0x00000000       0x5a c:/program files/microchip/xc32/v4.20/bin/bin/../../lib/gcc/pic32c/8.3.1/../../../../pic32c/lib/arm/v5te/nofp\libc-musl.a(__uflow.o)
 .debug_aranges
                0x00000000       0x20 c:/program files/microchip/xc32/v4.20/bin/bin/../../lib/gcc/pic32c/8.3.1/../../../../pic32c/lib/arm/v5te/nofp\libc-musl.a(__uflow.o)
 .debug_ranges  0x00000000       0x10 c:/program files/microchip/xc32/v4.20/bin/bin/../../lib/gcc/pic32c/8.3.1/../../../../pic32c/lib/arm/v5te/nofp\libc-musl.a(__uflow.o)
 .debug_line    0x00000000      0x1d0 c:/program files/microchip/xc32/v4.20/bin/bin/../../lib/gcc/pic32c/8.3.1/../../../../pic32c/lib/arm/v5te/nofp\libc-musl.a(__uflow.o)
 .debug_str     0x00000000        0x9 c:/program files/microchip/xc32/v4.20/bin/bin/../../lib/gcc/pic32c/8.3.1/../../../../pic32c/lib/arm/v5te/nofp\libc-musl.a(__uflow.o)
 .comment       0x00000000       0x2c c:/program files/microchip/xc32/v4.20/bin/bin/../../lib/gcc/pic32c/8.3.1/../../../../pic32c/lib/arm/v5te/nofp\libc-musl.a(__uflow.o)
 .note.GNU-stack
                0x00000000        0x0 c:/program files/microchip/xc32/v4.20/bin/bin/../../lib/gcc/pic32c/8.3.1/../../../../pic32c/lib/arm/v5te/nofp\libc-musl.a(__uflow.o)
 .debug_frame   0x00000000       0x30 c:/program files/microchip/xc32/v4.20/bin/bin/../../lib/gcc/pic32c/8.3.1/../../../../pic32c/lib/arm/v5te/nofp\libc-musl.a(__uflow.o)
 .ARM.attributes
                0x00000000       0x2d c:/program files/microchip/xc32/v4.20/bin/bin/../../lib/gcc/pic32c/8.3.1/../../../../pic32c/lib/arm/v5te/nofp\libc-musl.a(__uflow.o)
 .text          0x00000000        0x0 c:/program files/microchip/xc32/v4.20/bin/bin/../../lib/gcc/pic32c/8.3.1/../../../../pic32c/lib/arm/v5te/nofp\libc-musl.a(fputs.o)
 .data          0x00000000        0x0 c:/program files/microchip/xc32/v4.20/bin/bin/../../lib/gcc/pic32c/8.3.1/../../../../pic32c/lib/arm/v5te/nofp\libc-musl.a(fputs.o)
 .bss           0x00000000        0x0 c:/program files/microchip/xc32/v4.20/bin/bin/../../lib/gcc/pic32c/8.3.1/../../../../pic32c/lib/arm/v5te/nofp\libc-musl.a(fputs.o)
 .xc_stack_usage
                0x00000000       0x13 c:/program files/microchip/xc32/v4.20/bin/bin/../../lib/gcc/pic32c/8.3.1/../../../../pic32c/lib/arm/v5te/nofp\libc-musl.a(fputs.o)
 .text.fputs    0x00000000       0x34 c:/program files/microchip/xc32/v4.20/bin/bin/../../lib/gcc/pic32c/8.3.1/../../../../pic32c/lib/arm/v5te/nofp\libc-musl.a(fputs.o)
 .xc_stack_usage.hdr
                0x00000000        0xe c:/program files/microchip/xc32/v4.20/bin/bin/../../lib/gcc/pic32c/8.3.1/../../../../pic32c/lib/arm/v5te/nofp\libc-musl.a(fputs.o)
 .debug_info    0x00000000      0x643 c:/program files/microchip/xc32/v4.20/bin/bin/../../lib/gcc/pic32c/8.3.1/../../../../pic32c/lib/arm/v5te/nofp\libc-musl.a(fputs.o)
 .debug_abbrev  0x00000000      0x12a c:/program files/microchip/xc32/v4.20/bin/bin/../../lib/gcc/pic32c/8.3.1/../../../../pic32c/lib/arm/v5te/nofp\libc-musl.a(fputs.o)
 .debug_loc     0x00000000       0x93 c:/program files/microchip/xc32/v4.20/bin/bin/../../lib/gcc/pic32c/8.3.1/../../../../pic32c/lib/arm/v5te/nofp\libc-musl.a(fputs.o)
 .debug_aranges
                0x00000000       0x20 c:/program files/microchip/xc32/v4.20/bin/bin/../../lib/gcc/pic32c/8.3.1/../../../../pic32c/lib/arm/v5te/nofp\libc-musl.a(fputs.o)
 .debug_ranges  0x00000000       0x10 c:/program files/microchip/xc32/v4.20/bin/bin/../../lib/gcc/pic32c/8.3.1/../../../../pic32c/lib/arm/v5te/nofp\libc-musl.a(fputs.o)
 .debug_line    0x00000000      0x245 c:/program files/microchip/xc32/v4.20/bin/bin/../../lib/gcc/pic32c/8.3.1/../../../../pic32c/lib/arm/v5te/nofp\libc-musl.a(fputs.o)
 .debug_str     0x00000000        0x0 c:/program files/microchip/xc32/v4.20/bin/bin/../../lib/gcc/pic32c/8.3.1/../../../../pic32c/lib/arm/v5te/nofp\libc-musl.a(fputs.o)
 .comment       0x00000000       0x2c c:/program files/microchip/xc32/v4.20/bin/bin/../../lib/gcc/pic32c/8.3.1/../../../../pic32c/lib/arm/v5te/nofp\libc-musl.a(fputs.o)
 .note.GNU-stack
                0x00000000        0x0 c:/program files/microchip/xc32/v4.20/bin/bin/../../lib/gcc/pic32c/8.3.1/../../../../pic32c/lib/arm/v5te/nofp\libc-musl.a(fputs.o)
 .debug_frame   0x00000000       0x2c c:/program files/microchip/xc32/v4.20/bin/bin/../../lib/gcc/pic32c/8.3.1/../../../../pic32c/lib/arm/v5te/nofp\libc-musl.a(fputs.o)
 .ARM.attributes
                0x00000000       0x2d c:/program files/microchip/xc32/v4.20/bin/bin/../../lib/gcc/pic32c/8.3.1/../../../../pic32c/lib/arm/v5te/nofp\libc-musl.a(fputs.o)
 .text          0x00000000        0x0 c:/program files/microchip/xc32/v4.20/bin/bin/../../lib/gcc/pic32c/8.3.1/../../../../pic32c/lib/arm/v5te/nofp\libc-musl.a(__io_init_needed.o)
 .data          0x00000000        0x0 c:/program files/microchip/xc32/v4.20/bin/bin/../../lib/gcc/pic32c/8.3.1/../../../../pic32c/lib/arm/v5te/nofp\libc-musl.a(__io_init_needed.o)
 .bss           0x00000000        0x0 c:/program files/microchip/xc32/v4.20/bin/bin/../../lib/gcc/pic32c/8.3.1/../../../../pic32c/lib/arm/v5te/nofp\libc-musl.a(__io_init_needed.o)
 .xc_stack_usage
                0x00000000       0x40 c:/program files/microchip/xc32/v4.20/bin/bin/../../lib/gcc/pic32c/8.3.1/../../../../pic32c/lib/arm/v5te/nofp\libc-musl.a(__io_init_needed.o)
 .xc_stack_usage.hdr
                0x00000000        0xe c:/program files/microchip/xc32/v4.20/bin/bin/../../lib/gcc/pic32c/8.3.1/../../../../pic32c/lib/arm/v5te/nofp\libc-musl.a(__io_init_needed.o)
 .debug_info    0x00000000      0x354 c:/program files/microchip/xc32/v4.20/bin/bin/../../lib/gcc/pic32c/8.3.1/../../../../pic32c/lib/arm/v5te/nofp\libc-musl.a(__io_init_needed.o)
 .debug_abbrev  0x00000000       0x79 c:/program files/microchip/xc32/v4.20/bin/bin/../../lib/gcc/pic32c/8.3.1/../../../../pic32c/lib/arm/v5te/nofp\libc-musl.a(__io_init_needed.o)
 .debug_aranges
                0x00000000       0x28 c:/program files/microchip/xc32/v4.20/bin/bin/../../lib/gcc/pic32c/8.3.1/../../../../pic32c/lib/arm/v5te/nofp\libc-musl.a(__io_init_needed.o)
 .debug_ranges  0x00000000       0x18 c:/program files/microchip/xc32/v4.20/bin/bin/../../lib/gcc/pic32c/8.3.1/../../../../pic32c/lib/arm/v5te/nofp\libc-musl.a(__io_init_needed.o)
 .debug_line    0x00000000      0x130 c:/program files/microchip/xc32/v4.20/bin/bin/../../lib/gcc/pic32c/8.3.1/../../../../pic32c/lib/arm/v5te/nofp\libc-musl.a(__io_init_needed.o)
 .debug_str     0x00000000       0x25 c:/program files/microchip/xc32/v4.20/bin/bin/../../lib/gcc/pic32c/8.3.1/../../../../pic32c/lib/arm/v5te/nofp\libc-musl.a(__io_init_needed.o)
 .comment       0x00000000       0x2c c:/program files/microchip/xc32/v4.20/bin/bin/../../lib/gcc/pic32c/8.3.1/../../../../pic32c/lib/arm/v5te/nofp\libc-musl.a(__io_init_needed.o)
 .note.GNU-stack
                0x00000000        0x0 c:/program files/microchip/xc32/v4.20/bin/bin/../../lib/gcc/pic32c/8.3.1/../../../../pic32c/lib/arm/v5te/nofp\libc-musl.a(__io_init_needed.o)
 .debug_frame   0x00000000       0x30 c:/program files/microchip/xc32/v4.20/bin/bin/../../lib/gcc/pic32c/8.3.1/../../../../pic32c/lib/arm/v5te/nofp\libc-musl.a(__io_init_needed.o)
 .ARM.attributes
                0x00000000       0x2d c:/program files/microchip/xc32/v4.20/bin/bin/../../lib/gcc/pic32c/8.3.1/../../../../pic32c/lib/arm/v5te/nofp\libc-musl.a(__io_init_needed.o)
 .text          0x00000000        0x0 c:/program files/microchip/xc32/v4.20/bin/bin/../../lib/gcc/pic32c/8.3.1/../../../../pic32c/lib/arm/v5te/nofp\libc-musl.a(__io_rw_needed.o)
 .data          0x00000000        0x0 c:/program files/microchip/xc32/v4.20/bin/bin/../../lib/gcc/pic32c/8.3.1/../../../../pic32c/lib/arm/v5te/nofp\libc-musl.a(__io_rw_needed.o)
 .bss           0x00000000        0x0 c:/program files/microchip/xc32/v4.20/bin/bin/../../lib/gcc/pic32c/8.3.1/../../../../pic32c/lib/arm/v5te/nofp\libc-musl.a(__io_rw_needed.o)
 .xc_stack_usage
                0x00000000       0x1c c:/program files/microchip/xc32/v4.20/bin/bin/../../lib/gcc/pic32c/8.3.1/../../../../pic32c/lib/arm/v5te/nofp\libc-musl.a(__io_rw_needed.o)
 __xc_reference_data
                0x00000000       0x30 c:/program files/microchip/xc32/v4.20/bin/bin/../../lib/gcc/pic32c/8.3.1/../../../../pic32c/lib/arm/v5te/nofp\libc-musl.a(__io_rw_needed.o)
 .xc_stack_usage.hdr
                0x00000000        0xe c:/program files/microchip/xc32/v4.20/bin/bin/../../lib/gcc/pic32c/8.3.1/../../../../pic32c/lib/arm/v5te/nofp\libc-musl.a(__io_rw_needed.o)
 .debug_info    0x00000000      0x353 c:/program files/microchip/xc32/v4.20/bin/bin/../../lib/gcc/pic32c/8.3.1/../../../../pic32c/lib/arm/v5te/nofp\libc-musl.a(__io_rw_needed.o)
 .debug_abbrev  0x00000000       0x6a c:/program files/microchip/xc32/v4.20/bin/bin/../../lib/gcc/pic32c/8.3.1/../../../../pic32c/lib/arm/v5te/nofp\libc-musl.a(__io_rw_needed.o)
 .debug_loc     0x00000000       0x2c c:/program files/microchip/xc32/v4.20/bin/bin/../../lib/gcc/pic32c/8.3.1/../../../../pic32c/lib/arm/v5te/nofp\libc-musl.a(__io_rw_needed.o)
 .debug_aranges
                0x00000000       0x20 c:/program files/microchip/xc32/v4.20/bin/bin/../../lib/gcc/pic32c/8.3.1/../../../../pic32c/lib/arm/v5te/nofp\libc-musl.a(__io_rw_needed.o)
 .debug_ranges  0x00000000       0x10 c:/program files/microchip/xc32/v4.20/bin/bin/../../lib/gcc/pic32c/8.3.1/../../../../pic32c/lib/arm/v5te/nofp\libc-musl.a(__io_rw_needed.o)
 .debug_line    0x00000000      0x13c c:/program files/microchip/xc32/v4.20/bin/bin/../../lib/gcc/pic32c/8.3.1/../../../../pic32c/lib/arm/v5te/nofp\libc-musl.a(__io_rw_needed.o)
 .debug_str     0x00000000       0x4d c:/program files/microchip/xc32/v4.20/bin/bin/../../lib/gcc/pic32c/8.3.1/../../../../pic32c/lib/arm/v5te/nofp\libc-musl.a(__io_rw_needed.o)
 .comment       0x00000000       0x2c c:/program files/microchip/xc32/v4.20/bin/bin/../../lib/gcc/pic32c/8.3.1/../../../../pic32c/lib/arm/v5te/nofp\libc-musl.a(__io_rw_needed.o)
 .note.GNU-stack
                0x00000000        0x0 c:/program files/microchip/xc32/v4.20/bin/bin/../../lib/gcc/pic32c/8.3.1/../../../../pic32c/lib/arm/v5te/nofp\libc-musl.a(__io_rw_needed.o)
 .debug_frame   0x00000000       0x2c c:/program files/microchip/xc32/v4.20/bin/bin/../../lib/gcc/pic32c/8.3.1/../../../../pic32c/lib/arm/v5te/nofp\libc-musl.a(__io_rw_needed.o)
 .ARM.attributes
                0x00000000       0x2d c:/program files/microchip/xc32/v4.20/bin/bin/../../lib/gcc/pic32c/8.3.1/../../../../pic32c/lib/arm/v5te/nofp\libc-musl.a(__io_rw_needed.o)
 .text          0x00000000        0x0 c:/program files/microchip/xc32/v4.20/bin/bin/../../lib/gcc/pic32c/8.3.1/../../../../pic32c/lib/arm/v5te/nofp\libc-musl.a(__pop_float.o)
 .data          0x00000000        0x0 c:/program files/microchip/xc32/v4.20/bin/bin/../../lib/gcc/pic32c/8.3.1/../../../../pic32c/lib/arm/v5te/nofp\libc-musl.a(__pop_float.o)
 .bss           0x00000000        0x0 c:/program files/microchip/xc32/v4.20/bin/bin/../../lib/gcc/pic32c/8.3.1/../../../../pic32c/lib/arm/v5te/nofp\libc-musl.a(__pop_float.o)
 .xc_stack_usage
                0x00000000       0x19 c:/program files/microchip/xc32/v4.20/bin/bin/../../lib/gcc/pic32c/8.3.1/../../../../pic32c/lib/arm/v5te/nofp\libc-musl.a(__pop_float.o)
 .xc_stack_usage.hdr
                0x00000000        0xe c:/program files/microchip/xc32/v4.20/bin/bin/../../lib/gcc/pic32c/8.3.1/../../../../pic32c/lib/arm/v5te/nofp\libc-musl.a(__pop_float.o)
 .text          0x00000000        0x0 c:/program files/microchip/xc32/v4.20/bin/bin/../../lib/gcc/pic32c/8.3.1/../../../../pic32c/lib/arm/v5te/nofp\libc-musl.a(__push_float.o)
 .data          0x00000000        0x0 c:/program files/microchip/xc32/v4.20/bin/bin/../../lib/gcc/pic32c/8.3.1/../../../../pic32c/lib/arm/v5te/nofp\libc-musl.a(__push_float.o)
 .bss           0x00000000        0x0 c:/program files/microchip/xc32/v4.20/bin/bin/../../lib/gcc/pic32c/8.3.1/../../../../pic32c/lib/arm/v5te/nofp\libc-musl.a(__push_float.o)
 .xc_stack_usage
                0x00000000       0x1a c:/program files/microchip/xc32/v4.20/bin/bin/../../lib/gcc/pic32c/8.3.1/../../../../pic32c/lib/arm/v5te/nofp\libc-musl.a(__push_float.o)
 .text.__push_float
                0x00000000       0x80 c:/program files/microchip/xc32/v4.20/bin/bin/../../lib/gcc/pic32c/8.3.1/../../../../pic32c/lib/arm/v5te/nofp\libc-musl.a(__push_float.o)
 .xc_stack_usage.hdr
                0x00000000        0xe c:/program files/microchip/xc32/v4.20/bin/bin/../../lib/gcc/pic32c/8.3.1/../../../../pic32c/lib/arm/v5te/nofp\libc-musl.a(__push_float.o)
 .debug_info    0x00000000      0x3cc c:/program files/microchip/xc32/v4.20/bin/bin/../../lib/gcc/pic32c/8.3.1/../../../../pic32c/lib/arm/v5te/nofp\libc-musl.a(__push_float.o)
 .debug_abbrev  0x00000000       0xbd c:/program files/microchip/xc32/v4.20/bin/bin/../../lib/gcc/pic32c/8.3.1/../../../../pic32c/lib/arm/v5te/nofp\libc-musl.a(__push_float.o)
 .debug_loc     0x00000000      0x120 c:/program files/microchip/xc32/v4.20/bin/bin/../../lib/gcc/pic32c/8.3.1/../../../../pic32c/lib/arm/v5te/nofp\libc-musl.a(__push_float.o)
 .debug_aranges
                0x00000000       0x20 c:/program files/microchip/xc32/v4.20/bin/bin/../../lib/gcc/pic32c/8.3.1/../../../../pic32c/lib/arm/v5te/nofp\libc-musl.a(__push_float.o)
 .debug_ranges  0x00000000       0x10 c:/program files/microchip/xc32/v4.20/bin/bin/../../lib/gcc/pic32c/8.3.1/../../../../pic32c/lib/arm/v5te/nofp\libc-musl.a(__push_float.o)
 .debug_line    0x00000000      0x1b4 c:/program files/microchip/xc32/v4.20/bin/bin/../../lib/gcc/pic32c/8.3.1/../../../../pic32c/lib/arm/v5te/nofp\libc-musl.a(__push_float.o)
 .debug_str     0x00000000        0x0 c:/program files/microchip/xc32/v4.20/bin/bin/../../lib/gcc/pic32c/8.3.1/../../../../pic32c/lib/arm/v5te/nofp\libc-musl.a(__push_float.o)
 .comment       0x00000000       0x2c c:/program files/microchip/xc32/v4.20/bin/bin/../../lib/gcc/pic32c/8.3.1/../../../../pic32c/lib/arm/v5te/nofp\libc-musl.a(__push_float.o)
 .note.GNU-stack
                0x00000000        0x0 c:/program files/microchip/xc32/v4.20/bin/bin/../../lib/gcc/pic32c/8.3.1/../../../../pic32c/lib/arm/v5te/nofp\libc-musl.a(__push_float.o)
 .debug_frame   0x00000000       0x28 c:/program files/microchip/xc32/v4.20/bin/bin/../../lib/gcc/pic32c/8.3.1/../../../../pic32c/lib/arm/v5te/nofp\libc-musl.a(__push_float.o)
 .ARM.attributes
                0x00000000       0x2d c:/program files/microchip/xc32/v4.20/bin/bin/../../lib/gcc/pic32c/8.3.1/../../../../pic32c/lib/arm/v5te/nofp\libc-musl.a(__push_float.o)
 .text          0x00000000        0x0 c:/program files/microchip/xc32/v4.20/bin/bin/../../lib/gcc/pic32c/8.3.1/../../../../pic32c/lib/arm/v5te/nofp\libc-musl.a(__push_int.o)
 .data          0x00000000        0x0 c:/program files/microchip/xc32/v4.20/bin/bin/../../lib/gcc/pic32c/8.3.1/../../../../pic32c/lib/arm/v5te/nofp\libc-musl.a(__push_int.o)
 .bss           0x00000000        0x0 c:/program files/microchip/xc32/v4.20/bin/bin/../../lib/gcc/pic32c/8.3.1/../../../../pic32c/lib/arm/v5te/nofp\libc-musl.a(__push_int.o)
 .xc_stack_usage
                0x00000000       0x18 c:/program files/microchip/xc32/v4.20/bin/bin/../../lib/gcc/pic32c/8.3.1/../../../../pic32c/lib/arm/v5te/nofp\libc-musl.a(__push_int.o)
 .text.__push_int
                0x00000000      0x13c c:/program files/microchip/xc32/v4.20/bin/bin/../../lib/gcc/pic32c/8.3.1/../../../../pic32c/lib/arm/v5te/nofp\libc-musl.a(__push_int.o)
 .xc_stack_usage.hdr
                0x00000000        0xe c:/program files/microchip/xc32/v4.20/bin/bin/../../lib/gcc/pic32c/8.3.1/../../../../pic32c/lib/arm/v5te/nofp\libc-musl.a(__push_int.o)
 .debug_info    0x00000000      0x3fd c:/program files/microchip/xc32/v4.20/bin/bin/../../lib/gcc/pic32c/8.3.1/../../../../pic32c/lib/arm/v5te/nofp\libc-musl.a(__push_int.o)
 .debug_abbrev  0x00000000       0xbd c:/program files/microchip/xc32/v4.20/bin/bin/../../lib/gcc/pic32c/8.3.1/../../../../pic32c/lib/arm/v5te/nofp\libc-musl.a(__push_int.o)
 .debug_loc     0x00000000      0x32f c:/program files/microchip/xc32/v4.20/bin/bin/../../lib/gcc/pic32c/8.3.1/../../../../pic32c/lib/arm/v5te/nofp\libc-musl.a(__push_int.o)
 .debug_aranges
                0x00000000       0x20 c:/program files/microchip/xc32/v4.20/bin/bin/../../lib/gcc/pic32c/8.3.1/../../../../pic32c/lib/arm/v5te/nofp\libc-musl.a(__push_int.o)
 .debug_ranges  0x00000000       0x10 c:/program files/microchip/xc32/v4.20/bin/bin/../../lib/gcc/pic32c/8.3.1/../../../../pic32c/lib/arm/v5te/nofp\libc-musl.a(__push_int.o)
 .debug_line    0x00000000      0x224 c:/program files/microchip/xc32/v4.20/bin/bin/../../lib/gcc/pic32c/8.3.1/../../../../pic32c/lib/arm/v5te/nofp\libc-musl.a(__push_int.o)
 .debug_str     0x00000000        0x0 c:/program files/microchip/xc32/v4.20/bin/bin/../../lib/gcc/pic32c/8.3.1/../../../../pic32c/lib/arm/v5te/nofp\libc-musl.a(__push_int.o)
 .comment       0x00000000       0x2c c:/program files/microchip/xc32/v4.20/bin/bin/../../lib/gcc/pic32c/8.3.1/../../../../pic32c/lib/arm/v5te/nofp\libc-musl.a(__push_int.o)
 .note.GNU-stack
                0x00000000        0x0 c:/program files/microchip/xc32/v4.20/bin/bin/../../lib/gcc/pic32c/8.3.1/../../../../pic32c/lib/arm/v5te/nofp\libc-musl.a(__push_int.o)
 .debug_frame   0x00000000       0x20 c:/program files/microchip/xc32/v4.20/bin/bin/../../lib/gcc/pic32c/8.3.1/../../../../pic32c/lib/arm/v5te/nofp\libc-musl.a(__push_int.o)
 .ARM.attributes
                0x00000000       0x2d c:/program files/microchip/xc32/v4.20/bin/bin/../../lib/gcc/pic32c/8.3.1/../../../../pic32c/lib/arm/v5te/nofp\libc-musl.a(__push_int.o)
 .text          0x00000000        0x0 c:/program files/microchip/xc32/v4.20/bin/bin/../../lib/gcc/pic32c/8.3.1/../../../../pic32c/lib/arm/v5te/nofp\libc-musl.a(__towrite_rw.o)
 .data          0x00000000        0x0 c:/program files/microchip/xc32/v4.20/bin/bin/../../lib/gcc/pic32c/8.3.1/../../../../pic32c/lib/arm/v5te/nofp\libc-musl.a(__towrite_rw.o)
 .bss           0x00000000        0x0 c:/program files/microchip/xc32/v4.20/bin/bin/../../lib/gcc/pic32c/8.3.1/../../../../pic32c/lib/arm/v5te/nofp\libc-musl.a(__towrite_rw.o)
 .xc_stack_usage
                0x00000000       0x1a c:/program files/microchip/xc32/v4.20/bin/bin/../../lib/gcc/pic32c/8.3.1/../../../../pic32c/lib/arm/v5te/nofp\libc-musl.a(__towrite_rw.o)
 .text.__towrite_rw
                0x00000000       0x34 c:/program files/microchip/xc32/v4.20/bin/bin/../../lib/gcc/pic32c/8.3.1/../../../../pic32c/lib/arm/v5te/nofp\libc-musl.a(__towrite_rw.o)
 .xc_stack_usage.hdr
                0x00000000        0xe c:/program files/microchip/xc32/v4.20/bin/bin/../../lib/gcc/pic32c/8.3.1/../../../../pic32c/lib/arm/v5te/nofp\libc-musl.a(__towrite_rw.o)
 .debug_info    0x00000000      0x5c5 c:/program files/microchip/xc32/v4.20/bin/bin/../../lib/gcc/pic32c/8.3.1/../../../../pic32c/lib/arm/v5te/nofp\libc-musl.a(__towrite_rw.o)
 .debug_abbrev  0x00000000       0xdc c:/program files/microchip/xc32/v4.20/bin/bin/../../lib/gcc/pic32c/8.3.1/../../../../pic32c/lib/arm/v5te/nofp\libc-musl.a(__towrite_rw.o)
 .debug_loc     0x00000000       0x25 c:/program files/microchip/xc32/v4.20/bin/bin/../../lib/gcc/pic32c/8.3.1/../../../../pic32c/lib/arm/v5te/nofp\libc-musl.a(__towrite_rw.o)
 .debug_aranges
                0x00000000       0x20 c:/program files/microchip/xc32/v4.20/bin/bin/../../lib/gcc/pic32c/8.3.1/../../../../pic32c/lib/arm/v5te/nofp\libc-musl.a(__towrite_rw.o)
 .debug_ranges  0x00000000       0x10 c:/program files/microchip/xc32/v4.20/bin/bin/../../lib/gcc/pic32c/8.3.1/../../../../pic32c/lib/arm/v5te/nofp\libc-musl.a(__towrite_rw.o)
 .debug_line    0x00000000      0x1f4 c:/program files/microchip/xc32/v4.20/bin/bin/../../lib/gcc/pic32c/8.3.1/../../../../pic32c/lib/arm/v5te/nofp\libc-musl.a(__towrite_rw.o)
 .debug_str     0x00000000        0x0 c:/program files/microchip/xc32/v4.20/bin/bin/../../lib/gcc/pic32c/8.3.1/../../../../pic32c/lib/arm/v5te/nofp\libc-musl.a(__towrite_rw.o)
 .comment       0x00000000       0x2c c:/program files/microchip/xc32/v4.20/bin/bin/../../lib/gcc/pic32c/8.3.1/../../../../pic32c/lib/arm/v5te/nofp\libc-musl.a(__towrite_rw.o)
 .note.GNU-stack
                0x00000000        0x0 c:/program files/microchip/xc32/v4.20/bin/bin/../../lib/gcc/pic32c/8.3.1/../../../../pic32c/lib/arm/v5te/nofp\libc-musl.a(__towrite_rw.o)
 .debug_frame   0x00000000       0x20 c:/program files/microchip/xc32/v4.20/bin/bin/../../lib/gcc/pic32c/8.3.1/../../../../pic32c/lib/arm/v5te/nofp\libc-musl.a(__towrite_rw.o)
 .ARM.attributes
                0x00000000       0x2d c:/program files/microchip/xc32/v4.20/bin/bin/../../lib/gcc/pic32c/8.3.1/../../../../pic32c/lib/arm/v5te/nofp\libc-musl.a(__towrite_rw.o)
 .text          0x00000000        0x0 c:/program files/microchip/xc32/v4.20/bin/bin/../../lib/gcc/pic32c/8.3.1/../../../../pic32c/lib/arm/v5te/nofp\libc-musl.a(fwrite.o)
 .data          0x00000000        0x0 c:/program files/microchip/xc32/v4.20/bin/bin/../../lib/gcc/pic32c/8.3.1/../../../../pic32c/lib/arm/v5te/nofp\libc-musl.a(fwrite.o)
 .bss           0x00000000        0x0 c:/program files/microchip/xc32/v4.20/bin/bin/../../lib/gcc/pic32c/8.3.1/../../../../pic32c/lib/arm/v5te/nofp\libc-musl.a(fwrite.o)
 .xc_stack_usage
                0x00000000       0x2e c:/program files/microchip/xc32/v4.20/bin/bin/../../lib/gcc/pic32c/8.3.1/../../../../pic32c/lib/arm/v5te/nofp\libc-musl.a(fwrite.o)
 .text.__fwrite_min
                0x00000000        0x8 c:/program files/microchip/xc32/v4.20/bin/bin/../../lib/gcc/pic32c/8.3.1/../../../../pic32c/lib/arm/v5te/nofp\libc-musl.a(fwrite.o)
 .text.fwrite   0x00000000       0x48 c:/program files/microchip/xc32/v4.20/bin/bin/../../lib/gcc/pic32c/8.3.1/../../../../pic32c/lib/arm/v5te/nofp\libc-musl.a(fwrite.o)
 .xc_stack_usage.hdr
                0x00000000        0xe c:/program files/microchip/xc32/v4.20/bin/bin/../../lib/gcc/pic32c/8.3.1/../../../../pic32c/lib/arm/v5te/nofp\libc-musl.a(fwrite.o)
 .debug_info    0x00000000      0x4bf c:/program files/microchip/xc32/v4.20/bin/bin/../../lib/gcc/pic32c/8.3.1/../../../../pic32c/lib/arm/v5te/nofp\libc-musl.a(fwrite.o)
 .debug_abbrev  0x00000000      0x10f c:/program files/microchip/xc32/v4.20/bin/bin/../../lib/gcc/pic32c/8.3.1/../../../../pic32c/lib/arm/v5te/nofp\libc-musl.a(fwrite.o)
 .debug_loc     0x00000000      0x17e c:/program files/microchip/xc32/v4.20/bin/bin/../../lib/gcc/pic32c/8.3.1/../../../../pic32c/lib/arm/v5te/nofp\libc-musl.a(fwrite.o)
 .debug_aranges
                0x00000000       0x28 c:/program files/microchip/xc32/v4.20/bin/bin/../../lib/gcc/pic32c/8.3.1/../../../../pic32c/lib/arm/v5te/nofp\libc-musl.a(fwrite.o)
 .debug_ranges  0x00000000       0x18 c:/program files/microchip/xc32/v4.20/bin/bin/../../lib/gcc/pic32c/8.3.1/../../../../pic32c/lib/arm/v5te/nofp\libc-musl.a(fwrite.o)
 .debug_line    0x00000000      0x1ff c:/program files/microchip/xc32/v4.20/bin/bin/../../lib/gcc/pic32c/8.3.1/../../../../pic32c/lib/arm/v5te/nofp\libc-musl.a(fwrite.o)
 .debug_str     0x00000000        0x0 c:/program files/microchip/xc32/v4.20/bin/bin/../../lib/gcc/pic32c/8.3.1/../../../../pic32c/lib/arm/v5te/nofp\libc-musl.a(fwrite.o)
 .comment       0x00000000       0x2c c:/program files/microchip/xc32/v4.20/bin/bin/../../lib/gcc/pic32c/8.3.1/../../../../pic32c/lib/arm/v5te/nofp\libc-musl.a(fwrite.o)
 .note.GNU-stack
                0x00000000        0x0 c:/program files/microchip/xc32/v4.20/bin/bin/../../lib/gcc/pic32c/8.3.1/../../../../pic32c/lib/arm/v5te/nofp\libc-musl.a(fwrite.o)
 .debug_frame   0x00000000       0x3c c:/program files/microchip/xc32/v4.20/bin/bin/../../lib/gcc/pic32c/8.3.1/../../../../pic32c/lib/arm/v5te/nofp\libc-musl.a(fwrite.o)
 .ARM.attributes
                0x00000000       0x2d c:/program files/microchip/xc32/v4.20/bin/bin/../../lib/gcc/pic32c/8.3.1/../../../../pic32c/lib/arm/v5te/nofp\libc-musl.a(fwrite.o)
 .text          0x00000000        0x0 c:/program files/microchip/xc32/v4.20/bin/bin/../../lib/gcc/pic32c/8.3.1/../../../../pic32c/lib/arm/v5te/nofp\libc-musl.a(putc.o)
 .data          0x00000000        0x0 c:/program files/microchip/xc32/v4.20/bin/bin/../../lib/gcc/pic32c/8.3.1/../../../../pic32c/lib/arm/v5te/nofp\libc-musl.a(putc.o)
 .bss           0x00000000        0x0 c:/program files/microchip/xc32/v4.20/bin/bin/../../lib/gcc/pic32c/8.3.1/../../../../pic32c/lib/arm/v5te/nofp\libc-musl.a(putc.o)
 .xc_stack_usage
                0x00000000       0x4f c:/program files/microchip/xc32/v4.20/bin/bin/../../lib/gcc/pic32c/8.3.1/../../../../pic32c/lib/arm/v5te/nofp\libc-musl.a(putc.o)
 .text.__putc_unbuffered
                0x00000000       0x50 c:/program files/microchip/xc32/v4.20/bin/bin/../../lib/gcc/pic32c/8.3.1/../../../../pic32c/lib/arm/v5te/nofp\libc-musl.a(putc.o)
 .text.putc     0x00000000        0xc c:/program files/microchip/xc32/v4.20/bin/bin/../../lib/gcc/pic32c/8.3.1/../../../../pic32c/lib/arm/v5te/nofp\libc-musl.a(putc.o)
 __xc_reference_data
                0x00000000        0xc c:/program files/microchip/xc32/v4.20/bin/bin/../../lib/gcc/pic32c/8.3.1/../../../../pic32c/lib/arm/v5te/nofp\libc-musl.a(putc.o)
 .xc_stack_usage.hdr
                0x00000000        0xe c:/program files/microchip/xc32/v4.20/bin/bin/../../lib/gcc/pic32c/8.3.1/../../../../pic32c/lib/arm/v5te/nofp\libc-musl.a(putc.o)
 .debug_info    0x00000000      0x493 c:/program files/microchip/xc32/v4.20/bin/bin/../../lib/gcc/pic32c/8.3.1/../../../../pic32c/lib/arm/v5te/nofp\libc-musl.a(putc.o)
 .debug_abbrev  0x00000000      0x109 c:/program files/microchip/xc32/v4.20/bin/bin/../../lib/gcc/pic32c/8.3.1/../../../../pic32c/lib/arm/v5te/nofp\libc-musl.a(putc.o)
 .debug_loc     0x00000000      0x116 c:/program files/microchip/xc32/v4.20/bin/bin/../../lib/gcc/pic32c/8.3.1/../../../../pic32c/lib/arm/v5te/nofp\libc-musl.a(putc.o)
 .debug_aranges
                0x00000000       0x30 c:/program files/microchip/xc32/v4.20/bin/bin/../../lib/gcc/pic32c/8.3.1/../../../../pic32c/lib/arm/v5te/nofp\libc-musl.a(putc.o)
 .debug_ranges  0x00000000       0x20 c:/program files/microchip/xc32/v4.20/bin/bin/../../lib/gcc/pic32c/8.3.1/../../../../pic32c/lib/arm/v5te/nofp\libc-musl.a(putc.o)
 .debug_line    0x00000000      0x1a3 c:/program files/microchip/xc32/v4.20/bin/bin/../../lib/gcc/pic32c/8.3.1/../../../../pic32c/lib/arm/v5te/nofp\libc-musl.a(putc.o)
 .debug_str     0x00000000       0x16 c:/program files/microchip/xc32/v4.20/bin/bin/../../lib/gcc/pic32c/8.3.1/../../../../pic32c/lib/arm/v5te/nofp\libc-musl.a(putc.o)
 .comment       0x00000000       0x2c c:/program files/microchip/xc32/v4.20/bin/bin/../../lib/gcc/pic32c/8.3.1/../../../../pic32c/lib/arm/v5te/nofp\libc-musl.a(putc.o)
 .note.GNU-stack
                0x00000000        0x0 c:/program files/microchip/xc32/v4.20/bin/bin/../../lib/gcc/pic32c/8.3.1/../../../../pic32c/lib/arm/v5te/nofp\libc-musl.a(putc.o)
 .debug_frame   0x00000000       0x54 c:/program files/microchip/xc32/v4.20/bin/bin/../../lib/gcc/pic32c/8.3.1/../../../../pic32c/lib/arm/v5te/nofp\libc-musl.a(putc.o)
 .ARM.attributes
                0x00000000       0x2d c:/program files/microchip/xc32/v4.20/bin/bin/../../lib/gcc/pic32c/8.3.1/../../../../pic32c/lib/arm/v5te/nofp\libc-musl.a(putc.o)
 .text          0x00000000        0x0 c:/program files/microchip/xc32/v4.20/bin/bin/../../lib/gcc/pic32c/8.3.1/../../../../pic32c/lib/arm/v5te/nofp\libc-musl.a(memrchr.o)
 .data          0x00000000        0x0 c:/program files/microchip/xc32/v4.20/bin/bin/../../lib/gcc/pic32c/8.3.1/../../../../pic32c/lib/arm/v5te/nofp\libc-musl.a(memrchr.o)
 .bss           0x00000000        0x0 c:/program files/microchip/xc32/v4.20/bin/bin/../../lib/gcc/pic32c/8.3.1/../../../../pic32c/lib/arm/v5te/nofp\libc-musl.a(memrchr.o)
 .xc_stack_usage
                0x00000000       0x17 c:/program files/microchip/xc32/v4.20/bin/bin/../../lib/gcc/pic32c/8.3.1/../../../../pic32c/lib/arm/v5te/nofp\libc-musl.a(memrchr.o)
 .text.__memrchr
                0x00000000       0x30 c:/program files/microchip/xc32/v4.20/bin/bin/../../lib/gcc/pic32c/8.3.1/../../../../pic32c/lib/arm/v5te/nofp\libc-musl.a(memrchr.o)
 .xc_stack_usage.hdr
                0x00000000        0xe c:/program files/microchip/xc32/v4.20/bin/bin/../../lib/gcc/pic32c/8.3.1/../../../../pic32c/lib/arm/v5te/nofp\libc-musl.a(memrchr.o)
 .debug_info    0x00000000      0x2e4 c:/program files/microchip/xc32/v4.20/bin/bin/../../lib/gcc/pic32c/8.3.1/../../../../pic32c/lib/arm/v5te/nofp\libc-musl.a(memrchr.o)
 .debug_abbrev  0x00000000       0x92 c:/program files/microchip/xc32/v4.20/bin/bin/../../lib/gcc/pic32c/8.3.1/../../../../pic32c/lib/arm/v5te/nofp\libc-musl.a(memrchr.o)
 .debug_loc     0x00000000       0xa6 c:/program files/microchip/xc32/v4.20/bin/bin/../../lib/gcc/pic32c/8.3.1/../../../../pic32c/lib/arm/v5te/nofp\libc-musl.a(memrchr.o)
 .debug_aranges
                0x00000000       0x20 c:/program files/microchip/xc32/v4.20/bin/bin/../../lib/gcc/pic32c/8.3.1/../../../../pic32c/lib/arm/v5te/nofp\libc-musl.a(memrchr.o)
 .debug_ranges  0x00000000       0x10 c:/program files/microchip/xc32/v4.20/bin/bin/../../lib/gcc/pic32c/8.3.1/../../../../pic32c/lib/arm/v5te/nofp\libc-musl.a(memrchr.o)
 .debug_line    0x00000000       0xdc c:/program files/microchip/xc32/v4.20/bin/bin/../../lib/gcc/pic32c/8.3.1/../../../../pic32c/lib/arm/v5te/nofp\libc-musl.a(memrchr.o)
 .debug_str     0x00000000        0x0 c:/program files/microchip/xc32/v4.20/bin/bin/../../lib/gcc/pic32c/8.3.1/../../../../pic32c/lib/arm/v5te/nofp\libc-musl.a(memrchr.o)
 .comment       0x00000000       0x2c c:/program files/microchip/xc32/v4.20/bin/bin/../../lib/gcc/pic32c/8.3.1/../../../../pic32c/lib/arm/v5te/nofp\libc-musl.a(memrchr.o)
 .note.GNU-stack
                0x00000000        0x0 c:/program files/microchip/xc32/v4.20/bin/bin/../../lib/gcc/pic32c/8.3.1/../../../../pic32c/lib/arm/v5te/nofp\libc-musl.a(memrchr.o)
 .debug_frame   0x00000000       0x20 c:/program files/microchip/xc32/v4.20/bin/bin/../../lib/gcc/pic32c/8.3.1/../../../../pic32c/lib/arm/v5te/nofp\libc-musl.a(memrchr.o)
 .ARM.attributes
                0x00000000       0x2d c:/program files/microchip/xc32/v4.20/bin/bin/../../lib/gcc/pic32c/8.3.1/../../../../pic32c/lib/arm/v5te/nofp\libc-musl.a(memrchr.o)
 .text          0x00000000        0x0 c:/program files/microchip/xc32/v4.20/bin/bin/../../lib/gcc/pic32c/8.3.1/../../../../pic32c/lib/arm/v5te/nofp\libc-musl.a(memchr.o)
 .data          0x00000000        0x0 c:/program files/microchip/xc32/v4.20/bin/bin/../../lib/gcc/pic32c/8.3.1/../../../../pic32c/lib/arm/v5te/nofp\libc-musl.a(memchr.o)
 .bss           0x00000000        0x0 c:/program files/microchip/xc32/v4.20/bin/bin/../../lib/gcc/pic32c/8.3.1/../../../../pic32c/lib/arm/v5te/nofp\libc-musl.a(memchr.o)
 .xc_stack_usage
                0x00000000       0x14 c:/program files/microchip/xc32/v4.20/bin/bin/../../lib/gcc/pic32c/8.3.1/../../../../pic32c/lib/arm/v5te/nofp\libc-musl.a(memchr.o)
 .text.memchr   0x00000000       0x30 c:/program files/microchip/xc32/v4.20/bin/bin/../../lib/gcc/pic32c/8.3.1/../../../../pic32c/lib/arm/v5te/nofp\libc-musl.a(memchr.o)
 .xc_stack_usage.hdr
                0x00000000        0xe c:/program files/microchip/xc32/v4.20/bin/bin/../../lib/gcc/pic32c/8.3.1/../../../../pic32c/lib/arm/v5te/nofp\libc-musl.a(memchr.o)
 .debug_info    0x00000000      0x2e2 c:/program files/microchip/xc32/v4.20/bin/bin/../../lib/gcc/pic32c/8.3.1/../../../../pic32c/lib/arm/v5te/nofp\libc-musl.a(memchr.o)
 .debug_abbrev  0x00000000       0x92 c:/program files/microchip/xc32/v4.20/bin/bin/../../lib/gcc/pic32c/8.3.1/../../../../pic32c/lib/arm/v5te/nofp\libc-musl.a(memchr.o)
 .debug_loc     0x00000000       0xd3 c:/program files/microchip/xc32/v4.20/bin/bin/../../lib/gcc/pic32c/8.3.1/../../../../pic32c/lib/arm/v5te/nofp\libc-musl.a(memchr.o)
 .debug_aranges
                0x00000000       0x20 c:/program files/microchip/xc32/v4.20/bin/bin/../../lib/gcc/pic32c/8.3.1/../../../../pic32c/lib/arm/v5te/nofp\libc-musl.a(memchr.o)
 .debug_ranges  0x00000000       0x10 c:/program files/microchip/xc32/v4.20/bin/bin/../../lib/gcc/pic32c/8.3.1/../../../../pic32c/lib/arm/v5te/nofp\libc-musl.a(memchr.o)
 .debug_line    0x00000000       0xf3 c:/program files/microchip/xc32/v4.20/bin/bin/../../lib/gcc/pic32c/8.3.1/../../../../pic32c/lib/arm/v5te/nofp\libc-musl.a(memchr.o)
 .debug_str     0x00000000        0x0 c:/program files/microchip/xc32/v4.20/bin/bin/../../lib/gcc/pic32c/8.3.1/../../../../pic32c/lib/arm/v5te/nofp\libc-musl.a(memchr.o)
 .comment       0x00000000       0x2c c:/program files/microchip/xc32/v4.20/bin/bin/../../lib/gcc/pic32c/8.3.1/../../../../pic32c/lib/arm/v5te/nofp\libc-musl.a(memchr.o)
 .note.GNU-stack
                0x00000000        0x0 c:/program files/microchip/xc32/v4.20/bin/bin/../../lib/gcc/pic32c/8.3.1/../../../../pic32c/lib/arm/v5te/nofp\libc-musl.a(memchr.o)
 .debug_frame   0x00000000       0x20 c:/program files/microchip/xc32/v4.20/bin/bin/../../lib/gcc/pic32c/8.3.1/../../../../pic32c/lib/arm/v5te/nofp\libc-musl.a(memchr.o)
 .ARM.attributes
                0x00000000       0x2d c:/program files/microchip/xc32/v4.20/bin/bin/../../lib/gcc/pic32c/8.3.1/../../../../pic32c/lib/arm/v5te/nofp\libc-musl.a(memchr.o)
 .text          0x00000000        0x0 c:/program files/microchip/xc32/v4.20/bin/bin/../../lib/gcc/pic32c/8.3.1/../../../../pic32c/lib/arm/v5te/nofp\libc-musl.a(strcspn.o)
 .data          0x00000000        0x0 c:/program files/microchip/xc32/v4.20/bin/bin/../../lib/gcc/pic32c/8.3.1/../../../../pic32c/lib/arm/v5te/nofp\libc-musl.a(strcspn.o)
 .bss           0x00000000        0x0 c:/program files/microchip/xc32/v4.20/bin/bin/../../lib/gcc/pic32c/8.3.1/../../../../pic32c/lib/arm/v5te/nofp\libc-musl.a(strcspn.o)
 .xc_stack_usage
                0x00000000       0x15 c:/program files/microchip/xc32/v4.20/bin/bin/../../lib/gcc/pic32c/8.3.1/../../../../pic32c/lib/arm/v5te/nofp\libc-musl.a(strcspn.o)
 .text.strcspn  0x00000000       0xb8 c:/program files/microchip/xc32/v4.20/bin/bin/../../lib/gcc/pic32c/8.3.1/../../../../pic32c/lib/arm/v5te/nofp\libc-musl.a(strcspn.o)
 .xc_stack_usage.hdr
                0x00000000        0xe c:/program files/microchip/xc32/v4.20/bin/bin/../../lib/gcc/pic32c/8.3.1/../../../../pic32c/lib/arm/v5te/nofp\libc-musl.a(strcspn.o)
 .debug_info    0x00000000      0x307 c:/program files/microchip/xc32/v4.20/bin/bin/../../lib/gcc/pic32c/8.3.1/../../../../pic32c/lib/arm/v5te/nofp\libc-musl.a(strcspn.o)
 .debug_abbrev  0x00000000       0xf5 c:/program files/microchip/xc32/v4.20/bin/bin/../../lib/gcc/pic32c/8.3.1/../../../../pic32c/lib/arm/v5te/nofp\libc-musl.a(strcspn.o)
 .debug_loc     0x00000000      0x123 c:/program files/microchip/xc32/v4.20/bin/bin/../../lib/gcc/pic32c/8.3.1/../../../../pic32c/lib/arm/v5te/nofp\libc-musl.a(strcspn.o)
 .debug_aranges
                0x00000000       0x20 c:/program files/microchip/xc32/v4.20/bin/bin/../../lib/gcc/pic32c/8.3.1/../../../../pic32c/lib/arm/v5te/nofp\libc-musl.a(strcspn.o)
 .debug_ranges  0x00000000       0x10 c:/program files/microchip/xc32/v4.20/bin/bin/../../lib/gcc/pic32c/8.3.1/../../../../pic32c/lib/arm/v5te/nofp\libc-musl.a(strcspn.o)
 .debug_line    0x00000000      0x191 c:/program files/microchip/xc32/v4.20/bin/bin/../../lib/gcc/pic32c/8.3.1/../../../../pic32c/lib/arm/v5te/nofp\libc-musl.a(strcspn.o)
 .debug_str     0x00000000        0xc c:/program files/microchip/xc32/v4.20/bin/bin/../../lib/gcc/pic32c/8.3.1/../../../../pic32c/lib/arm/v5te/nofp\libc-musl.a(strcspn.o)
 .comment       0x00000000       0x2c c:/program files/microchip/xc32/v4.20/bin/bin/../../lib/gcc/pic32c/8.3.1/../../../../pic32c/lib/arm/v5te/nofp\libc-musl.a(strcspn.o)
 .note.GNU-stack
                0x00000000        0x0 c:/program files/microchip/xc32/v4.20/bin/bin/../../lib/gcc/pic32c/8.3.1/../../../../pic32c/lib/arm/v5te/nofp\libc-musl.a(strcspn.o)
 .debug_frame   0x00000000       0x34 c:/program files/microchip/xc32/v4.20/bin/bin/../../lib/gcc/pic32c/8.3.1/../../../../pic32c/lib/arm/v5te/nofp\libc-musl.a(strcspn.o)
 .ARM.attributes
                0x00000000       0x2d c:/program files/microchip/xc32/v4.20/bin/bin/../../lib/gcc/pic32c/8.3.1/../../../../pic32c/lib/arm/v5te/nofp\libc-musl.a(strcspn.o)
 .text          0x00000000        0x0 c:/program files/microchip/xc32/v4.20/bin/bin/../../lib/gcc/pic32c/8.3.1/../../../../pic32c/lib/arm/v5te/nofp\libc-musl.a(strspn.o)
 .data          0x00000000        0x0 c:/program files/microchip/xc32/v4.20/bin/bin/../../lib/gcc/pic32c/8.3.1/../../../../pic32c/lib/arm/v5te/nofp\libc-musl.a(strspn.o)
 .bss           0x00000000        0x0 c:/program files/microchip/xc32/v4.20/bin/bin/../../lib/gcc/pic32c/8.3.1/../../../../pic32c/lib/arm/v5te/nofp\libc-musl.a(strspn.o)
 .xc_stack_usage
                0x00000000       0x14 c:/program files/microchip/xc32/v4.20/bin/bin/../../lib/gcc/pic32c/8.3.1/../../../../pic32c/lib/arm/v5te/nofp\libc-musl.a(strspn.o)
 .text.strspn   0x00000000       0xcc c:/program files/microchip/xc32/v4.20/bin/bin/../../lib/gcc/pic32c/8.3.1/../../../../pic32c/lib/arm/v5te/nofp\libc-musl.a(strspn.o)
 .xc_stack_usage.hdr
                0x00000000        0xe c:/program files/microchip/xc32/v4.20/bin/bin/../../lib/gcc/pic32c/8.3.1/../../../../pic32c/lib/arm/v5te/nofp\libc-musl.a(strspn.o)
 .debug_info    0x00000000      0x2ec c:/program files/microchip/xc32/v4.20/bin/bin/../../lib/gcc/pic32c/8.3.1/../../../../pic32c/lib/arm/v5te/nofp\libc-musl.a(strspn.o)
 .debug_abbrev  0x00000000       0xd2 c:/program files/microchip/xc32/v4.20/bin/bin/../../lib/gcc/pic32c/8.3.1/../../../../pic32c/lib/arm/v5te/nofp\libc-musl.a(strspn.o)
 .debug_loc     0x00000000      0x126 c:/program files/microchip/xc32/v4.20/bin/bin/../../lib/gcc/pic32c/8.3.1/../../../../pic32c/lib/arm/v5te/nofp\libc-musl.a(strspn.o)
 .debug_aranges
                0x00000000       0x20 c:/program files/microchip/xc32/v4.20/bin/bin/../../lib/gcc/pic32c/8.3.1/../../../../pic32c/lib/arm/v5te/nofp\libc-musl.a(strspn.o)
 .debug_ranges  0x00000000       0x10 c:/program files/microchip/xc32/v4.20/bin/bin/../../lib/gcc/pic32c/8.3.1/../../../../pic32c/lib/arm/v5te/nofp\libc-musl.a(strspn.o)
 .debug_line    0x00000000      0x12b c:/program files/microchip/xc32/v4.20/bin/bin/../../lib/gcc/pic32c/8.3.1/../../../../pic32c/lib/arm/v5te/nofp\libc-musl.a(strspn.o)
 .debug_str     0x00000000        0x0 c:/program files/microchip/xc32/v4.20/bin/bin/../../lib/gcc/pic32c/8.3.1/../../../../pic32c/lib/arm/v5te/nofp\libc-musl.a(strspn.o)
 .comment       0x00000000       0x2c c:/program files/microchip/xc32/v4.20/bin/bin/../../lib/gcc/pic32c/8.3.1/../../../../pic32c/lib/arm/v5te/nofp\libc-musl.a(strspn.o)
 .note.GNU-stack
                0x00000000        0x0 c:/program files/microchip/xc32/v4.20/bin/bin/../../lib/gcc/pic32c/8.3.1/../../../../pic32c/lib/arm/v5te/nofp\libc-musl.a(strspn.o)
 .debug_frame   0x00000000       0x34 c:/program files/microchip/xc32/v4.20/bin/bin/../../lib/gcc/pic32c/8.3.1/../../../../pic32c/lib/arm/v5te/nofp\libc-musl.a(strspn.o)
 .ARM.attributes
                0x00000000       0x2d c:/program files/microchip/xc32/v4.20/bin/bin/../../lib/gcc/pic32c/8.3.1/../../../../pic32c/lib/arm/v5te/nofp\libc-musl.a(strspn.o)
 .text          0x00000000        0x0 c:/program files/microchip/xc32/v4.20/bin/bin/../../lib/gcc/pic32c/8.3.1/../../../../pic32c/lib/arm/v5te/nofp\libc-musl.a(__int_vfscanf.o)
 .data          0x00000000        0x0 c:/program files/microchip/xc32/v4.20/bin/bin/../../lib/gcc/pic32c/8.3.1/../../../../pic32c/lib/arm/v5te/nofp\libc-musl.a(__int_vfscanf.o)
 .bss           0x00000000        0x0 c:/program files/microchip/xc32/v4.20/bin/bin/../../lib/gcc/pic32c/8.3.1/../../../../pic32c/lib/arm/v5te/nofp\libc-musl.a(__int_vfscanf.o)
 .xc_stack_usage
                0x00000000       0x17 c:/program files/microchip/xc32/v4.20/bin/bin/../../lib/gcc/pic32c/8.3.1/../../../../pic32c/lib/arm/v5te/nofp\libc-musl.a(__int_vfscanf.o)
 .text.__vfscanf
                0x00000000       0x28 c:/program files/microchip/xc32/v4.20/bin/bin/../../lib/gcc/pic32c/8.3.1/../../../../pic32c/lib/arm/v5te/nofp\libc-musl.a(__int_vfscanf.o)
 .xc_stack_usage.hdr
                0x00000000        0xe c:/program files/microchip/xc32/v4.20/bin/bin/../../lib/gcc/pic32c/8.3.1/../../../../pic32c/lib/arm/v5te/nofp\libc-musl.a(__int_vfscanf.o)
 .debug_info    0x00000000      0x677 c:/program files/microchip/xc32/v4.20/bin/bin/../../lib/gcc/pic32c/8.3.1/../../../../pic32c/lib/arm/v5te/nofp\libc-musl.a(__int_vfscanf.o)
 .debug_abbrev  0x00000000      0x145 c:/program files/microchip/xc32/v4.20/bin/bin/../../lib/gcc/pic32c/8.3.1/../../../../pic32c/lib/arm/v5te/nofp\libc-musl.a(__int_vfscanf.o)
 .debug_loc     0x00000000       0x88 c:/program files/microchip/xc32/v4.20/bin/bin/../../lib/gcc/pic32c/8.3.1/../../../../pic32c/lib/arm/v5te/nofp\libc-musl.a(__int_vfscanf.o)
 .debug_aranges
                0x00000000       0x20 c:/program files/microchip/xc32/v4.20/bin/bin/../../lib/gcc/pic32c/8.3.1/../../../../pic32c/lib/arm/v5te/nofp\libc-musl.a(__int_vfscanf.o)
 .debug_ranges  0x00000000       0x10 c:/program files/microchip/xc32/v4.20/bin/bin/../../lib/gcc/pic32c/8.3.1/../../../../pic32c/lib/arm/v5te/nofp\libc-musl.a(__int_vfscanf.o)
 .debug_line    0x00000000      0x1ee c:/program files/microchip/xc32/v4.20/bin/bin/../../lib/gcc/pic32c/8.3.1/../../../../pic32c/lib/arm/v5te/nofp\libc-musl.a(__int_vfscanf.o)
 .debug_str     0x00000000        0xd c:/program files/microchip/xc32/v4.20/bin/bin/../../lib/gcc/pic32c/8.3.1/../../../../pic32c/lib/arm/v5te/nofp\libc-musl.a(__int_vfscanf.o)
 .comment       0x00000000       0x2c c:/program files/microchip/xc32/v4.20/bin/bin/../../lib/gcc/pic32c/8.3.1/../../../../pic32c/lib/arm/v5te/nofp\libc-musl.a(__int_vfscanf.o)
 .note.GNU-stack
                0x00000000        0x0 c:/program files/microchip/xc32/v4.20/bin/bin/../../lib/gcc/pic32c/8.3.1/../../../../pic32c/lib/arm/v5te/nofp\libc-musl.a(__int_vfscanf.o)
 .debug_frame   0x00000000       0x2c c:/program files/microchip/xc32/v4.20/bin/bin/../../lib/gcc/pic32c/8.3.1/../../../../pic32c/lib/arm/v5te/nofp\libc-musl.a(__int_vfscanf.o)
 .ARM.attributes
                0x00000000       0x2d c:/program files/microchip/xc32/v4.20/bin/bin/../../lib/gcc/pic32c/8.3.1/../../../../pic32c/lib/arm/v5te/nofp\libc-musl.a(__int_vfscanf.o)
 .text          0x00000000        0x0 c:/program files/microchip/xc32/v4.20/bin/bin/../../lib/gcc/pic32c/8.3.1/../../../../pic32c/lib/arm/v5te/nofp\libc-musl.a(__int_vsnprintf.o)
 .data          0x00000000        0x0 c:/program files/microchip/xc32/v4.20/bin/bin/../../lib/gcc/pic32c/8.3.1/../../../../pic32c/lib/arm/v5te/nofp\libc-musl.a(__int_vsnprintf.o)
 .bss           0x00000000        0x0 c:/program files/microchip/xc32/v4.20/bin/bin/../../lib/gcc/pic32c/8.3.1/../../../../pic32c/lib/arm/v5te/nofp\libc-musl.a(__int_vsnprintf.o)
 .xc_stack_usage
                0x00000000       0x19 c:/program files/microchip/xc32/v4.20/bin/bin/../../lib/gcc/pic32c/8.3.1/../../../../pic32c/lib/arm/v5te/nofp\libc-musl.a(__int_vsnprintf.o)
 .xc_stack_usage.hdr
                0x00000000        0xe c:/program files/microchip/xc32/v4.20/bin/bin/../../lib/gcc/pic32c/8.3.1/../../../../pic32c/lib/arm/v5te/nofp\libc-musl.a(__int_vsnprintf.o)
 .text          0x00000000        0x0 c:/program files/microchip/xc32/v4.20/bin/bin/../../lib/gcc/pic32c/8.3.1/../../../../pic32c/lib/arm/v5te/nofp\libc-musl.a(__toread.o)
 .data          0x00000000        0x0 c:/program files/microchip/xc32/v4.20/bin/bin/../../lib/gcc/pic32c/8.3.1/../../../../pic32c/lib/arm/v5te/nofp\libc-musl.a(__toread.o)
 .bss           0x00000000        0x0 c:/program files/microchip/xc32/v4.20/bin/bin/../../lib/gcc/pic32c/8.3.1/../../../../pic32c/lib/arm/v5te/nofp\libc-musl.a(__toread.o)
 .xc_stack_usage
                0x00000000       0x3d c:/program files/microchip/xc32/v4.20/bin/bin/../../lib/gcc/pic32c/8.3.1/../../../../pic32c/lib/arm/v5te/nofp\libc-musl.a(__toread.o)
 .text.__toread
                0x00000000       0x84 c:/program files/microchip/xc32/v4.20/bin/bin/../../lib/gcc/pic32c/8.3.1/../../../../pic32c/lib/arm/v5te/nofp\libc-musl.a(__toread.o)
 .text.__toread_needs_stdio_exit
                0x00000000        0x4 c:/program files/microchip/xc32/v4.20/bin/bin/../../lib/gcc/pic32c/8.3.1/../../../../pic32c/lib/arm/v5te/nofp\libc-musl.a(__toread.o)
 .xc_stack_usage.hdr
                0x00000000        0xe c:/program files/microchip/xc32/v4.20/bin/bin/../../lib/gcc/pic32c/8.3.1/../../../../pic32c/lib/arm/v5te/nofp\libc-musl.a(__toread.o)
 .debug_info    0x00000000      0x61b c:/program files/microchip/xc32/v4.20/bin/bin/../../lib/gcc/pic32c/8.3.1/../../../../pic32c/lib/arm/v5te/nofp\libc-musl.a(__toread.o)
 .debug_abbrev  0x00000000      0x12f c:/program files/microchip/xc32/v4.20/bin/bin/../../lib/gcc/pic32c/8.3.1/../../../../pic32c/lib/arm/v5te/nofp\libc-musl.a(__toread.o)
 .debug_loc     0x00000000       0x42 c:/program files/microchip/xc32/v4.20/bin/bin/../../lib/gcc/pic32c/8.3.1/../../../../pic32c/lib/arm/v5te/nofp\libc-musl.a(__toread.o)
 .debug_aranges
                0x00000000       0x28 c:/program files/microchip/xc32/v4.20/bin/bin/../../lib/gcc/pic32c/8.3.1/../../../../pic32c/lib/arm/v5te/nofp\libc-musl.a(__toread.o)
 .debug_ranges  0x00000000       0x18 c:/program files/microchip/xc32/v4.20/bin/bin/../../lib/gcc/pic32c/8.3.1/../../../../pic32c/lib/arm/v5te/nofp\libc-musl.a(__toread.o)
 .debug_line    0x00000000      0x22b c:/program files/microchip/xc32/v4.20/bin/bin/../../lib/gcc/pic32c/8.3.1/../../../../pic32c/lib/arm/v5te/nofp\libc-musl.a(__toread.o)
 .debug_str     0x00000000       0x14 c:/program files/microchip/xc32/v4.20/bin/bin/../../lib/gcc/pic32c/8.3.1/../../../../pic32c/lib/arm/v5te/nofp\libc-musl.a(__toread.o)
 .comment       0x00000000       0x2c c:/program files/microchip/xc32/v4.20/bin/bin/../../lib/gcc/pic32c/8.3.1/../../../../pic32c/lib/arm/v5te/nofp\libc-musl.a(__toread.o)
 .note.GNU-stack
                0x00000000        0x0 c:/program files/microchip/xc32/v4.20/bin/bin/../../lib/gcc/pic32c/8.3.1/../../../../pic32c/lib/arm/v5te/nofp\libc-musl.a(__toread.o)
 .debug_frame   0x00000000       0x38 c:/program files/microchip/xc32/v4.20/bin/bin/../../lib/gcc/pic32c/8.3.1/../../../../pic32c/lib/arm/v5te/nofp\libc-musl.a(__toread.o)
 .ARM.attributes
                0x00000000       0x2d c:/program files/microchip/xc32/v4.20/bin/bin/../../lib/gcc/pic32c/8.3.1/../../../../pic32c/lib/arm/v5te/nofp\libc-musl.a(__toread.o)
 .text          0x00000000        0x0 c:/program files/microchip/xc32/v4.20/bin/bin/../../lib/gcc/pic32c/8.3.1/../../../../pic32c/lib/arm/v5te/nofp\libc-musl.a(__fopen_rw.o)
 .data          0x00000000        0x0 c:/program files/microchip/xc32/v4.20/bin/bin/../../lib/gcc/pic32c/8.3.1/../../../../pic32c/lib/arm/v5te/nofp\libc-musl.a(__fopen_rw.o)
 .bss           0x00000000        0x0 c:/program files/microchip/xc32/v4.20/bin/bin/../../lib/gcc/pic32c/8.3.1/../../../../pic32c/lib/arm/v5te/nofp\libc-musl.a(__fopen_rw.o)
 .xc_stack_usage
                0x00000000       0x18 c:/program files/microchip/xc32/v4.20/bin/bin/../../lib/gcc/pic32c/8.3.1/../../../../pic32c/lib/arm/v5te/nofp\libc-musl.a(__fopen_rw.o)
 .text.__fopen_rw
                0x00000000       0x74 c:/program files/microchip/xc32/v4.20/bin/bin/../../lib/gcc/pic32c/8.3.1/../../../../pic32c/lib/arm/v5te/nofp\libc-musl.a(__fopen_rw.o)
 .xc_stack_usage.hdr
                0x00000000        0xe c:/program files/microchip/xc32/v4.20/bin/bin/../../lib/gcc/pic32c/8.3.1/../../../../pic32c/lib/arm/v5te/nofp\libc-musl.a(__fopen_rw.o)
 .debug_info    0x00000000      0x67f c:/program files/microchip/xc32/v4.20/bin/bin/../../lib/gcc/pic32c/8.3.1/../../../../pic32c/lib/arm/v5te/nofp\libc-musl.a(__fopen_rw.o)
 .debug_abbrev  0x00000000      0x110 c:/program files/microchip/xc32/v4.20/bin/bin/../../lib/gcc/pic32c/8.3.1/../../../../pic32c/lib/arm/v5te/nofp\libc-musl.a(__fopen_rw.o)
 .debug_loc     0x00000000       0x42 c:/program files/microchip/xc32/v4.20/bin/bin/../../lib/gcc/pic32c/8.3.1/../../../../pic32c/lib/arm/v5te/nofp\libc-musl.a(__fopen_rw.o)
 .debug_aranges
                0x00000000       0x20 c:/program files/microchip/xc32/v4.20/bin/bin/../../lib/gcc/pic32c/8.3.1/../../../../pic32c/lib/arm/v5te/nofp\libc-musl.a(__fopen_rw.o)
 .debug_ranges  0x00000000       0x10 c:/program files/microchip/xc32/v4.20/bin/bin/../../lib/gcc/pic32c/8.3.1/../../../../pic32c/lib/arm/v5te/nofp\libc-musl.a(__fopen_rw.o)
 .debug_line    0x00000000      0x29c c:/program files/microchip/xc32/v4.20/bin/bin/../../lib/gcc/pic32c/8.3.1/../../../../pic32c/lib/arm/v5te/nofp\libc-musl.a(__fopen_rw.o)
 .debug_str     0x00000000        0x0 c:/program files/microchip/xc32/v4.20/bin/bin/../../lib/gcc/pic32c/8.3.1/../../../../pic32c/lib/arm/v5te/nofp\libc-musl.a(__fopen_rw.o)
 .comment       0x00000000       0x2c c:/program files/microchip/xc32/v4.20/bin/bin/../../lib/gcc/pic32c/8.3.1/../../../../pic32c/lib/arm/v5te/nofp\libc-musl.a(__fopen_rw.o)
 .note.GNU-stack
                0x00000000        0x0 c:/program files/microchip/xc32/v4.20/bin/bin/../../lib/gcc/pic32c/8.3.1/../../../../pic32c/lib/arm/v5te/nofp\libc-musl.a(__fopen_rw.o)
 .debug_frame   0x00000000       0x28 c:/program files/microchip/xc32/v4.20/bin/bin/../../lib/gcc/pic32c/8.3.1/../../../../pic32c/lib/arm/v5te/nofp\libc-musl.a(__fopen_rw.o)
 .ARM.attributes
                0x00000000       0x2d c:/program files/microchip/xc32/v4.20/bin/bin/../../lib/gcc/pic32c/8.3.1/../../../../pic32c/lib/arm/v5te/nofp\libc-musl.a(__fopen_rw.o)
 .text          0x00000000        0x0 c:/program files/microchip/xc32/v4.20/bin/bin/../../lib/gcc/pic32c/8.3.1/../../../../pic32c/lib/arm/v5te/nofp\libc-musl.a(__ftello_rw.o)
 .data          0x00000000        0x0 c:/program files/microchip/xc32/v4.20/bin/bin/../../lib/gcc/pic32c/8.3.1/../../../../pic32c/lib/arm/v5te/nofp\libc-musl.a(__ftello_rw.o)
 .bss           0x00000000        0x0 c:/program files/microchip/xc32/v4.20/bin/bin/../../lib/gcc/pic32c/8.3.1/../../../../pic32c/lib/arm/v5te/nofp\libc-musl.a(__ftello_rw.o)
 .xc_stack_usage
                0x00000000       0x1d c:/program files/microchip/xc32/v4.20/bin/bin/../../lib/gcc/pic32c/8.3.1/../../../../pic32c/lib/arm/v5te/nofp\libc-musl.a(__ftello_rw.o)
 .text.__ftello_adj_rw
                0x00000000       0x44 c:/program files/microchip/xc32/v4.20/bin/bin/../../lib/gcc/pic32c/8.3.1/../../../../pic32c/lib/arm/v5te/nofp\libc-musl.a(__ftello_rw.o)
 .xc_stack_usage.hdr
                0x00000000        0xe c:/program files/microchip/xc32/v4.20/bin/bin/../../lib/gcc/pic32c/8.3.1/../../../../pic32c/lib/arm/v5te/nofp\libc-musl.a(__ftello_rw.o)
 .debug_info    0x00000000      0x5e0 c:/program files/microchip/xc32/v4.20/bin/bin/../../lib/gcc/pic32c/8.3.1/../../../../pic32c/lib/arm/v5te/nofp\libc-musl.a(__ftello_rw.o)
 .debug_abbrev  0x00000000       0xef c:/program files/microchip/xc32/v4.20/bin/bin/../../lib/gcc/pic32c/8.3.1/../../../../pic32c/lib/arm/v5te/nofp\libc-musl.a(__ftello_rw.o)
 .debug_loc     0x00000000       0x45 c:/program files/microchip/xc32/v4.20/bin/bin/../../lib/gcc/pic32c/8.3.1/../../../../pic32c/lib/arm/v5te/nofp\libc-musl.a(__ftello_rw.o)
 .debug_aranges
                0x00000000       0x20 c:/program files/microchip/xc32/v4.20/bin/bin/../../lib/gcc/pic32c/8.3.1/../../../../pic32c/lib/arm/v5te/nofp\libc-musl.a(__ftello_rw.o)
 .debug_ranges  0x00000000       0x10 c:/program files/microchip/xc32/v4.20/bin/bin/../../lib/gcc/pic32c/8.3.1/../../../../pic32c/lib/arm/v5te/nofp\libc-musl.a(__ftello_rw.o)
 .debug_line    0x00000000      0x1e2 c:/program files/microchip/xc32/v4.20/bin/bin/../../lib/gcc/pic32c/8.3.1/../../../../pic32c/lib/arm/v5te/nofp\libc-musl.a(__ftello_rw.o)
 .debug_str     0x00000000        0x0 c:/program files/microchip/xc32/v4.20/bin/bin/../../lib/gcc/pic32c/8.3.1/../../../../pic32c/lib/arm/v5te/nofp\libc-musl.a(__ftello_rw.o)
 .comment       0x00000000       0x2c c:/program files/microchip/xc32/v4.20/bin/bin/../../lib/gcc/pic32c/8.3.1/../../../../pic32c/lib/arm/v5te/nofp\libc-musl.a(__ftello_rw.o)
 .note.GNU-stack
                0x00000000        0x0 c:/program files/microchip/xc32/v4.20/bin/bin/../../lib/gcc/pic32c/8.3.1/../../../../pic32c/lib/arm/v5te/nofp\libc-musl.a(__ftello_rw.o)
 .debug_frame   0x00000000       0x28 c:/program files/microchip/xc32/v4.20/bin/bin/../../lib/gcc/pic32c/8.3.1/../../../../pic32c/lib/arm/v5te/nofp\libc-musl.a(__ftello_rw.o)
 .ARM.attributes
                0x00000000       0x2d c:/program files/microchip/xc32/v4.20/bin/bin/../../lib/gcc/pic32c/8.3.1/../../../../pic32c/lib/arm/v5te/nofp\libc-musl.a(__ftello_rw.o)
 .text          0x00000000        0x0 c:/program files/microchip/xc32/v4.20/bin/bin/../../lib/gcc/pic32c/8.3.1/../../../../pic32c/lib/arm/v5te/nofp\libc-musl.a(__init_stdio.o)
 .data          0x00000000        0x0 c:/program files/microchip/xc32/v4.20/bin/bin/../../lib/gcc/pic32c/8.3.1/../../../../pic32c/lib/arm/v5te/nofp\libc-musl.a(__init_stdio.o)
 .bss           0x00000000        0x0 c:/program files/microchip/xc32/v4.20/bin/bin/../../lib/gcc/pic32c/8.3.1/../../../../pic32c/lib/arm/v5te/nofp\libc-musl.a(__init_stdio.o)
 .xc_stack_usage
                0x00000000       0x2f c:/program files/microchip/xc32/v4.20/bin/bin/../../lib/gcc/pic32c/8.3.1/../../../../pic32c/lib/arm/v5te/nofp\libc-musl.a(__init_stdio.o)
 .xc_stack_usage.hdr
                0x00000000        0xe c:/program files/microchip/xc32/v4.20/bin/bin/../../lib/gcc/pic32c/8.3.1/../../../../pic32c/lib/arm/v5te/nofp\libc-musl.a(__init_stdio.o)
 .text          0x00000000        0x0 c:/program files/microchip/xc32/v4.20/bin/bin/../../lib/gcc/pic32c/8.3.1/../../../../pic32c/lib/arm/v5te/nofp\libc-musl.a(__io_buf_needed.o)
 .data          0x00000000        0x0 c:/program files/microchip/xc32/v4.20/bin/bin/../../lib/gcc/pic32c/8.3.1/../../../../pic32c/lib/arm/v5te/nofp\libc-musl.a(__io_buf_needed.o)
 .bss           0x00000000        0x0 c:/program files/microchip/xc32/v4.20/bin/bin/../../lib/gcc/pic32c/8.3.1/../../../../pic32c/lib/arm/v5te/nofp\libc-musl.a(__io_buf_needed.o)
 .xc_stack_usage
                0x00000000       0x1d c:/program files/microchip/xc32/v4.20/bin/bin/../../lib/gcc/pic32c/8.3.1/../../../../pic32c/lib/arm/v5te/nofp\libc-musl.a(__io_buf_needed.o)
 __xc_reference_data
                0x00000000       0x4c c:/program files/microchip/xc32/v4.20/bin/bin/../../lib/gcc/pic32c/8.3.1/../../../../pic32c/lib/arm/v5te/nofp\libc-musl.a(__io_buf_needed.o)
 .xc_stack_usage.hdr
                0x00000000        0xe c:/program files/microchip/xc32/v4.20/bin/bin/../../lib/gcc/pic32c/8.3.1/../../../../pic32c/lib/arm/v5te/nofp\libc-musl.a(__io_buf_needed.o)
 .debug_info    0x00000000      0x39a c:/program files/microchip/xc32/v4.20/bin/bin/../../lib/gcc/pic32c/8.3.1/../../../../pic32c/lib/arm/v5te/nofp\libc-musl.a(__io_buf_needed.o)
 .debug_abbrev  0x00000000       0x6a c:/program files/microchip/xc32/v4.20/bin/bin/../../lib/gcc/pic32c/8.3.1/../../../../pic32c/lib/arm/v5te/nofp\libc-musl.a(__io_buf_needed.o)
 .debug_loc     0x00000000       0x2c c:/program files/microchip/xc32/v4.20/bin/bin/../../lib/gcc/pic32c/8.3.1/../../../../pic32c/lib/arm/v5te/nofp\libc-musl.a(__io_buf_needed.o)
 .debug_aranges
                0x00000000       0x20 c:/program files/microchip/xc32/v4.20/bin/bin/../../lib/gcc/pic32c/8.3.1/../../../../pic32c/lib/arm/v5te/nofp\libc-musl.a(__io_buf_needed.o)
 .debug_ranges  0x00000000       0x10 c:/program files/microchip/xc32/v4.20/bin/bin/../../lib/gcc/pic32c/8.3.1/../../../../pic32c/lib/arm/v5te/nofp\libc-musl.a(__io_buf_needed.o)
 .debug_line    0x00000000      0x140 c:/program files/microchip/xc32/v4.20/bin/bin/../../lib/gcc/pic32c/8.3.1/../../../../pic32c/lib/arm/v5te/nofp\libc-musl.a(__io_buf_needed.o)
 .debug_str     0x00000000       0x77 c:/program files/microchip/xc32/v4.20/bin/bin/../../lib/gcc/pic32c/8.3.1/../../../../pic32c/lib/arm/v5te/nofp\libc-musl.a(__io_buf_needed.o)
 .comment       0x00000000       0x2c c:/program files/microchip/xc32/v4.20/bin/bin/../../lib/gcc/pic32c/8.3.1/../../../../pic32c/lib/arm/v5te/nofp\libc-musl.a(__io_buf_needed.o)
 .note.GNU-stack
                0x00000000        0x0 c:/program files/microchip/xc32/v4.20/bin/bin/../../lib/gcc/pic32c/8.3.1/../../../../pic32c/lib/arm/v5te/nofp\libc-musl.a(__io_buf_needed.o)
 .debug_frame   0x00000000       0x2c c:/program files/microchip/xc32/v4.20/bin/bin/../../lib/gcc/pic32c/8.3.1/../../../../pic32c/lib/arm/v5te/nofp\libc-musl.a(__io_buf_needed.o)
 .ARM.attributes
                0x00000000       0x2d c:/program files/microchip/xc32/v4.20/bin/bin/../../lib/gcc/pic32c/8.3.1/../../../../pic32c/lib/arm/v5te/nofp\libc-musl.a(__io_buf_needed.o)
 .text          0x00000000        0x0 c:/program files/microchip/xc32/v4.20/bin/bin/../../lib/gcc/pic32c/8.3.1/../../../../pic32c/lib/arm/v5te/nofp\libc-musl.a(__io_file_needed.o)
 .data          0x00000000        0x0 c:/program files/microchip/xc32/v4.20/bin/bin/../../lib/gcc/pic32c/8.3.1/../../../../pic32c/lib/arm/v5te/nofp\libc-musl.a(__io_file_needed.o)
 .bss           0x00000000        0x0 c:/program files/microchip/xc32/v4.20/bin/bin/../../lib/gcc/pic32c/8.3.1/../../../../pic32c/lib/arm/v5te/nofp\libc-musl.a(__io_file_needed.o)
 .xc_stack_usage
                0x00000000       0x1e c:/program files/microchip/xc32/v4.20/bin/bin/../../lib/gcc/pic32c/8.3.1/../../../../pic32c/lib/arm/v5te/nofp\libc-musl.a(__io_file_needed.o)
 .xc_stack_usage.hdr
                0x00000000        0xe c:/program files/microchip/xc32/v4.20/bin/bin/../../lib/gcc/pic32c/8.3.1/../../../../pic32c/lib/arm/v5te/nofp\libc-musl.a(__io_file_needed.o)
 .debug_info    0x00000000      0x311 c:/program files/microchip/xc32/v4.20/bin/bin/../../lib/gcc/pic32c/8.3.1/../../../../pic32c/lib/arm/v5te/nofp\libc-musl.a(__io_file_needed.o)
 .debug_abbrev  0x00000000       0x5f c:/program files/microchip/xc32/v4.20/bin/bin/../../lib/gcc/pic32c/8.3.1/../../../../pic32c/lib/arm/v5te/nofp\libc-musl.a(__io_file_needed.o)
 .debug_aranges
                0x00000000       0x20 c:/program files/microchip/xc32/v4.20/bin/bin/../../lib/gcc/pic32c/8.3.1/../../../../pic32c/lib/arm/v5te/nofp\libc-musl.a(__io_file_needed.o)
 .debug_ranges  0x00000000       0x10 c:/program files/microchip/xc32/v4.20/bin/bin/../../lib/gcc/pic32c/8.3.1/../../../../pic32c/lib/arm/v5te/nofp\libc-musl.a(__io_file_needed.o)
 .debug_line    0x00000000       0xb2 c:/program files/microchip/xc32/v4.20/bin/bin/../../lib/gcc/pic32c/8.3.1/../../../../pic32c/lib/arm/v5te/nofp\libc-musl.a(__io_file_needed.o)
 .debug_str     0x00000000        0xd c:/program files/microchip/xc32/v4.20/bin/bin/../../lib/gcc/pic32c/8.3.1/../../../../pic32c/lib/arm/v5te/nofp\libc-musl.a(__io_file_needed.o)
 .comment       0x00000000       0x2c c:/program files/microchip/xc32/v4.20/bin/bin/../../lib/gcc/pic32c/8.3.1/../../../../pic32c/lib/arm/v5te/nofp\libc-musl.a(__io_file_needed.o)
 .note.GNU-stack
                0x00000000        0x0 c:/program files/microchip/xc32/v4.20/bin/bin/../../lib/gcc/pic32c/8.3.1/../../../../pic32c/lib/arm/v5te/nofp\libc-musl.a(__io_file_needed.o)
 .debug_frame   0x00000000       0x20 c:/program files/microchip/xc32/v4.20/bin/bin/../../lib/gcc/pic32c/8.3.1/../../../../pic32c/lib/arm/v5te/nofp\libc-musl.a(__io_file_needed.o)
 .ARM.attributes
                0x00000000       0x2d c:/program files/microchip/xc32/v4.20/bin/bin/../../lib/gcc/pic32c/8.3.1/../../../../pic32c/lib/arm/v5te/nofp\libc-musl.a(__io_file_needed.o)
 .text          0x00000000        0x0 c:/program files/microchip/xc32/v4.20/bin/bin/../../lib/gcc/pic32c/8.3.1/../../../../pic32c/lib/arm/v5te/nofp\libc-musl.a(__io_std_needed.o)
 .data          0x00000000        0x0 c:/program files/microchip/xc32/v4.20/bin/bin/../../lib/gcc/pic32c/8.3.1/../../../../pic32c/lib/arm/v5te/nofp\libc-musl.a(__io_std_needed.o)
 .bss           0x00000000        0x0 c:/program files/microchip/xc32/v4.20/bin/bin/../../lib/gcc/pic32c/8.3.1/../../../../pic32c/lib/arm/v5te/nofp\libc-musl.a(__io_std_needed.o)
 .xc_stack_usage
                0x00000000       0x1d c:/program files/microchip/xc32/v4.20/bin/bin/../../lib/gcc/pic32c/8.3.1/../../../../pic32c/lib/arm/v5te/nofp\libc-musl.a(__io_std_needed.o)
 .xc_stack_usage.hdr
                0x00000000        0xe c:/program files/microchip/xc32/v4.20/bin/bin/../../lib/gcc/pic32c/8.3.1/../../../../pic32c/lib/arm/v5te/nofp\libc-musl.a(__io_std_needed.o)
 .debug_info    0x00000000      0x383 c:/program files/microchip/xc32/v4.20/bin/bin/../../lib/gcc/pic32c/8.3.1/../../../../pic32c/lib/arm/v5te/nofp\libc-musl.a(__io_std_needed.o)
 .debug_abbrev  0x00000000       0x6a c:/program files/microchip/xc32/v4.20/bin/bin/../../lib/gcc/pic32c/8.3.1/../../../../pic32c/lib/arm/v5te/nofp\libc-musl.a(__io_std_needed.o)
 .debug_loc     0x00000000       0x2c c:/program files/microchip/xc32/v4.20/bin/bin/../../lib/gcc/pic32c/8.3.1/../../../../pic32c/lib/arm/v5te/nofp\libc-musl.a(__io_std_needed.o)
 .debug_aranges
                0x00000000       0x20 c:/program files/microchip/xc32/v4.20/bin/bin/../../lib/gcc/pic32c/8.3.1/../../../../pic32c/lib/arm/v5te/nofp\libc-musl.a(__io_std_needed.o)
 .debug_ranges  0x00000000       0x10 c:/program files/microchip/xc32/v4.20/bin/bin/../../lib/gcc/pic32c/8.3.1/../../../../pic32c/lib/arm/v5te/nofp\libc-musl.a(__io_std_needed.o)
 .debug_line    0x00000000      0x13f c:/program files/microchip/xc32/v4.20/bin/bin/../../lib/gcc/pic32c/8.3.1/../../../../pic32c/lib/arm/v5te/nofp\libc-musl.a(__io_std_needed.o)
 .debug_str     0x00000000       0x6b c:/program files/microchip/xc32/v4.20/bin/bin/../../lib/gcc/pic32c/8.3.1/../../../../pic32c/lib/arm/v5te/nofp\libc-musl.a(__io_std_needed.o)
 .comment       0x00000000       0x2c c:/program files/microchip/xc32/v4.20/bin/bin/../../lib/gcc/pic32c/8.3.1/../../../../pic32c/lib/arm/v5te/nofp\libc-musl.a(__io_std_needed.o)
 .note.GNU-stack
                0x00000000        0x0 c:/program files/microchip/xc32/v4.20/bin/bin/../../lib/gcc/pic32c/8.3.1/../../../../pic32c/lib/arm/v5te/nofp\libc-musl.a(__io_std_needed.o)
 .debug_frame   0x00000000       0x2c c:/program files/microchip/xc32/v4.20/bin/bin/../../lib/gcc/pic32c/8.3.1/../../../../pic32c/lib/arm/v5te/nofp\libc-musl.a(__io_std_needed.o)
 .ARM.attributes
                0x00000000       0x2d c:/program files/microchip/xc32/v4.20/bin/bin/../../lib/gcc/pic32c/8.3.1/../../../../pic32c/lib/arm/v5te/nofp\libc-musl.a(__io_std_needed.o)
 .text          0x00000000        0x0 c:/program files/microchip/xc32/v4.20/bin/bin/../../lib/gcc/pic32c/8.3.1/../../../../pic32c/lib/arm/v5te/nofp\libc-musl.a(__out.o)
 .data          0x00000000        0x0 c:/program files/microchip/xc32/v4.20/bin/bin/../../lib/gcc/pic32c/8.3.1/../../../../pic32c/lib/arm/v5te/nofp\libc-musl.a(__out.o)
 .bss           0x00000000        0x0 c:/program files/microchip/xc32/v4.20/bin/bin/../../lib/gcc/pic32c/8.3.1/../../../../pic32c/lib/arm/v5te/nofp\libc-musl.a(__out.o)
 .xc_stack_usage
                0x00000000       0x2d c:/program files/microchip/xc32/v4.20/bin/bin/../../lib/gcc/pic32c/8.3.1/../../../../pic32c/lib/arm/v5te/nofp\libc-musl.a(__out.o)
 .xc_stack_usage.hdr
                0x00000000        0xe c:/program files/microchip/xc32/v4.20/bin/bin/../../lib/gcc/pic32c/8.3.1/../../../../pic32c/lib/arm/v5te/nofp\libc-musl.a(__out.o)
 .text          0x00000000        0x0 c:/program files/microchip/xc32/v4.20/bin/bin/../../lib/gcc/pic32c/8.3.1/../../../../pic32c/lib/arm/v5te/nofp\libc-musl.a(__putc.o)
 .data          0x00000000        0x0 c:/program files/microchip/xc32/v4.20/bin/bin/../../lib/gcc/pic32c/8.3.1/../../../../pic32c/lib/arm/v5te/nofp\libc-musl.a(__putc.o)
 .bss           0x00000000        0x0 c:/program files/microchip/xc32/v4.20/bin/bin/../../lib/gcc/pic32c/8.3.1/../../../../pic32c/lib/arm/v5te/nofp\libc-musl.a(__putc.o)
 .xc_stack_usage
                0x00000000       0x14 c:/program files/microchip/xc32/v4.20/bin/bin/../../lib/gcc/pic32c/8.3.1/../../../../pic32c/lib/arm/v5te/nofp\libc-musl.a(__putc.o)
 .text.__putc   0x00000000       0x54 c:/program files/microchip/xc32/v4.20/bin/bin/../../lib/gcc/pic32c/8.3.1/../../../../pic32c/lib/arm/v5te/nofp\libc-musl.a(__putc.o)
 .xc_stack_usage.hdr
                0x00000000        0xe c:/program files/microchip/xc32/v4.20/bin/bin/../../lib/gcc/pic32c/8.3.1/../../../../pic32c/lib/arm/v5te/nofp\libc-musl.a(__putc.o)
 .debug_info    0x00000000      0x4f0 c:/program files/microchip/xc32/v4.20/bin/bin/../../lib/gcc/pic32c/8.3.1/../../../../pic32c/lib/arm/v5te/nofp\libc-musl.a(__putc.o)
 .debug_abbrev  0x00000000       0xf3 c:/program files/microchip/xc32/v4.20/bin/bin/../../lib/gcc/pic32c/8.3.1/../../../../pic32c/lib/arm/v5te/nofp\libc-musl.a(__putc.o)
 .debug_loc     0x00000000       0xb8 c:/program files/microchip/xc32/v4.20/bin/bin/../../lib/gcc/pic32c/8.3.1/../../../../pic32c/lib/arm/v5te/nofp\libc-musl.a(__putc.o)
 .debug_aranges
                0x00000000       0x20 c:/program files/microchip/xc32/v4.20/bin/bin/../../lib/gcc/pic32c/8.3.1/../../../../pic32c/lib/arm/v5te/nofp\libc-musl.a(__putc.o)
 .debug_ranges  0x00000000       0x10 c:/program files/microchip/xc32/v4.20/bin/bin/../../lib/gcc/pic32c/8.3.1/../../../../pic32c/lib/arm/v5te/nofp\libc-musl.a(__putc.o)
 .debug_line    0x00000000      0x169 c:/program files/microchip/xc32/v4.20/bin/bin/../../lib/gcc/pic32c/8.3.1/../../../../pic32c/lib/arm/v5te/nofp\libc-musl.a(__putc.o)
 .debug_str     0x00000000       0x1d c:/program files/microchip/xc32/v4.20/bin/bin/../../lib/gcc/pic32c/8.3.1/../../../../pic32c/lib/arm/v5te/nofp\libc-musl.a(__putc.o)
 .comment       0x00000000       0x2c c:/program files/microchip/xc32/v4.20/bin/bin/../../lib/gcc/pic32c/8.3.1/../../../../pic32c/lib/arm/v5te/nofp\libc-musl.a(__putc.o)
 .note.GNU-stack
                0x00000000        0x0 c:/program files/microchip/xc32/v4.20/bin/bin/../../lib/gcc/pic32c/8.3.1/../../../../pic32c/lib/arm/v5te/nofp\libc-musl.a(__putc.o)
 .debug_frame   0x00000000       0x20 c:/program files/microchip/xc32/v4.20/bin/bin/../../lib/gcc/pic32c/8.3.1/../../../../pic32c/lib/arm/v5te/nofp\libc-musl.a(__putc.o)
 .ARM.attributes
                0x00000000       0x2d c:/program files/microchip/xc32/v4.20/bin/bin/../../lib/gcc/pic32c/8.3.1/../../../../pic32c/lib/arm/v5te/nofp\libc-musl.a(__putc.o)
 .text          0x00000000        0x0 c:/program files/microchip/xc32/v4.20/bin/bin/../../lib/gcc/pic32c/8.3.1/../../../../pic32c/lib/arm/v5te/nofp\libc-musl.a(__stderr.o)
 .data          0x00000000       0x60 c:/program files/microchip/xc32/v4.20/bin/bin/../../lib/gcc/pic32c/8.3.1/../../../../pic32c/lib/arm/v5te/nofp\libc-musl.a(__stderr.o)
 .bss           0x00000000        0x0 c:/program files/microchip/xc32/v4.20/bin/bin/../../lib/gcc/pic32c/8.3.1/../../../../pic32c/lib/arm/v5te/nofp\libc-musl.a(__stderr.o)
 .xc_stack_usage
                0x00000000       0x50 c:/program files/microchip/xc32/v4.20/bin/bin/../../lib/gcc/pic32c/8.3.1/../../../../pic32c/lib/arm/v5te/nofp\libc-musl.a(__stderr.o)
 .text.__dummy  0x00000000        0x4 c:/program files/microchip/xc32/v4.20/bin/bin/../../lib/gcc/pic32c/8.3.1/../../../../pic32c/lib/arm/v5te/nofp\libc-musl.a(__stderr.o)
 .text.__get_stderr
                0x00000000        0xc c:/program files/microchip/xc32/v4.20/bin/bin/../../lib/gcc/pic32c/8.3.1/../../../../pic32c/lib/arm/v5te/nofp\libc-musl.a(__stderr.o)
 __xc_reference_data
                0x00000000        0x4 c:/program files/microchip/xc32/v4.20/bin/bin/../../lib/gcc/pic32c/8.3.1/../../../../pic32c/lib/arm/v5te/nofp\libc-musl.a(__stderr.o)
 .xc_stack_usage.hdr
                0x00000000        0xe c:/program files/microchip/xc32/v4.20/bin/bin/../../lib/gcc/pic32c/8.3.1/../../../../pic32c/lib/arm/v5te/nofp\libc-musl.a(__stderr.o)
 .debug_info    0x00000000      0x650 c:/program files/microchip/xc32/v4.20/bin/bin/../../lib/gcc/pic32c/8.3.1/../../../../pic32c/lib/arm/v5te/nofp\libc-musl.a(__stderr.o)
 .debug_abbrev  0x00000000      0x154 c:/program files/microchip/xc32/v4.20/bin/bin/../../lib/gcc/pic32c/8.3.1/../../../../pic32c/lib/arm/v5te/nofp\libc-musl.a(__stderr.o)
 .debug_loc     0x00000000       0x25 c:/program files/microchip/xc32/v4.20/bin/bin/../../lib/gcc/pic32c/8.3.1/../../../../pic32c/lib/arm/v5te/nofp\libc-musl.a(__stderr.o)
 .debug_aranges
                0x00000000       0x30 c:/program files/microchip/xc32/v4.20/bin/bin/../../lib/gcc/pic32c/8.3.1/../../../../pic32c/lib/arm/v5te/nofp\libc-musl.a(__stderr.o)
 .debug_ranges  0x00000000       0x20 c:/program files/microchip/xc32/v4.20/bin/bin/../../lib/gcc/pic32c/8.3.1/../../../../pic32c/lib/arm/v5te/nofp\libc-musl.a(__stderr.o)
 .debug_line    0x00000000      0x1e2 c:/program files/microchip/xc32/v4.20/bin/bin/../../lib/gcc/pic32c/8.3.1/../../../../pic32c/lib/arm/v5te/nofp\libc-musl.a(__stderr.o)
 .debug_str     0x00000000       0x11 c:/program files/microchip/xc32/v4.20/bin/bin/../../lib/gcc/pic32c/8.3.1/../../../../pic32c/lib/arm/v5te/nofp\libc-musl.a(__stderr.o)
 .comment       0x00000000       0x2c c:/program files/microchip/xc32/v4.20/bin/bin/../../lib/gcc/pic32c/8.3.1/../../../../pic32c/lib/arm/v5te/nofp\libc-musl.a(__stderr.o)
 .note.GNU-stack
                0x00000000        0x0 c:/program files/microchip/xc32/v4.20/bin/bin/../../lib/gcc/pic32c/8.3.1/../../../../pic32c/lib/arm/v5te/nofp\libc-musl.a(__stderr.o)
 .debug_frame   0x00000000       0x40 c:/program files/microchip/xc32/v4.20/bin/bin/../../lib/gcc/pic32c/8.3.1/../../../../pic32c/lib/arm/v5te/nofp\libc-musl.a(__stderr.o)
 .ARM.attributes
                0x00000000       0x2d c:/program files/microchip/xc32/v4.20/bin/bin/../../lib/gcc/pic32c/8.3.1/../../../../pic32c/lib/arm/v5te/nofp\libc-musl.a(__stderr.o)
 .text          0x00000000        0x0 c:/program files/microchip/xc32/v4.20/bin/bin/../../lib/gcc/pic32c/8.3.1/../../../../pic32c/lib/arm/v5te/nofp\libc-musl.a(__stdio_close.o)
 .data          0x00000000        0x0 c:/program files/microchip/xc32/v4.20/bin/bin/../../lib/gcc/pic32c/8.3.1/../../../../pic32c/lib/arm/v5te/nofp\libc-musl.a(__stdio_close.o)
 .bss           0x00000000        0x0 c:/program files/microchip/xc32/v4.20/bin/bin/../../lib/gcc/pic32c/8.3.1/../../../../pic32c/lib/arm/v5te/nofp\libc-musl.a(__stdio_close.o)
 .xc_stack_usage
                0x00000000       0x39 c:/program files/microchip/xc32/v4.20/bin/bin/../../lib/gcc/pic32c/8.3.1/../../../../pic32c/lib/arm/v5te/nofp\libc-musl.a(__stdio_close.o)
 .text.__stdio_close
                0x00000000       0x7c c:/program files/microchip/xc32/v4.20/bin/bin/../../lib/gcc/pic32c/8.3.1/../../../../pic32c/lib/arm/v5te/nofp\libc-musl.a(__stdio_close.o)
 .xc_stack_usage.hdr
                0x00000000        0xe c:/program files/microchip/xc32/v4.20/bin/bin/../../lib/gcc/pic32c/8.3.1/../../../../pic32c/lib/arm/v5te/nofp\libc-musl.a(__stdio_close.o)
 .text          0x00000000        0x0 c:/program files/microchip/xc32/v4.20/bin/bin/../../lib/gcc/pic32c/8.3.1/../../../../pic32c/lib/arm/v5te/nofp\libc-musl.a(__stdio_exit.o)
 .data          0x00000000        0x0 c:/program files/microchip/xc32/v4.20/bin/bin/../../lib/gcc/pic32c/8.3.1/../../../../pic32c/lib/arm/v5te/nofp\libc-musl.a(__stdio_exit.o)
 .bss           0x00000000        0x4 c:/program files/microchip/xc32/v4.20/bin/bin/../../lib/gcc/pic32c/8.3.1/../../../../pic32c/lib/arm/v5te/nofp\libc-musl.a(__stdio_exit.o)
 .xc_stack_usage
                0x00000000       0x45 c:/program files/microchip/xc32/v4.20/bin/bin/../../lib/gcc/pic32c/8.3.1/../../../../pic32c/lib/arm/v5te/nofp\libc-musl.a(__stdio_exit.o)
 .text.__dummy  0x00000000        0x4 c:/program files/microchip/xc32/v4.20/bin/bin/../../lib/gcc/pic32c/8.3.1/../../../../pic32c/lib/arm/v5te/nofp\libc-musl.a(__stdio_exit.o)
 .text.__dummy1
                0x00000000        0x8 c:/program files/microchip/xc32/v4.20/bin/bin/../../lib/gcc/pic32c/8.3.1/../../../../pic32c/lib/arm/v5te/nofp\libc-musl.a(__stdio_exit.o)
 .text.__stdio_exit
                0x00000000       0x48 c:/program files/microchip/xc32/v4.20/bin/bin/../../lib/gcc/pic32c/8.3.1/../../../../pic32c/lib/arm/v5te/nofp\libc-musl.a(__stdio_exit.o)
 .xc_stack_usage.hdr
                0x00000000        0xe c:/program files/microchip/xc32/v4.20/bin/bin/../../lib/gcc/pic32c/8.3.1/../../../../pic32c/lib/arm/v5te/nofp\libc-musl.a(__stdio_exit.o)
 .debug_info    0x00000000      0x57a c:/program files/microchip/xc32/v4.20/bin/bin/../../lib/gcc/pic32c/8.3.1/../../../../pic32c/lib/arm/v5te/nofp\libc-musl.a(__stdio_exit.o)
 .debug_abbrev  0x00000000      0x157 c:/program files/microchip/xc32/v4.20/bin/bin/../../lib/gcc/pic32c/8.3.1/../../../../pic32c/lib/arm/v5te/nofp\libc-musl.a(__stdio_exit.o)
 .debug_loc     0x00000000       0x45 c:/program files/microchip/xc32/v4.20/bin/bin/../../lib/gcc/pic32c/8.3.1/../../../../pic32c/lib/arm/v5te/nofp\libc-musl.a(__stdio_exit.o)
 .debug_aranges
                0x00000000       0x30 c:/program files/microchip/xc32/v4.20/bin/bin/../../lib/gcc/pic32c/8.3.1/../../../../pic32c/lib/arm/v5te/nofp\libc-musl.a(__stdio_exit.o)
 .debug_ranges  0x00000000       0x20 c:/program files/microchip/xc32/v4.20/bin/bin/../../lib/gcc/pic32c/8.3.1/../../../../pic32c/lib/arm/v5te/nofp\libc-musl.a(__stdio_exit.o)
 .debug_line    0x00000000      0x184 c:/program files/microchip/xc32/v4.20/bin/bin/../../lib/gcc/pic32c/8.3.1/../../../../pic32c/lib/arm/v5te/nofp\libc-musl.a(__stdio_exit.o)
 .debug_str     0x00000000        0x0 c:/program files/microchip/xc32/v4.20/bin/bin/../../lib/gcc/pic32c/8.3.1/../../../../pic32c/lib/arm/v5te/nofp\libc-musl.a(__stdio_exit.o)
 .comment       0x00000000       0x2c c:/program files/microchip/xc32/v4.20/bin/bin/../../lib/gcc/pic32c/8.3.1/../../../../pic32c/lib/arm/v5te/nofp\libc-musl.a(__stdio_exit.o)
 .note.GNU-stack
                0x00000000        0x0 c:/program files/microchip/xc32/v4.20/bin/bin/../../lib/gcc/pic32c/8.3.1/../../../../pic32c/lib/arm/v5te/nofp\libc-musl.a(__stdio_exit.o)
 .debug_frame   0x00000000       0x48 c:/program files/microchip/xc32/v4.20/bin/bin/../../lib/gcc/pic32c/8.3.1/../../../../pic32c/lib/arm/v5te/nofp\libc-musl.a(__stdio_exit.o)
 .ARM.attributes
                0x00000000       0x2d c:/program files/microchip/xc32/v4.20/bin/bin/../../lib/gcc/pic32c/8.3.1/../../../../pic32c/lib/arm/v5te/nofp\libc-musl.a(__stdio_exit.o)
 .text          0x00000000        0x0 c:/program files/microchip/xc32/v4.20/bin/bin/../../lib/gcc/pic32c/8.3.1/../../../../pic32c/lib/arm/v5te/nofp\libc-musl.a(__stdio_read.o)
 .data          0x00000000        0x0 c:/program files/microchip/xc32/v4.20/bin/bin/../../lib/gcc/pic32c/8.3.1/../../../../pic32c/lib/arm/v5te/nofp\libc-musl.a(__stdio_read.o)
 .bss           0x00000000        0x0 c:/program files/microchip/xc32/v4.20/bin/bin/../../lib/gcc/pic32c/8.3.1/../../../../pic32c/lib/arm/v5te/nofp\libc-musl.a(__stdio_read.o)
 .xc_stack_usage
                0x00000000       0x1a c:/program files/microchip/xc32/v4.20/bin/bin/../../lib/gcc/pic32c/8.3.1/../../../../pic32c/lib/arm/v5te/nofp\libc-musl.a(__stdio_read.o)
 .text.__stdio_read
                0x00000000       0xac c:/program files/microchip/xc32/v4.20/bin/bin/../../lib/gcc/pic32c/8.3.1/../../../../pic32c/lib/arm/v5te/nofp\libc-musl.a(__stdio_read.o)
 .xc_stack_usage.hdr
                0x00000000        0xe c:/program files/microchip/xc32/v4.20/bin/bin/../../lib/gcc/pic32c/8.3.1/../../../../pic32c/lib/arm/v5te/nofp\libc-musl.a(__stdio_read.o)
 .debug_info    0x00000000      0x696 c:/program files/microchip/xc32/v4.20/bin/bin/../../lib/gcc/pic32c/8.3.1/../../../../pic32c/lib/arm/v5te/nofp\libc-musl.a(__stdio_read.o)
 .debug_abbrev  0x00000000      0x150 c:/program files/microchip/xc32/v4.20/bin/bin/../../lib/gcc/pic32c/8.3.1/../../../../pic32c/lib/arm/v5te/nofp\libc-musl.a(__stdio_read.o)
 .debug_loc     0x00000000      0x103 c:/program files/microchip/xc32/v4.20/bin/bin/../../lib/gcc/pic32c/8.3.1/../../../../pic32c/lib/arm/v5te/nofp\libc-musl.a(__stdio_read.o)
 .debug_aranges
                0x00000000       0x20 c:/program files/microchip/xc32/v4.20/bin/bin/../../lib/gcc/pic32c/8.3.1/../../../../pic32c/lib/arm/v5te/nofp\libc-musl.a(__stdio_read.o)
 .debug_ranges  0x00000000       0x10 c:/program files/microchip/xc32/v4.20/bin/bin/../../lib/gcc/pic32c/8.3.1/../../../../pic32c/lib/arm/v5te/nofp\libc-musl.a(__stdio_read.o)
 .debug_line    0x00000000      0x241 c:/program files/microchip/xc32/v4.20/bin/bin/../../lib/gcc/pic32c/8.3.1/../../../../pic32c/lib/arm/v5te/nofp\libc-musl.a(__stdio_read.o)
 .debug_str     0x00000000        0x0 c:/program files/microchip/xc32/v4.20/bin/bin/../../lib/gcc/pic32c/8.3.1/../../../../pic32c/lib/arm/v5te/nofp\libc-musl.a(__stdio_read.o)
 .comment       0x00000000       0x2c c:/program files/microchip/xc32/v4.20/bin/bin/../../lib/gcc/pic32c/8.3.1/../../../../pic32c/lib/arm/v5te/nofp\libc-musl.a(__stdio_read.o)
 .note.GNU-stack
                0x00000000        0x0 c:/program files/microchip/xc32/v4.20/bin/bin/../../lib/gcc/pic32c/8.3.1/../../../../pic32c/lib/arm/v5te/nofp\libc-musl.a(__stdio_read.o)
 .debug_frame   0x00000000       0x30 c:/program files/microchip/xc32/v4.20/bin/bin/../../lib/gcc/pic32c/8.3.1/../../../../pic32c/lib/arm/v5te/nofp\libc-musl.a(__stdio_read.o)
 .ARM.attributes
                0x00000000       0x2d c:/program files/microchip/xc32/v4.20/bin/bin/../../lib/gcc/pic32c/8.3.1/../../../../pic32c/lib/arm/v5te/nofp\libc-musl.a(__stdio_read.o)
 .text          0x00000000        0x0 c:/program files/microchip/xc32/v4.20/bin/bin/../../lib/gcc/pic32c/8.3.1/../../../../pic32c/lib/arm/v5te/nofp\libc-musl.a(__stdio_seek.o)
 .data          0x00000000        0x0 c:/program files/microchip/xc32/v4.20/bin/bin/../../lib/gcc/pic32c/8.3.1/../../../../pic32c/lib/arm/v5te/nofp\libc-musl.a(__stdio_seek.o)
 .bss           0x00000000        0x0 c:/program files/microchip/xc32/v4.20/bin/bin/../../lib/gcc/pic32c/8.3.1/../../../../pic32c/lib/arm/v5te/nofp\libc-musl.a(__stdio_seek.o)
 .xc_stack_usage
                0x00000000       0x5c c:/program files/microchip/xc32/v4.20/bin/bin/../../lib/gcc/pic32c/8.3.1/../../../../pic32c/lib/arm/v5te/nofp\libc-musl.a(__stdio_seek.o)
 .text.__stdio_seek_rw
                0x00000000       0x9c c:/program files/microchip/xc32/v4.20/bin/bin/../../lib/gcc/pic32c/8.3.1/../../../../pic32c/lib/arm/v5te/nofp\libc-musl.a(__stdio_seek.o)
 .xc_stack_usage.hdr
                0x00000000        0xe c:/program files/microchip/xc32/v4.20/bin/bin/../../lib/gcc/pic32c/8.3.1/../../../../pic32c/lib/arm/v5te/nofp\libc-musl.a(__stdio_seek.o)
 .text          0x00000000        0x0 c:/program files/microchip/xc32/v4.20/bin/bin/../../lib/gcc/pic32c/8.3.1/../../../../pic32c/lib/arm/v5te/nofp\libc-musl.a(__stdout.o)
 .bss           0x00000000        0x0 c:/program files/microchip/xc32/v4.20/bin/bin/../../lib/gcc/pic32c/8.3.1/../../../../pic32c/lib/arm/v5te/nofp\libc-musl.a(__stdout.o)
 .xc_stack_usage
                0x00000000       0x50 c:/program files/microchip/xc32/v4.20/bin/bin/../../lib/gcc/pic32c/8.3.1/../../../../pic32c/lib/arm/v5te/nofp\libc-musl.a(__stdout.o)
 .text.__dummy  0x00000000        0x4 c:/program files/microchip/xc32/v4.20/bin/bin/../../lib/gcc/pic32c/8.3.1/../../../../pic32c/lib/arm/v5te/nofp\libc-musl.a(__stdout.o)
 .xc_stack_usage.hdr
                0x00000000        0xe c:/program files/microchip/xc32/v4.20/bin/bin/../../lib/gcc/pic32c/8.3.1/../../../../pic32c/lib/arm/v5te/nofp\libc-musl.a(__stdout.o)
 .text          0x00000000        0x0 c:/program files/microchip/xc32/v4.20/bin/bin/../../lib/gcc/pic32c/8.3.1/../../../../pic32c/lib/arm/v5te/nofp\libc-musl.a(strchrnul.o)
 .data          0x00000000        0x0 c:/program files/microchip/xc32/v4.20/bin/bin/../../lib/gcc/pic32c/8.3.1/../../../../pic32c/lib/arm/v5te/nofp\libc-musl.a(strchrnul.o)
 .bss           0x00000000        0x0 c:/program files/microchip/xc32/v4.20/bin/bin/../../lib/gcc/pic32c/8.3.1/../../../../pic32c/lib/arm/v5te/nofp\libc-musl.a(strchrnul.o)
 .xc_stack_usage
                0x00000000       0x19 c:/program files/microchip/xc32/v4.20/bin/bin/../../lib/gcc/pic32c/8.3.1/../../../../pic32c/lib/arm/v5te/nofp\libc-musl.a(strchrnul.o)
 .text.__strchrnul
                0x00000000       0xa8 c:/program files/microchip/xc32/v4.20/bin/bin/../../lib/gcc/pic32c/8.3.1/../../../../pic32c/lib/arm/v5te/nofp\libc-musl.a(strchrnul.o)
 .xc_stack_usage.hdr
                0x00000000        0xe c:/program files/microchip/xc32/v4.20/bin/bin/../../lib/gcc/pic32c/8.3.1/../../../../pic32c/lib/arm/v5te/nofp\libc-musl.a(strchrnul.o)
 .debug_info    0x00000000      0x383 c:/program files/microchip/xc32/v4.20/bin/bin/../../lib/gcc/pic32c/8.3.1/../../../../pic32c/lib/arm/v5te/nofp\libc-musl.a(strchrnul.o)
 .debug_abbrev  0x00000000       0xb1 c:/program files/microchip/xc32/v4.20/bin/bin/../../lib/gcc/pic32c/8.3.1/../../../../pic32c/lib/arm/v5te/nofp\libc-musl.a(strchrnul.o)
 .debug_loc     0x00000000      0x141 c:/program files/microchip/xc32/v4.20/bin/bin/../../lib/gcc/pic32c/8.3.1/../../../../pic32c/lib/arm/v5te/nofp\libc-musl.a(strchrnul.o)
 .debug_aranges
                0x00000000       0x20 c:/program files/microchip/xc32/v4.20/bin/bin/../../lib/gcc/pic32c/8.3.1/../../../../pic32c/lib/arm/v5te/nofp\libc-musl.a(strchrnul.o)
 .debug_ranges  0x00000000       0x10 c:/program files/microchip/xc32/v4.20/bin/bin/../../lib/gcc/pic32c/8.3.1/../../../../pic32c/lib/arm/v5te/nofp\libc-musl.a(strchrnul.o)
 .debug_line    0x00000000      0x198 c:/program files/microchip/xc32/v4.20/bin/bin/../../lib/gcc/pic32c/8.3.1/../../../../pic32c/lib/arm/v5te/nofp\libc-musl.a(strchrnul.o)
 .debug_str     0x00000000        0x0 c:/program files/microchip/xc32/v4.20/bin/bin/../../lib/gcc/pic32c/8.3.1/../../../../pic32c/lib/arm/v5te/nofp\libc-musl.a(strchrnul.o)
 .comment       0x00000000       0x2c c:/program files/microchip/xc32/v4.20/bin/bin/../../lib/gcc/pic32c/8.3.1/../../../../pic32c/lib/arm/v5te/nofp\libc-musl.a(strchrnul.o)
 .note.GNU-stack
                0x00000000        0x0 c:/program files/microchip/xc32/v4.20/bin/bin/../../lib/gcc/pic32c/8.3.1/../../../../pic32c/lib/arm/v5te/nofp\libc-musl.a(strchrnul.o)
 .debug_frame   0x00000000       0x30 c:/program files/microchip/xc32/v4.20/bin/bin/../../lib/gcc/pic32c/8.3.1/../../../../pic32c/lib/arm/v5te/nofp\libc-musl.a(strchrnul.o)
 .ARM.attributes
                0x00000000       0x2d c:/program files/microchip/xc32/v4.20/bin/bin/../../lib/gcc/pic32c/8.3.1/../../../../pic32c/lib/arm/v5te/nofp\libc-musl.a(strchrnul.o)
 .text          0x00000000        0x0 c:/program files/microchip/xc32/v4.20/bin/bin/../../lib/gcc/pic32c/8.3.1/../../../../pic32c/lib/arm/v5te/nofp\libc-musl.a(readv.o)
 .data          0x00000000        0x0 c:/program files/microchip/xc32/v4.20/bin/bin/../../lib/gcc/pic32c/8.3.1/../../../../pic32c/lib/arm/v5te/nofp\libc-musl.a(readv.o)
 .bss           0x00000000        0x0 c:/program files/microchip/xc32/v4.20/bin/bin/../../lib/gcc/pic32c/8.3.1/../../../../pic32c/lib/arm/v5te/nofp\libc-musl.a(readv.o)
 .xc_stack_usage
                0x00000000       0x15 c:/program files/microchip/xc32/v4.20/bin/bin/../../lib/gcc/pic32c/8.3.1/../../../../pic32c/lib/arm/v5te/nofp\libc-musl.a(readv.o)
 .text.__readv  0x00000000       0x44 c:/program files/microchip/xc32/v4.20/bin/bin/../../lib/gcc/pic32c/8.3.1/../../../../pic32c/lib/arm/v5te/nofp\libc-musl.a(readv.o)
 .xc_stack_usage.hdr
                0x00000000        0xe c:/program files/microchip/xc32/v4.20/bin/bin/../../lib/gcc/pic32c/8.3.1/../../../../pic32c/lib/arm/v5te/nofp\libc-musl.a(readv.o)
 .debug_info    0x00000000      0x352 c:/program files/microchip/xc32/v4.20/bin/bin/../../lib/gcc/pic32c/8.3.1/../../../../pic32c/lib/arm/v5te/nofp\libc-musl.a(readv.o)
 .debug_abbrev  0x00000000       0xd8 c:/program files/microchip/xc32/v4.20/bin/bin/../../lib/gcc/pic32c/8.3.1/../../../../pic32c/lib/arm/v5te/nofp\libc-musl.a(readv.o)
 .debug_loc     0x00000000       0xeb c:/program files/microchip/xc32/v4.20/bin/bin/../../lib/gcc/pic32c/8.3.1/../../../../pic32c/lib/arm/v5te/nofp\libc-musl.a(readv.o)
 .debug_aranges
                0x00000000       0x20 c:/program files/microchip/xc32/v4.20/bin/bin/../../lib/gcc/pic32c/8.3.1/../../../../pic32c/lib/arm/v5te/nofp\libc-musl.a(readv.o)
 .debug_ranges  0x00000000       0x10 c:/program files/microchip/xc32/v4.20/bin/bin/../../lib/gcc/pic32c/8.3.1/../../../../pic32c/lib/arm/v5te/nofp\libc-musl.a(readv.o)
 .debug_line    0x00000000      0x160 c:/program files/microchip/xc32/v4.20/bin/bin/../../lib/gcc/pic32c/8.3.1/../../../../pic32c/lib/arm/v5te/nofp\libc-musl.a(readv.o)
 .debug_str     0x00000000        0x0 c:/program files/microchip/xc32/v4.20/bin/bin/../../lib/gcc/pic32c/8.3.1/../../../../pic32c/lib/arm/v5te/nofp\libc-musl.a(readv.o)
 .comment       0x00000000       0x2c c:/program files/microchip/xc32/v4.20/bin/bin/../../lib/gcc/pic32c/8.3.1/../../../../pic32c/lib/arm/v5te/nofp\libc-musl.a(readv.o)
 .note.GNU-stack
                0x00000000        0x0 c:/program files/microchip/xc32/v4.20/bin/bin/../../lib/gcc/pic32c/8.3.1/../../../../pic32c/lib/arm/v5te/nofp\libc-musl.a(readv.o)
 .debug_frame   0x00000000       0x30 c:/program files/microchip/xc32/v4.20/bin/bin/../../lib/gcc/pic32c/8.3.1/../../../../pic32c/lib/arm/v5te/nofp\libc-musl.a(readv.o)
 .ARM.attributes
                0x00000000       0x2d c:/program files/microchip/xc32/v4.20/bin/bin/../../lib/gcc/pic32c/8.3.1/../../../../pic32c/lib/arm/v5te/nofp\libc-musl.a(readv.o)
 .text          0x00000000        0x0 c:/program files/microchip/xc32/v4.20/bin/bin/../../lib/gcc/pic32c/8.3.1/../../../../pic32c/lib/arm/v5te/nofp\libc-musl.a(malloc.o)
 .data          0x00000000        0x0 c:/program files/microchip/xc32/v4.20/bin/bin/../../lib/gcc/pic32c/8.3.1/../../../../pic32c/lib/arm/v5te/nofp\libc-musl.a(malloc.o)
 .bss           0x00000000      0x20c c:/program files/microchip/xc32/v4.20/bin/bin/../../lib/gcc/pic32c/8.3.1/../../../../pic32c/lib/arm/v5te/nofp\libc-musl.a(malloc.o)
 .xc_stack_usage
                0x00000000       0xeb c:/program files/microchip/xc32/v4.20/bin/bin/../../lib/gcc/pic32c/8.3.1/../../../../pic32c/lib/arm/v5te/nofp\libc-musl.a(malloc.o)
 .text.bin_index
                0x00000000       0x48 c:/program files/microchip/xc32/v4.20/bin/bin/../../lib/gcc/pic32c/8.3.1/../../../../pic32c/lib/arm/v5te/nofp\libc-musl.a(malloc.o)
 .text.adjust_size
                0x00000000       0x60 c:/program files/microchip/xc32/v4.20/bin/bin/../../lib/gcc/pic32c/8.3.1/../../../../pic32c/lib/arm/v5te/nofp\libc-musl.a(malloc.o)
 .text.lock_bin
                0x00000000       0x34 c:/program files/microchip/xc32/v4.20/bin/bin/../../lib/gcc/pic32c/8.3.1/../../../../pic32c/lib/arm/v5te/nofp\libc-musl.a(malloc.o)
 .text.unbin    0x00000000       0x84 c:/program files/microchip/xc32/v4.20/bin/bin/../../lib/gcc/pic32c/8.3.1/../../../../pic32c/lib/arm/v5te/nofp\libc-musl.a(malloc.o)
 .text.alloc_fwd
                0x00000000       0x4c c:/program files/microchip/xc32/v4.20/bin/bin/../../lib/gcc/pic32c/8.3.1/../../../../pic32c/lib/arm/v5te/nofp\libc-musl.a(malloc.o)
 .text.alloc_rev
                0x00000000       0x50 c:/program files/microchip/xc32/v4.20/bin/bin/../../lib/gcc/pic32c/8.3.1/../../../../pic32c/lib/arm/v5te/nofp\libc-musl.a(malloc.o)
 .text.free     0x00000000      0x150 c:/program files/microchip/xc32/v4.20/bin/bin/../../lib/gcc/pic32c/8.3.1/../../../../pic32c/lib/arm/v5te/nofp\libc-musl.a(malloc.o)
 .text.trim     0x00000000       0x40 c:/program files/microchip/xc32/v4.20/bin/bin/../../lib/gcc/pic32c/8.3.1/../../../../pic32c/lib/arm/v5te/nofp\libc-musl.a(malloc.o)
 .text.malloc   0x00000000      0x278 c:/program files/microchip/xc32/v4.20/bin/bin/../../lib/gcc/pic32c/8.3.1/../../../../pic32c/lib/arm/v5te/nofp\libc-musl.a(malloc.o)
 .text.__malloc0
                0x00000000       0x40 c:/program files/microchip/xc32/v4.20/bin/bin/../../lib/gcc/pic32c/8.3.1/../../../../pic32c/lib/arm/v5te/nofp\libc-musl.a(malloc.o)
 .text.realloc  0x00000000       0xe0 c:/program files/microchip/xc32/v4.20/bin/bin/../../lib/gcc/pic32c/8.3.1/../../../../pic32c/lib/arm/v5te/nofp\libc-musl.a(malloc.o)
 .rodata        0x00000000       0x5c c:/program files/microchip/xc32/v4.20/bin/bin/../../lib/gcc/pic32c/8.3.1/../../../../pic32c/lib/arm/v5te/nofp\libc-musl.a(malloc.o)
 .xc_stack_usage.hdr
                0x00000000        0xe c:/program files/microchip/xc32/v4.20/bin/bin/../../lib/gcc/pic32c/8.3.1/../../../../pic32c/lib/arm/v5te/nofp\libc-musl.a(malloc.o)
 .debug_info    0x00000000     0x138c c:/program files/microchip/xc32/v4.20/bin/bin/../../lib/gcc/pic32c/8.3.1/../../../../pic32c/lib/arm/v5te/nofp\libc-musl.a(malloc.o)
 .debug_abbrev  0x00000000      0x413 c:/program files/microchip/xc32/v4.20/bin/bin/../../lib/gcc/pic32c/8.3.1/../../../../pic32c/lib/arm/v5te/nofp\libc-musl.a(malloc.o)
 .debug_loc     0x00000000      0xc44 c:/program files/microchip/xc32/v4.20/bin/bin/../../lib/gcc/pic32c/8.3.1/../../../../pic32c/lib/arm/v5te/nofp\libc-musl.a(malloc.o)
 .debug_aranges
                0x00000000       0x70 c:/program files/microchip/xc32/v4.20/bin/bin/../../lib/gcc/pic32c/8.3.1/../../../../pic32c/lib/arm/v5te/nofp\libc-musl.a(malloc.o)
 .debug_ranges  0x00000000      0x1a8 c:/program files/microchip/xc32/v4.20/bin/bin/../../lib/gcc/pic32c/8.3.1/../../../../pic32c/lib/arm/v5te/nofp\libc-musl.a(malloc.o)
 .debug_line    0x00000000      0xab0 c:/program files/microchip/xc32/v4.20/bin/bin/../../lib/gcc/pic32c/8.3.1/../../../../pic32c/lib/arm/v5te/nofp\libc-musl.a(malloc.o)
 .debug_str     0x00000000       0x13 c:/program files/microchip/xc32/v4.20/bin/bin/../../lib/gcc/pic32c/8.3.1/../../../../pic32c/lib/arm/v5te/nofp\libc-musl.a(malloc.o)
 .comment       0x00000000       0x2c c:/program files/microchip/xc32/v4.20/bin/bin/../../lib/gcc/pic32c/8.3.1/../../../../pic32c/lib/arm/v5te/nofp\libc-musl.a(malloc.o)
 .note.GNU-stack
                0x00000000        0x0 c:/program files/microchip/xc32/v4.20/bin/bin/../../lib/gcc/pic32c/8.3.1/../../../../pic32c/lib/arm/v5te/nofp\libc-musl.a(malloc.o)
 .debug_frame   0x00000000      0x13c c:/program files/microchip/xc32/v4.20/bin/bin/../../lib/gcc/pic32c/8.3.1/../../../../pic32c/lib/arm/v5te/nofp\libc-musl.a(malloc.o)
 .ARM.attributes
                0x00000000       0x2d c:/program files/microchip/xc32/v4.20/bin/bin/../../lib/gcc/pic32c/8.3.1/../../../../pic32c/lib/arm/v5te/nofp\libc-musl.a(malloc.o)
 .text          0x00000000        0x0 c:/program files/microchip/xc32/v4.20/bin/bin/../../lib/gcc/pic32c/8.3.1/../../../../pic32c/lib/arm/v5te/nofp\libc-musl.a(expand_heap.o)
 .data          0x00000000        0x0 c:/program files/microchip/xc32/v4.20/bin/bin/../../lib/gcc/pic32c/8.3.1/../../../../pic32c/lib/arm/v5te/nofp\libc-musl.a(expand_heap.o)
 .bss           0x00000000        0x0 c:/program files/microchip/xc32/v4.20/bin/bin/../../lib/gcc/pic32c/8.3.1/../../../../pic32c/lib/arm/v5te/nofp\libc-musl.a(expand_heap.o)
 .xc_stack_usage
                0x00000000       0x1b c:/program files/microchip/xc32/v4.20/bin/bin/../../lib/gcc/pic32c/8.3.1/../../../../pic32c/lib/arm/v5te/nofp\libc-musl.a(expand_heap.o)
 .text.__expand_heap
                0x00000000       0x2c c:/program files/microchip/xc32/v4.20/bin/bin/../../lib/gcc/pic32c/8.3.1/../../../../pic32c/lib/arm/v5te/nofp\libc-musl.a(expand_heap.o)
 .xc_stack_usage.hdr
                0x00000000        0xe c:/program files/microchip/xc32/v4.20/bin/bin/../../lib/gcc/pic32c/8.3.1/../../../../pic32c/lib/arm/v5te/nofp\libc-musl.a(expand_heap.o)
 .debug_info    0x00000000      0x368 c:/program files/microchip/xc32/v4.20/bin/bin/../../lib/gcc/pic32c/8.3.1/../../../../pic32c/lib/arm/v5te/nofp\libc-musl.a(expand_heap.o)
 .debug_abbrev  0x00000000       0xa5 c:/program files/microchip/xc32/v4.20/bin/bin/../../lib/gcc/pic32c/8.3.1/../../../../pic32c/lib/arm/v5te/nofp\libc-musl.a(expand_heap.o)
 .debug_loc     0x00000000       0x8b c:/program files/microchip/xc32/v4.20/bin/bin/../../lib/gcc/pic32c/8.3.1/../../../../pic32c/lib/arm/v5te/nofp\libc-musl.a(expand_heap.o)
 .debug_aranges
                0x00000000       0x20 c:/program files/microchip/xc32/v4.20/bin/bin/../../lib/gcc/pic32c/8.3.1/../../../../pic32c/lib/arm/v5te/nofp\libc-musl.a(expand_heap.o)
 .debug_ranges  0x00000000       0x10 c:/program files/microchip/xc32/v4.20/bin/bin/../../lib/gcc/pic32c/8.3.1/../../../../pic32c/lib/arm/v5te/nofp\libc-musl.a(expand_heap.o)
 .debug_line    0x00000000       0xf8 c:/program files/microchip/xc32/v4.20/bin/bin/../../lib/gcc/pic32c/8.3.1/../../../../pic32c/lib/arm/v5te/nofp\libc-musl.a(expand_heap.o)
 .debug_str     0x00000000        0x0 c:/program files/microchip/xc32/v4.20/bin/bin/../../lib/gcc/pic32c/8.3.1/../../../../pic32c/lib/arm/v5te/nofp\libc-musl.a(expand_heap.o)
 .comment       0x00000000       0x2c c:/program files/microchip/xc32/v4.20/bin/bin/../../lib/gcc/pic32c/8.3.1/../../../../pic32c/lib/arm/v5te/nofp\libc-musl.a(expand_heap.o)
 .note.GNU-stack
                0x00000000        0x0 c:/program files/microchip/xc32/v4.20/bin/bin/../../lib/gcc/pic32c/8.3.1/../../../../pic32c/lib/arm/v5te/nofp\libc-musl.a(expand_heap.o)
 .debug_frame   0x00000000       0x28 c:/program files/microchip/xc32/v4.20/bin/bin/../../lib/gcc/pic32c/8.3.1/../../../../pic32c/lib/arm/v5te/nofp\libc-musl.a(expand_heap.o)
 .ARM.attributes
                0x00000000       0x2d c:/program files/microchip/xc32/v4.20/bin/bin/../../lib/gcc/pic32c/8.3.1/../../../../pic32c/lib/arm/v5te/nofp\libc-musl.a(expand_heap.o)
 .text          0x00000000        0x0 c:/program files/microchip/xc32/v4.20/bin/bin/../../lib/gcc/pic32c/8.3.1/../../../../pic32c/lib/arm/v5te/nofp\libc-musl.a(__overflow.o)
 .data          0x00000000        0x0 c:/program files/microchip/xc32/v4.20/bin/bin/../../lib/gcc/pic32c/8.3.1/../../../../pic32c/lib/arm/v5te/nofp\libc-musl.a(__overflow.o)
 .bss           0x00000000        0x0 c:/program files/microchip/xc32/v4.20/bin/bin/../../lib/gcc/pic32c/8.3.1/../../../../pic32c/lib/arm/v5te/nofp\libc-musl.a(__overflow.o)
 .xc_stack_usage
                0x00000000       0x18 c:/program files/microchip/xc32/v4.20/bin/bin/../../lib/gcc/pic32c/8.3.1/../../../../pic32c/lib/arm/v5te/nofp\libc-musl.a(__overflow.o)
 .text.__overflow
                0x00000000       0x84 c:/program files/microchip/xc32/v4.20/bin/bin/../../lib/gcc/pic32c/8.3.1/../../../../pic32c/lib/arm/v5te/nofp\libc-musl.a(__overflow.o)
 .xc_stack_usage.hdr
                0x00000000        0xe c:/program files/microchip/xc32/v4.20/bin/bin/../../lib/gcc/pic32c/8.3.1/../../../../pic32c/lib/arm/v5te/nofp\libc-musl.a(__overflow.o)
 .debug_info    0x00000000      0x613 c:/program files/microchip/xc32/v4.20/bin/bin/../../lib/gcc/pic32c/8.3.1/../../../../pic32c/lib/arm/v5te/nofp\libc-musl.a(__overflow.o)
 .debug_abbrev  0x00000000      0x125 c:/program files/microchip/xc32/v4.20/bin/bin/../../lib/gcc/pic32c/8.3.1/../../../../pic32c/lib/arm/v5te/nofp\libc-musl.a(__overflow.o)
 .debug_loc     0x00000000       0xb6 c:/program files/microchip/xc32/v4.20/bin/bin/../../lib/gcc/pic32c/8.3.1/../../../../pic32c/lib/arm/v5te/nofp\libc-musl.a(__overflow.o)
 .debug_aranges
                0x00000000       0x20 c:/program files/microchip/xc32/v4.20/bin/bin/../../lib/gcc/pic32c/8.3.1/../../../../pic32c/lib/arm/v5te/nofp\libc-musl.a(__overflow.o)
 .debug_ranges  0x00000000       0x10 c:/program files/microchip/xc32/v4.20/bin/bin/../../lib/gcc/pic32c/8.3.1/../../../../pic32c/lib/arm/v5te/nofp\libc-musl.a(__overflow.o)
 .debug_line    0x00000000      0x207 c:/program files/microchip/xc32/v4.20/bin/bin/../../lib/gcc/pic32c/8.3.1/../../../../pic32c/lib/arm/v5te/nofp\libc-musl.a(__overflow.o)
 .debug_str     0x00000000        0xa c:/program files/microchip/xc32/v4.20/bin/bin/../../lib/gcc/pic32c/8.3.1/../../../../pic32c/lib/arm/v5te/nofp\libc-musl.a(__overflow.o)
 .comment       0x00000000       0x2c c:/program files/microchip/xc32/v4.20/bin/bin/../../lib/gcc/pic32c/8.3.1/../../../../pic32c/lib/arm/v5te/nofp\libc-musl.a(__overflow.o)
 .note.GNU-stack
                0x00000000        0x0 c:/program files/microchip/xc32/v4.20/bin/bin/../../lib/gcc/pic32c/8.3.1/../../../../pic32c/lib/arm/v5te/nofp\libc-musl.a(__overflow.o)
 .debug_frame   0x00000000       0x30 c:/program files/microchip/xc32/v4.20/bin/bin/../../lib/gcc/pic32c/8.3.1/../../../../pic32c/lib/arm/v5te/nofp\libc-musl.a(__overflow.o)
 .ARM.attributes
                0x00000000       0x2d c:/program files/microchip/xc32/v4.20/bin/bin/../../lib/gcc/pic32c/8.3.1/../../../../pic32c/lib/arm/v5te/nofp\libc-musl.a(__overflow.o)
 .text          0x00000000        0x0 c:/program files/microchip/xc32/v4.20/bin/bin/../../lib/gcc/pic32c/8.3.1/../../../../pic32c/lib/arm/v5te/nofp\libc-musl.a(__fclose.o)
 .data          0x00000000        0x0 c:/program files/microchip/xc32/v4.20/bin/bin/../../lib/gcc/pic32c/8.3.1/../../../../pic32c/lib/arm/v5te/nofp\libc-musl.a(__fclose.o)
 .bss           0x00000000        0x0 c:/program files/microchip/xc32/v4.20/bin/bin/../../lib/gcc/pic32c/8.3.1/../../../../pic32c/lib/arm/v5te/nofp\libc-musl.a(__fclose.o)
 .xc_stack_usage
                0x00000000       0x16 c:/program files/microchip/xc32/v4.20/bin/bin/../../lib/gcc/pic32c/8.3.1/../../../../pic32c/lib/arm/v5te/nofp\libc-musl.a(__fclose.o)
 .text.__fclose
                0x00000000       0x20 c:/program files/microchip/xc32/v4.20/bin/bin/../../lib/gcc/pic32c/8.3.1/../../../../pic32c/lib/arm/v5te/nofp\libc-musl.a(__fclose.o)
 .xc_stack_usage.hdr
                0x00000000        0xe c:/program files/microchip/xc32/v4.20/bin/bin/../../lib/gcc/pic32c/8.3.1/../../../../pic32c/lib/arm/v5te/nofp\libc-musl.a(__fclose.o)
 .debug_info    0x00000000      0x41a c:/program files/microchip/xc32/v4.20/bin/bin/../../lib/gcc/pic32c/8.3.1/../../../../pic32c/lib/arm/v5te/nofp\libc-musl.a(__fclose.o)
 .debug_abbrev  0x00000000       0xc4 c:/program files/microchip/xc32/v4.20/bin/bin/../../lib/gcc/pic32c/8.3.1/../../../../pic32c/lib/arm/v5te/nofp\libc-musl.a(__fclose.o)
 .debug_loc     0x00000000       0x74 c:/program files/microchip/xc32/v4.20/bin/bin/../../lib/gcc/pic32c/8.3.1/../../../../pic32c/lib/arm/v5te/nofp\libc-musl.a(__fclose.o)
 .debug_aranges
                0x00000000       0x20 c:/program files/microchip/xc32/v4.20/bin/bin/../../lib/gcc/pic32c/8.3.1/../../../../pic32c/lib/arm/v5te/nofp\libc-musl.a(__fclose.o)
 .debug_ranges  0x00000000       0x10 c:/program files/microchip/xc32/v4.20/bin/bin/../../lib/gcc/pic32c/8.3.1/../../../../pic32c/lib/arm/v5te/nofp\libc-musl.a(__fclose.o)
 .debug_line    0x00000000      0x157 c:/program files/microchip/xc32/v4.20/bin/bin/../../lib/gcc/pic32c/8.3.1/../../../../pic32c/lib/arm/v5te/nofp\libc-musl.a(__fclose.o)
 .debug_str     0x00000000        0x0 c:/program files/microchip/xc32/v4.20/bin/bin/../../lib/gcc/pic32c/8.3.1/../../../../pic32c/lib/arm/v5te/nofp\libc-musl.a(__fclose.o)
 .comment       0x00000000       0x2c c:/program files/microchip/xc32/v4.20/bin/bin/../../lib/gcc/pic32c/8.3.1/../../../../pic32c/lib/arm/v5te/nofp\libc-musl.a(__fclose.o)
 .note.GNU-stack
                0x00000000        0x0 c:/program files/microchip/xc32/v4.20/bin/bin/../../lib/gcc/pic32c/8.3.1/../../../../pic32c/lib/arm/v5te/nofp\libc-musl.a(__fclose.o)
 .debug_frame   0x00000000       0x20 c:/program files/microchip/xc32/v4.20/bin/bin/../../lib/gcc/pic32c/8.3.1/../../../../pic32c/lib/arm/v5te/nofp\libc-musl.a(__fclose.o)
 .ARM.attributes
                0x00000000       0x2d c:/program files/microchip/xc32/v4.20/bin/bin/../../lib/gcc/pic32c/8.3.1/../../../../pic32c/lib/arm/v5te/nofp\libc-musl.a(__fclose.o)
 .text          0x00000000        0x0 c:/program files/microchip/xc32/v4.20/bin/bin/../../lib/gcc/pic32c/8.3.1/../../../../pic32c/lib/arm/v5te/nofp\libc-musl.a(__fopen.o)
 .data          0x00000000        0x0 c:/program files/microchip/xc32/v4.20/bin/bin/../../lib/gcc/pic32c/8.3.1/../../../../pic32c/lib/arm/v5te/nofp\libc-musl.a(__fopen.o)
 .bss           0x00000000        0x0 c:/program files/microchip/xc32/v4.20/bin/bin/../../lib/gcc/pic32c/8.3.1/../../../../pic32c/lib/arm/v5te/nofp\libc-musl.a(__fopen.o)
 .xc_stack_usage
                0x00000000       0x43 c:/program files/microchip/xc32/v4.20/bin/bin/../../lib/gcc/pic32c/8.3.1/../../../../pic32c/lib/arm/v5te/nofp\libc-musl.a(__fopen.o)
 .text.__dummy  0x00000000        0x8 c:/program files/microchip/xc32/v4.20/bin/bin/../../lib/gcc/pic32c/8.3.1/../../../../pic32c/lib/arm/v5te/nofp\libc-musl.a(__fopen.o)
 .text.__fopen_std
                0x00000000       0x48 c:/program files/microchip/xc32/v4.20/bin/bin/../../lib/gcc/pic32c/8.3.1/../../../../pic32c/lib/arm/v5te/nofp\libc-musl.a(__fopen.o)
 .text.__fopen  0x00000000        0xc c:/program files/microchip/xc32/v4.20/bin/bin/../../lib/gcc/pic32c/8.3.1/../../../../pic32c/lib/arm/v5te/nofp\libc-musl.a(__fopen.o)
 .xc_stack_usage.hdr
                0x00000000        0xe c:/program files/microchip/xc32/v4.20/bin/bin/../../lib/gcc/pic32c/8.3.1/../../../../pic32c/lib/arm/v5te/nofp\libc-musl.a(__fopen.o)
 .debug_info    0x00000000      0x561 c:/program files/microchip/xc32/v4.20/bin/bin/../../lib/gcc/pic32c/8.3.1/../../../../pic32c/lib/arm/v5te/nofp\libc-musl.a(__fopen.o)
 .debug_abbrev  0x00000000      0x14f c:/program files/microchip/xc32/v4.20/bin/bin/../../lib/gcc/pic32c/8.3.1/../../../../pic32c/lib/arm/v5te/nofp\libc-musl.a(__fopen.o)
 .debug_loc     0x00000000       0x87 c:/program files/microchip/xc32/v4.20/bin/bin/../../lib/gcc/pic32c/8.3.1/../../../../pic32c/lib/arm/v5te/nofp\libc-musl.a(__fopen.o)
 .debug_aranges
                0x00000000       0x30 c:/program files/microchip/xc32/v4.20/bin/bin/../../lib/gcc/pic32c/8.3.1/../../../../pic32c/lib/arm/v5te/nofp\libc-musl.a(__fopen.o)
 .debug_ranges  0x00000000       0x20 c:/program files/microchip/xc32/v4.20/bin/bin/../../lib/gcc/pic32c/8.3.1/../../../../pic32c/lib/arm/v5te/nofp\libc-musl.a(__fopen.o)
 .debug_line    0x00000000      0x227 c:/program files/microchip/xc32/v4.20/bin/bin/../../lib/gcc/pic32c/8.3.1/../../../../pic32c/lib/arm/v5te/nofp\libc-musl.a(__fopen.o)
 .debug_str     0x00000000        0x0 c:/program files/microchip/xc32/v4.20/bin/bin/../../lib/gcc/pic32c/8.3.1/../../../../pic32c/lib/arm/v5te/nofp\libc-musl.a(__fopen.o)
 .comment       0x00000000       0x2c c:/program files/microchip/xc32/v4.20/bin/bin/../../lib/gcc/pic32c/8.3.1/../../../../pic32c/lib/arm/v5te/nofp\libc-musl.a(__fopen.o)
 .note.GNU-stack
                0x00000000        0x0 c:/program files/microchip/xc32/v4.20/bin/bin/../../lib/gcc/pic32c/8.3.1/../../../../pic32c/lib/arm/v5te/nofp\libc-musl.a(__fopen.o)
 .debug_frame   0x00000000       0x50 c:/program files/microchip/xc32/v4.20/bin/bin/../../lib/gcc/pic32c/8.3.1/../../../../pic32c/lib/arm/v5te/nofp\libc-musl.a(__fopen.o)
 .ARM.attributes
                0x00000000       0x2d c:/program files/microchip/xc32/v4.20/bin/bin/../../lib/gcc/pic32c/8.3.1/../../../../pic32c/lib/arm/v5te/nofp\libc-musl.a(__fopen.o)
 .text          0x00000000        0x0 c:/program files/microchip/xc32/v4.20/bin/bin/../../lib/gcc/pic32c/8.3.1/../../../../pic32c/lib/arm/v5te/nofp\libc-musl.a(__fseeko.o)
 .data          0x00000000        0x0 c:/program files/microchip/xc32/v4.20/bin/bin/../../lib/gcc/pic32c/8.3.1/../../../../pic32c/lib/arm/v5te/nofp\libc-musl.a(__fseeko.o)
 .bss           0x00000000        0x0 c:/program files/microchip/xc32/v4.20/bin/bin/../../lib/gcc/pic32c/8.3.1/../../../../pic32c/lib/arm/v5te/nofp\libc-musl.a(__fseeko.o)
 .xc_stack_usage
                0x00000000       0x16 c:/program files/microchip/xc32/v4.20/bin/bin/../../lib/gcc/pic32c/8.3.1/../../../../pic32c/lib/arm/v5te/nofp\libc-musl.a(__fseeko.o)
 .text.__fseeko
                0x00000000        0x8 c:/program files/microchip/xc32/v4.20/bin/bin/../../lib/gcc/pic32c/8.3.1/../../../../pic32c/lib/arm/v5te/nofp\libc-musl.a(__fseeko.o)
 .xc_stack_usage.hdr
                0x00000000        0xe c:/program files/microchip/xc32/v4.20/bin/bin/../../lib/gcc/pic32c/8.3.1/../../../../pic32c/lib/arm/v5te/nofp\libc-musl.a(__fseeko.o)
 .debug_info    0x00000000      0x4d3 c:/program files/microchip/xc32/v4.20/bin/bin/../../lib/gcc/pic32c/8.3.1/../../../../pic32c/lib/arm/v5te/nofp\libc-musl.a(__fseeko.o)
 .debug_abbrev  0x00000000       0xcb c:/program files/microchip/xc32/v4.20/bin/bin/../../lib/gcc/pic32c/8.3.1/../../../../pic32c/lib/arm/v5te/nofp\libc-musl.a(__fseeko.o)
 .debug_loc     0x00000000       0x6f c:/program files/microchip/xc32/v4.20/bin/bin/../../lib/gcc/pic32c/8.3.1/../../../../pic32c/lib/arm/v5te/nofp\libc-musl.a(__fseeko.o)
 .debug_aranges
                0x00000000       0x20 c:/program files/microchip/xc32/v4.20/bin/bin/../../lib/gcc/pic32c/8.3.1/../../../../pic32c/lib/arm/v5te/nofp\libc-musl.a(__fseeko.o)
 .debug_ranges  0x00000000       0x10 c:/program files/microchip/xc32/v4.20/bin/bin/../../lib/gcc/pic32c/8.3.1/../../../../pic32c/lib/arm/v5te/nofp\libc-musl.a(__fseeko.o)
 .debug_line    0x00000000      0x146 c:/program files/microchip/xc32/v4.20/bin/bin/../../lib/gcc/pic32c/8.3.1/../../../../pic32c/lib/arm/v5te/nofp\libc-musl.a(__fseeko.o)
 .debug_str     0x00000000        0x0 c:/program files/microchip/xc32/v4.20/bin/bin/../../lib/gcc/pic32c/8.3.1/../../../../pic32c/lib/arm/v5te/nofp\libc-musl.a(__fseeko.o)
 .comment       0x00000000       0x2c c:/program files/microchip/xc32/v4.20/bin/bin/../../lib/gcc/pic32c/8.3.1/../../../../pic32c/lib/arm/v5te/nofp\libc-musl.a(__fseeko.o)
 .note.GNU-stack
                0x00000000        0x0 c:/program files/microchip/xc32/v4.20/bin/bin/../../lib/gcc/pic32c/8.3.1/../../../../pic32c/lib/arm/v5te/nofp\libc-musl.a(__fseeko.o)
 .debug_frame   0x00000000       0x20 c:/program files/microchip/xc32/v4.20/bin/bin/../../lib/gcc/pic32c/8.3.1/../../../../pic32c/lib/arm/v5te/nofp\libc-musl.a(__fseeko.o)
 .ARM.attributes
                0x00000000       0x2d c:/program files/microchip/xc32/v4.20/bin/bin/../../lib/gcc/pic32c/8.3.1/../../../../pic32c/lib/arm/v5te/nofp\libc-musl.a(__fseeko.o)
 .text          0x00000000        0x0 c:/program files/microchip/xc32/v4.20/bin/bin/../../lib/gcc/pic32c/8.3.1/../../../../pic32c/lib/arm/v5te/nofp\libc-musl.a(__ftello.o)
 .data          0x00000000        0x0 c:/program files/microchip/xc32/v4.20/bin/bin/../../lib/gcc/pic32c/8.3.1/../../../../pic32c/lib/arm/v5te/nofp\libc-musl.a(__ftello.o)
 .bss           0x00000000        0x0 c:/program files/microchip/xc32/v4.20/bin/bin/../../lib/gcc/pic32c/8.3.1/../../../../pic32c/lib/arm/v5te/nofp\libc-musl.a(__ftello.o)
 .xc_stack_usage
                0x00000000       0x2f c:/program files/microchip/xc32/v4.20/bin/bin/../../lib/gcc/pic32c/8.3.1/../../../../pic32c/lib/arm/v5te/nofp\libc-musl.a(__ftello.o)
 .text.__dummy  0x00000000       0x28 c:/program files/microchip/xc32/v4.20/bin/bin/../../lib/gcc/pic32c/8.3.1/../../../../pic32c/lib/arm/v5te/nofp\libc-musl.a(__ftello.o)
 .text.__ftello_adj
                0x00000000        0xc c:/program files/microchip/xc32/v4.20/bin/bin/../../lib/gcc/pic32c/8.3.1/../../../../pic32c/lib/arm/v5te/nofp\libc-musl.a(__ftello.o)
 .xc_stack_usage.hdr
                0x00000000        0xe c:/program files/microchip/xc32/v4.20/bin/bin/../../lib/gcc/pic32c/8.3.1/../../../../pic32c/lib/arm/v5te/nofp\libc-musl.a(__ftello.o)
 .debug_info    0x00000000      0x501 c:/program files/microchip/xc32/v4.20/bin/bin/../../lib/gcc/pic32c/8.3.1/../../../../pic32c/lib/arm/v5te/nofp\libc-musl.a(__ftello.o)
 .debug_abbrev  0x00000000       0xf5 c:/program files/microchip/xc32/v4.20/bin/bin/../../lib/gcc/pic32c/8.3.1/../../../../pic32c/lib/arm/v5te/nofp\libc-musl.a(__ftello.o)
 .debug_loc     0x00000000       0x8f c:/program files/microchip/xc32/v4.20/bin/bin/../../lib/gcc/pic32c/8.3.1/../../../../pic32c/lib/arm/v5te/nofp\libc-musl.a(__ftello.o)
 .debug_aranges
                0x00000000       0x28 c:/program files/microchip/xc32/v4.20/bin/bin/../../lib/gcc/pic32c/8.3.1/../../../../pic32c/lib/arm/v5te/nofp\libc-musl.a(__ftello.o)
 .debug_ranges  0x00000000       0x18 c:/program files/microchip/xc32/v4.20/bin/bin/../../lib/gcc/pic32c/8.3.1/../../../../pic32c/lib/arm/v5te/nofp\libc-musl.a(__ftello.o)
 .debug_line    0x00000000      0x17d c:/program files/microchip/xc32/v4.20/bin/bin/../../lib/gcc/pic32c/8.3.1/../../../../pic32c/lib/arm/v5te/nofp\libc-musl.a(__ftello.o)
 .debug_str     0x00000000        0x0 c:/program files/microchip/xc32/v4.20/bin/bin/../../lib/gcc/pic32c/8.3.1/../../../../pic32c/lib/arm/v5te/nofp\libc-musl.a(__ftello.o)
 .comment       0x00000000       0x2c c:/program files/microchip/xc32/v4.20/bin/bin/../../lib/gcc/pic32c/8.3.1/../../../../pic32c/lib/arm/v5te/nofp\libc-musl.a(__ftello.o)
 .note.GNU-stack
                0x00000000        0x0 c:/program files/microchip/xc32/v4.20/bin/bin/../../lib/gcc/pic32c/8.3.1/../../../../pic32c/lib/arm/v5te/nofp\libc-musl.a(__ftello.o)
 .debug_frame   0x00000000       0x38 c:/program files/microchip/xc32/v4.20/bin/bin/../../lib/gcc/pic32c/8.3.1/../../../../pic32c/lib/arm/v5te/nofp\libc-musl.a(__ftello.o)
 .ARM.attributes
                0x00000000       0x2d c:/program files/microchip/xc32/v4.20/bin/bin/../../lib/gcc/pic32c/8.3.1/../../../../pic32c/lib/arm/v5te/nofp\libc-musl.a(__ftello.o)
 .text          0x00000000        0x0 c:/program files/microchip/xc32/v4.20/bin/bin/../../lib/gcc/pic32c/8.3.1/../../../../pic32c/lib/arm/v5te/nofp\libc-musl.a(__fwrite.o)
 .data          0x00000000        0x0 c:/program files/microchip/xc32/v4.20/bin/bin/../../lib/gcc/pic32c/8.3.1/../../../../pic32c/lib/arm/v5te/nofp\libc-musl.a(__fwrite.o)
 .bss           0x00000000        0x0 c:/program files/microchip/xc32/v4.20/bin/bin/../../lib/gcc/pic32c/8.3.1/../../../../pic32c/lib/arm/v5te/nofp\libc-musl.a(__fwrite.o)
 .xc_stack_usage
                0x00000000       0x36 c:/program files/microchip/xc32/v4.20/bin/bin/../../lib/gcc/pic32c/8.3.1/../../../../pic32c/lib/arm/v5te/nofp\libc-musl.a(__fwrite.o)
 .xc_stack_usage.hdr
                0x00000000        0xe c:/program files/microchip/xc32/v4.20/bin/bin/../../lib/gcc/pic32c/8.3.1/../../../../pic32c/lib/arm/v5te/nofp\libc-musl.a(__fwrite.o)
 .text          0x00000000        0x0 c:/program files/microchip/xc32/v4.20/bin/bin/../../lib/gcc/pic32c/8.3.1/../../../../pic32c/lib/arm/v5te/nofp\libc-musl.a(__towrite.o)
 .data          0x00000000        0x0 c:/program files/microchip/xc32/v4.20/bin/bin/../../lib/gcc/pic32c/8.3.1/../../../../pic32c/lib/arm/v5te/nofp\libc-musl.a(__towrite.o)
 .bss           0x00000000        0x0 c:/program files/microchip/xc32/v4.20/bin/bin/../../lib/gcc/pic32c/8.3.1/../../../../pic32c/lib/arm/v5te/nofp\libc-musl.a(__towrite.o)
 .xc_stack_usage
                0x00000000       0x2c c:/program files/microchip/xc32/v4.20/bin/bin/../../lib/gcc/pic32c/8.3.1/../../../../pic32c/lib/arm/v5te/nofp\libc-musl.a(__towrite.o)
 .text.__dummy  0x00000000        0x8 c:/program files/microchip/xc32/v4.20/bin/bin/../../lib/gcc/pic32c/8.3.1/../../../../pic32c/lib/arm/v5te/nofp\libc-musl.a(__towrite.o)
 .text.__towrite
                0x00000000       0x30 c:/program files/microchip/xc32/v4.20/bin/bin/../../lib/gcc/pic32c/8.3.1/../../../../pic32c/lib/arm/v5te/nofp\libc-musl.a(__towrite.o)
 .xc_stack_usage.hdr
                0x00000000        0xe c:/program files/microchip/xc32/v4.20/bin/bin/../../lib/gcc/pic32c/8.3.1/../../../../pic32c/lib/arm/v5te/nofp\libc-musl.a(__towrite.o)
 .debug_info    0x00000000      0x4e1 c:/program files/microchip/xc32/v4.20/bin/bin/../../lib/gcc/pic32c/8.3.1/../../../../pic32c/lib/arm/v5te/nofp\libc-musl.a(__towrite.o)
 .debug_abbrev  0x00000000       0xf8 c:/program files/microchip/xc32/v4.20/bin/bin/../../lib/gcc/pic32c/8.3.1/../../../../pic32c/lib/arm/v5te/nofp\libc-musl.a(__towrite.o)
 .debug_loc     0x00000000       0x7c c:/program files/microchip/xc32/v4.20/bin/bin/../../lib/gcc/pic32c/8.3.1/../../../../pic32c/lib/arm/v5te/nofp\libc-musl.a(__towrite.o)
 .debug_aranges
                0x00000000       0x28 c:/program files/microchip/xc32/v4.20/bin/bin/../../lib/gcc/pic32c/8.3.1/../../../../pic32c/lib/arm/v5te/nofp\libc-musl.a(__towrite.o)
 .debug_ranges  0x00000000       0x18 c:/program files/microchip/xc32/v4.20/bin/bin/../../lib/gcc/pic32c/8.3.1/../../../../pic32c/lib/arm/v5te/nofp\libc-musl.a(__towrite.o)
 .debug_line    0x00000000      0x18c c:/program files/microchip/xc32/v4.20/bin/bin/../../lib/gcc/pic32c/8.3.1/../../../../pic32c/lib/arm/v5te/nofp\libc-musl.a(__towrite.o)
 .debug_str     0x00000000        0x0 c:/program files/microchip/xc32/v4.20/bin/bin/../../lib/gcc/pic32c/8.3.1/../../../../pic32c/lib/arm/v5te/nofp\libc-musl.a(__towrite.o)
 .comment       0x00000000       0x2c c:/program files/microchip/xc32/v4.20/bin/bin/../../lib/gcc/pic32c/8.3.1/../../../../pic32c/lib/arm/v5te/nofp\libc-musl.a(__towrite.o)
 .note.GNU-stack
                0x00000000        0x0 c:/program files/microchip/xc32/v4.20/bin/bin/../../lib/gcc/pic32c/8.3.1/../../../../pic32c/lib/arm/v5te/nofp\libc-musl.a(__towrite.o)
 .debug_frame   0x00000000       0x38 c:/program files/microchip/xc32/v4.20/bin/bin/../../lib/gcc/pic32c/8.3.1/../../../../pic32c/lib/arm/v5te/nofp\libc-musl.a(__towrite.o)
 .ARM.attributes
                0x00000000       0x2d c:/program files/microchip/xc32/v4.20/bin/bin/../../lib/gcc/pic32c/8.3.1/../../../../pic32c/lib/arm/v5te/nofp\libc-musl.a(__towrite.o)
 .text          0x00000000        0x0 c:/program files/microchip/xc32/v4.20/bin/bin/../../lib/gcc/pic32c/8.3.1/../../../../pic32c/lib/arm/v5te/nofp\libpic32c.a(close.o)
 .data          0x00000000        0x0 c:/program files/microchip/xc32/v4.20/bin/bin/../../lib/gcc/pic32c/8.3.1/../../../../pic32c/lib/arm/v5te/nofp\libpic32c.a(close.o)
 .bss           0x00000000        0x0 c:/program files/microchip/xc32/v4.20/bin/bin/../../lib/gcc/pic32c/8.3.1/../../../../pic32c/lib/arm/v5te/nofp\libpic32c.a(close.o)
 .xc_stack_usage
                0x00000000       0x13 c:/program files/microchip/xc32/v4.20/bin/bin/../../lib/gcc/pic32c/8.3.1/../../../../pic32c/lib/arm/v5te/nofp\libpic32c.a(close.o)
 .gnu.warning.closestub
                0x00000000        0x0 c:/program files/microchip/xc32/v4.20/bin/bin/../../lib/gcc/pic32c/8.3.1/../../../../pic32c/lib/arm/v5te/nofp\libpic32c.a(close.o)
 .xc_stack_usage.hdr
                0x00000000        0xe c:/program files/microchip/xc32/v4.20/bin/bin/../../lib/gcc/pic32c/8.3.1/../../../../pic32c/lib/arm/v5te/nofp\libpic32c.a(close.o)
 .text          0x00000000        0x0 c:/program files/microchip/xc32/v4.20/bin/bin/../../lib/gcc/pic32c/8.3.1/../../../../pic32c/lib/arm/v5te/nofp\libpic32c.a(lseek.o)
 .data          0x00000000        0x0 c:/program files/microchip/xc32/v4.20/bin/bin/../../lib/gcc/pic32c/8.3.1/../../../../pic32c/lib/arm/v5te/nofp\libpic32c.a(lseek.o)
 .bss           0x00000000        0x0 c:/program files/microchip/xc32/v4.20/bin/bin/../../lib/gcc/pic32c/8.3.1/../../../../pic32c/lib/arm/v5te/nofp\libpic32c.a(lseek.o)
 .xc_stack_usage
                0x00000000       0x13 c:/program files/microchip/xc32/v4.20/bin/bin/../../lib/gcc/pic32c/8.3.1/../../../../pic32c/lib/arm/v5te/nofp\libpic32c.a(lseek.o)
 .xc_stack_usage.hdr
                0x00000000        0xe c:/program files/microchip/xc32/v4.20/bin/bin/../../lib/gcc/pic32c/8.3.1/../../../../pic32c/lib/arm/v5te/nofp\libpic32c.a(lseek.o)
 .text          0x00000000        0x0 c:/program files/microchip/xc32/v4.20/bin/bin/../../lib/gcc/pic32c/8.3.1/../../../../pic32c/lib/arm/v5te/nofp\libpic32c.a(sbrk.o)
 .data          0x00000000        0x0 c:/program files/microchip/xc32/v4.20/bin/bin/../../lib/gcc/pic32c/8.3.1/../../../../pic32c/lib/arm/v5te/nofp\libpic32c.a(sbrk.o)
 .bss           0x00000000        0x4 c:/program files/microchip/xc32/v4.20/bin/bin/../../lib/gcc/pic32c/8.3.1/../../../../pic32c/lib/arm/v5te/nofp\libpic32c.a(sbrk.o)
 .xc_stack_usage
                0x00000000       0x13 c:/program files/microchip/xc32/v4.20/bin/bin/../../lib/gcc/pic32c/8.3.1/../../../../pic32c/lib/arm/v5te/nofp\libpic32c.a(sbrk.o)
 .text._sbrk    0x00000000       0x40 c:/program files/microchip/xc32/v4.20/bin/bin/../../lib/gcc/pic32c/8.3.1/../../../../pic32c/lib/arm/v5te/nofp\libpic32c.a(sbrk.o)
 .xc_stack_usage.hdr
                0x00000000        0xe c:/program files/microchip/xc32/v4.20/bin/bin/../../lib/gcc/pic32c/8.3.1/../../../../pic32c/lib/arm/v5te/nofp\libpic32c.a(sbrk.o)
 .debug_info    0x00000000      0x26b c:/program files/microchip/xc32/v4.20/bin/bin/../../lib/gcc/pic32c/8.3.1/../../../../pic32c/lib/arm/v5te/nofp\libpic32c.a(sbrk.o)
 .debug_abbrev  0x00000000       0x2e c:/program files/microchip/xc32/v4.20/bin/bin/../../lib/gcc/pic32c/8.3.1/../../../../pic32c/lib/arm/v5te/nofp\libpic32c.a(sbrk.o)
 .debug_aranges
                0x00000000       0x20 c:/program files/microchip/xc32/v4.20/bin/bin/../../lib/gcc/pic32c/8.3.1/../../../../pic32c/lib/arm/v5te/nofp\libpic32c.a(sbrk.o)
 .debug_ranges  0x00000000       0x10 c:/program files/microchip/xc32/v4.20/bin/bin/../../lib/gcc/pic32c/8.3.1/../../../../pic32c/lib/arm/v5te/nofp\libpic32c.a(sbrk.o)
 .debug_line    0x00000000       0xb9 c:/program files/microchip/xc32/v4.20/bin/bin/../../lib/gcc/pic32c/8.3.1/../../../../pic32c/lib/arm/v5te/nofp\libpic32c.a(sbrk.o)
 .debug_str     0x00000000        0x0 c:/program files/microchip/xc32/v4.20/bin/bin/../../lib/gcc/pic32c/8.3.1/../../../../pic32c/lib/arm/v5te/nofp\libpic32c.a(sbrk.o)
 .comment       0x00000000       0x2c c:/program files/microchip/xc32/v4.20/bin/bin/../../lib/gcc/pic32c/8.3.1/../../../../pic32c/lib/arm/v5te/nofp\libpic32c.a(sbrk.o)
 .debug_frame   0x00000000       0x20 c:/program files/microchip/xc32/v4.20/bin/bin/../../lib/gcc/pic32c/8.3.1/../../../../pic32c/lib/arm/v5te/nofp\libpic32c.a(sbrk.o)
 .ARM.attributes
                0x00000000       0x2b c:/program files/microchip/xc32/v4.20/bin/bin/../../lib/gcc/pic32c/8.3.1/../../../../pic32c/lib/arm/v5te/nofp\libpic32c.a(sbrk.o)
 .text          0x00000000      0x3c0 c:/program files/microchip/xc32/v4.20/bin/bin/../../lib/gcc/pic32c/8.3.1/arm/v5te/nofp\libgcc.a(_arm_addsubdf3.o)
 .data          0x00000000        0x0 c:/program files/microchip/xc32/v4.20/bin/bin/../../lib/gcc/pic32c/8.3.1/arm/v5te/nofp\libgcc.a(_arm_addsubdf3.o)
 .bss           0x00000000        0x0 c:/program files/microchip/xc32/v4.20/bin/bin/../../lib/gcc/pic32c/8.3.1/arm/v5te/nofp\libgcc.a(_arm_addsubdf3.o)
 .xc_stack_usage.hdr
                0x00000000        0xe c:/program files/microchip/xc32/v4.20/bin/bin/../../lib/gcc/pic32c/8.3.1/arm/v5te/nofp\libgcc.a(_arm_addsubdf3.o)
 .xc_stack_usage
                0x00000000       0xca c:/program files/microchip/xc32/v4.20/bin/bin/../../lib/gcc/pic32c/8.3.1/arm/v5te/nofp\libgcc.a(_arm_addsubdf3.o)
 .debug_line    0x00000000      0x199 c:/program files/microchip/xc32/v4.20/bin/bin/../../lib/gcc/pic32c/8.3.1/arm/v5te/nofp\libgcc.a(_arm_addsubdf3.o)
 .debug_info    0x00000000       0x26 c:/program files/microchip/xc32/v4.20/bin/bin/../../lib/gcc/pic32c/8.3.1/arm/v5te/nofp\libgcc.a(_arm_addsubdf3.o)
 .debug_abbrev  0x00000000       0x14 c:/program files/microchip/xc32/v4.20/bin/bin/../../lib/gcc/pic32c/8.3.1/arm/v5te/nofp\libgcc.a(_arm_addsubdf3.o)
 .debug_aranges
                0x00000000       0x20 c:/program files/microchip/xc32/v4.20/bin/bin/../../lib/gcc/pic32c/8.3.1/arm/v5te/nofp\libgcc.a(_arm_addsubdf3.o)
 .debug_str     0x00000000       0xe6 c:/program files/microchip/xc32/v4.20/bin/bin/../../lib/gcc/pic32c/8.3.1/arm/v5te/nofp\libgcc.a(_arm_addsubdf3.o)
 .debug_frame   0x00000000       0xac c:/program files/microchip/xc32/v4.20/bin/bin/../../lib/gcc/pic32c/8.3.1/arm/v5te/nofp\libgcc.a(_arm_addsubdf3.o)
 .ARM.attributes
                0x00000000       0x1d c:/program files/microchip/xc32/v4.20/bin/bin/../../lib/gcc/pic32c/8.3.1/arm/v5te/nofp\libgcc.a(_arm_addsubdf3.o)
 .text          0x00000000      0x470 c:/program files/microchip/xc32/v4.20/bin/bin/../../lib/gcc/pic32c/8.3.1/arm/v5te/nofp\libgcc.a(_arm_muldivdf3.o)
 .data          0x00000000        0x0 c:/program files/microchip/xc32/v4.20/bin/bin/../../lib/gcc/pic32c/8.3.1/arm/v5te/nofp\libgcc.a(_arm_muldivdf3.o)
 .bss           0x00000000        0x0 c:/program files/microchip/xc32/v4.20/bin/bin/../../lib/gcc/pic32c/8.3.1/arm/v5te/nofp\libgcc.a(_arm_muldivdf3.o)
 .xc_stack_usage.hdr
                0x00000000        0xe c:/program files/microchip/xc32/v4.20/bin/bin/../../lib/gcc/pic32c/8.3.1/arm/v5te/nofp\libgcc.a(_arm_muldivdf3.o)
 .xc_stack_usage
                0x00000000       0x2c c:/program files/microchip/xc32/v4.20/bin/bin/../../lib/gcc/pic32c/8.3.1/arm/v5te/nofp\libgcc.a(_arm_muldivdf3.o)
 .debug_line    0x00000000      0x1b8 c:/program files/microchip/xc32/v4.20/bin/bin/../../lib/gcc/pic32c/8.3.1/arm/v5te/nofp\libgcc.a(_arm_muldivdf3.o)
 .debug_info    0x00000000       0x26 c:/program files/microchip/xc32/v4.20/bin/bin/../../lib/gcc/pic32c/8.3.1/arm/v5te/nofp\libgcc.a(_arm_muldivdf3.o)
 .debug_abbrev  0x00000000       0x14 c:/program files/microchip/xc32/v4.20/bin/bin/../../lib/gcc/pic32c/8.3.1/arm/v5te/nofp\libgcc.a(_arm_muldivdf3.o)
 .debug_aranges
                0x00000000       0x20 c:/program files/microchip/xc32/v4.20/bin/bin/../../lib/gcc/pic32c/8.3.1/arm/v5te/nofp\libgcc.a(_arm_muldivdf3.o)
 .debug_str     0x00000000       0xe6 c:/program files/microchip/xc32/v4.20/bin/bin/../../lib/gcc/pic32c/8.3.1/arm/v5te/nofp\libgcc.a(_arm_muldivdf3.o)
 .debug_frame   0x00000000       0x50 c:/program files/microchip/xc32/v4.20/bin/bin/../../lib/gcc/pic32c/8.3.1/arm/v5te/nofp\libgcc.a(_arm_muldivdf3.o)
 .ARM.attributes
                0x00000000       0x1d c:/program files/microchip/xc32/v4.20/bin/bin/../../lib/gcc/pic32c/8.3.1/arm/v5te/nofp\libgcc.a(_arm_muldivdf3.o)
 .text          0x00000000       0xa0 c:/program files/microchip/xc32/v4.20/bin/bin/../../lib/gcc/pic32c/8.3.1/arm/v5te/nofp\libgcc.a(_arm_truncdfsf2.o)
 .data          0x00000000        0x0 c:/program files/microchip/xc32/v4.20/bin/bin/../../lib/gcc/pic32c/8.3.1/arm/v5te/nofp\libgcc.a(_arm_truncdfsf2.o)
 .bss           0x00000000        0x0 c:/program files/microchip/xc32/v4.20/bin/bin/../../lib/gcc/pic32c/8.3.1/arm/v5te/nofp\libgcc.a(_arm_truncdfsf2.o)
 .xc_stack_usage.hdr
                0x00000000        0xe c:/program files/microchip/xc32/v4.20/bin/bin/../../lib/gcc/pic32c/8.3.1/arm/v5te/nofp\libgcc.a(_arm_truncdfsf2.o)
 .xc_stack_usage
                0x00000000       0x1a c:/program files/microchip/xc32/v4.20/bin/bin/../../lib/gcc/pic32c/8.3.1/arm/v5te/nofp\libgcc.a(_arm_truncdfsf2.o)
 .debug_line    0x00000000       0xbf c:/program files/microchip/xc32/v4.20/bin/bin/../../lib/gcc/pic32c/8.3.1/arm/v5te/nofp\libgcc.a(_arm_truncdfsf2.o)
 .debug_info    0x00000000       0x26 c:/program files/microchip/xc32/v4.20/bin/bin/../../lib/gcc/pic32c/8.3.1/arm/v5te/nofp\libgcc.a(_arm_truncdfsf2.o)
 .debug_abbrev  0x00000000       0x14 c:/program files/microchip/xc32/v4.20/bin/bin/../../lib/gcc/pic32c/8.3.1/arm/v5te/nofp\libgcc.a(_arm_truncdfsf2.o)
 .debug_aranges
                0x00000000       0x20 c:/program files/microchip/xc32/v4.20/bin/bin/../../lib/gcc/pic32c/8.3.1/arm/v5te/nofp\libgcc.a(_arm_truncdfsf2.o)
 .debug_str     0x00000000       0xe6 c:/program files/microchip/xc32/v4.20/bin/bin/../../lib/gcc/pic32c/8.3.1/arm/v5te/nofp\libgcc.a(_arm_truncdfsf2.o)
 .debug_frame   0x00000000       0x24 c:/program files/microchip/xc32/v4.20/bin/bin/../../lib/gcc/pic32c/8.3.1/arm/v5te/nofp\libgcc.a(_arm_truncdfsf2.o)
 .ARM.attributes
                0x00000000       0x1d c:/program files/microchip/xc32/v4.20/bin/bin/../../lib/gcc/pic32c/8.3.1/arm/v5te/nofp\libgcc.a(_arm_truncdfsf2.o)
 .text          0x00000000        0x0 c:/program files/microchip/xc32/v4.20/bin/bin/../../lib/gcc/pic32c/8.3.1/arm/v5te/nofp/crtend.o
 .data          0x00000000        0x0 c:/program files/microchip/xc32/v4.20/bin/bin/../../lib/gcc/pic32c/8.3.1/arm/v5te/nofp/crtend.o
 .bss           0x00000000        0x0 c:/program files/microchip/xc32/v4.20/bin/bin/../../lib/gcc/pic32c/8.3.1/arm/v5te/nofp/crtend.o
 .eh_frame      0x00000000        0x4 c:/program files/microchip/xc32/v4.20/bin/bin/../../lib/gcc/pic32c/8.3.1/arm/v5te/nofp/crtend.o
 .xc_stack_usage.hdr
                0x00000000        0xe c:/program files/microchip/xc32/v4.20/bin/bin/../../lib/gcc/pic32c/8.3.1/arm/v5te/nofp/crtend.o
 .comment       0x00000000       0x2c c:/program files/microchip/xc32/v4.20/bin/bin/../../lib/gcc/pic32c/8.3.1/arm/v5te/nofp/crtend.o
 .ARM.attributes
                0x00000000       0x2b c:/program files/microchip/xc32/v4.20/bin/bin/../../lib/gcc/pic32c/8.3.1/arm/v5te/nofp/crtend.o
 .text          0x00000000        0x0 c:/program files/microchip/xc32/v4.20/bin/bin/../../lib/gcc/pic32c/8.3.1/arm/v5te/nofp/crtn.o
 .data          0x00000000        0x0 c:/program files/microchip/xc32/v4.20/bin/bin/../../lib/gcc/pic32c/8.3.1/arm/v5te/nofp/crtn.o
 .bss           0x00000000        0x0 c:/program files/microchip/xc32/v4.20/bin/bin/../../lib/gcc/pic32c/8.3.1/arm/v5te/nofp/crtn.o
 .xc_stack_usage.hdr
                0x00000000        0xe c:/program files/microchip/xc32/v4.20/bin/bin/../../lib/gcc/pic32c/8.3.1/arm/v5te/nofp/crtn.o

Memory Configuration

Name             Origin             Length             Attributes
sram             0x00300000         0x00010000         xw
ram              0x21000000         0x07000000         xwl !r
ram_nocache      0x20000000         0x01000000         !xrw
rom              0x00000000         0x00000000         xrl
*default*        0x00000000         0xffffffff

Linker script and memory map

LOAD c:/program files/microchip/xc32/v4.20/bin/bin/../../lib/gcc/pic32c/8.3.1/arm/v5te/nofp/crti.o
LOAD c:/program files/microchip/xc32/v4.20/bin/bin/../../lib/gcc/pic32c/8.3.1/arm/v5te/nofp/crtbegin.o
LOAD build/lcdc_rgba888_mxt_9x60_wvga/production/_ext/236556520/bsp.o
LOAD build/lcdc_rgba888_mxt_9x60_wvga/production/_ext/103208383/drv_i2c.o
LOAD build/lcdc_rgba888_mxt_9x60_wvga/production/_ext/1959449242/drv_maxtouch.o
LOAD build/lcdc_rgba888_mxt_9x60_wvga/production/_ext/1165331637/gfx_driver.o
LOAD build/lcdc_rgba888_mxt_9x60_wvga/production/_ext/129784465/drv_gfx_lcdc.o
LOAD build/lcdc_rgba888_mxt_9x60_wvga/production/_ext/305146849/legato_math.o
LOAD build/lcdc_rgba888_mxt_9x60_wvga/production/_ext/305146849/legato_color_blend.o
LOAD build/lcdc_rgba888_mxt_9x60_wvga/production/_ext/305146849/legato_color_convert.o
LOAD build/lcdc_rgba888_mxt_9x60_wvga/production/_ext/305146849/legato_rect.o
LOAD build/lcdc_rgba888_mxt_9x60_wvga/production/_ext/305146849/legato_color_value.o
LOAD build/lcdc_rgba888_mxt_9x60_wvga/production/_ext/305146849/legato_utils.o
LOAD build/lcdc_rgba888_mxt_9x60_wvga/production/_ext/305146849/legato_pixelbuffer.o
LOAD build/lcdc_rgba888_mxt_9x60_wvga/production/_ext/305146849/legato_color_lerp.o
LOAD build/lcdc_rgba888_mxt_9x60_wvga/production/_ext/305146849/legato_error.o
LOAD build/lcdc_rgba888_mxt_9x60_wvga/production/_ext/305146849/legato_color.o
LOAD build/lcdc_rgba888_mxt_9x60_wvga/production/_ext/1618192685/legato_state.o
LOAD build/lcdc_rgba888_mxt_9x60_wvga/production/_ext/1618192685/legato_stream.o
LOAD build/lcdc_rgba888_mxt_9x60_wvga/production/_ext/1618192685/legato_scheme.o
LOAD build/lcdc_rgba888_mxt_9x60_wvga/production/_ext/1618192685/legato_event.o
LOAD build/lcdc_rgba888_mxt_9x60_wvga/production/_ext/1618192685/legato_input.o
LOAD build/lcdc_rgba888_mxt_9x60_wvga/production/_ext/109670485/legato_rectarray.o
LOAD build/lcdc_rgba888_mxt_9x60_wvga/production/_ext/109670485/legato_array.o
LOAD build/lcdc_rgba888_mxt_9x60_wvga/production/_ext/109670485/legato_list.o
LOAD build/lcdc_rgba888_mxt_9x60_wvga/production/_ext/1618103421/legato_rasterfont_liberationmono1.o
LOAD build/lcdc_rgba888_mxt_9x60_wvga/production/_ext/1618103421/legato_rasterfont_stream.o
LOAD build/lcdc_rgba888_mxt_9x60_wvga/production/_ext/1618103421/legato_font.o
LOAD build/lcdc_rgba888_mxt_9x60_wvga/production/_ext/1618103421/legato_rasterfont_liberationmono8.o
LOAD build/lcdc_rgba888_mxt_9x60_wvga/production/_ext/644506877/le_gen_fonts.o
LOAD build/lcdc_rgba888_mxt_9x60_wvga/production/_ext/1497821479/le_gen_images.o
LOAD build/lcdc_rgba888_mxt_9x60_wvga/production/_ext/534613472/le_gen_screen_Screen0.o
LOAD build/lcdc_rgba888_mxt_9x60_wvga/production/_ext/534613472/le_gen_screen_Screen1.o
LOAD build/lcdc_rgba888_mxt_9x60_wvga/production/_ext/706129189/le_gen_init.o
LOAD build/lcdc_rgba888_mxt_9x60_wvga/production/_ext/706129189/le_gen_globalpalette.o
LOAD build/lcdc_rgba888_mxt_9x60_wvga/production/_ext/706129189/le_gen_scheme.o
LOAD build/lcdc_rgba888_mxt_9x60_wvga/production/_ext/706129189/le_gen_stringtable.o
LOAD build/lcdc_rgba888_mxt_9x60_wvga/production/_ext/706129189/le_gen_harmony.o
LOAD build/lcdc_rgba888_mxt_9x60_wvga/production/_ext/2086705360/legato_imagedecoder_jpeg.o
LOAD build/lcdc_rgba888_mxt_9x60_wvga/production/_ext/2086705360/legato_imagedecoder_jpeg_common.o
LOAD build/lcdc_rgba888_mxt_9x60_wvga/production/_ext/2086705360/jidctint.o
LOAD build/lcdc_rgba888_mxt_9x60_wvga/production/_ext/2086794059/legato_imagedecoder_mono_read_stream.o
LOAD build/lcdc_rgba888_mxt_9x60_wvga/production/_ext/2086794059/legato_imagedecoder_mono_read_internal.o
LOAD build/lcdc_rgba888_mxt_9x60_wvga/production/_ext/2086794059/legato_imagedecoder_mono.o
LOAD build/lcdc_rgba888_mxt_9x60_wvga/production/_ext/1872343871/lodepng.o
LOAD build/lcdc_rgba888_mxt_9x60_wvga/production/_ext/1872343871/legato_imagedecoder_png.o
LOAD build/lcdc_rgba888_mxt_9x60_wvga/production/_ext/1872342336/legato_imagedecoder_raw_setup.o
LOAD build/lcdc_rgba888_mxt_9x60_wvga/production/_ext/1872342336/legato_imagedecoder_raw_scale.o
LOAD build/lcdc_rgba888_mxt_9x60_wvga/production/_ext/1872342336/legato_imagedecoder_raw.o
LOAD build/lcdc_rgba888_mxt_9x60_wvga/production/_ext/1872342336/legato_imagedecoder_raw_read_internal.o
LOAD build/lcdc_rgba888_mxt_9x60_wvga/production/_ext/1872342336/legato_imagedecoder_raw_write.o
LOAD build/lcdc_rgba888_mxt_9x60_wvga/production/_ext/1872342336/legato_imagedecoder_raw_blend.o
LOAD build/lcdc_rgba888_mxt_9x60_wvga/production/_ext/1872342336/legato_imagedecoder_raw_mask.o
LOAD build/lcdc_rgba888_mxt_9x60_wvga/production/_ext/1872342336/legato_imagedecoder_raw_convert.o
LOAD build/lcdc_rgba888_mxt_9x60_wvga/production/_ext/1872342336/legato_imagedecoder_raw_rotate.o
LOAD build/lcdc_rgba888_mxt_9x60_wvga/production/_ext/1872342336/legato_imagedecoder_raw_read_stream_rleindex.o
LOAD build/lcdc_rgba888_mxt_9x60_wvga/production/_ext/1872342336/legato_imagedecoder_raw_palette_internal.o
LOAD build/lcdc_rgba888_mxt_9x60_wvga/production/_ext/1872342336/legato_imagedecoder_raw_read_stream_index.o
LOAD build/lcdc_rgba888_mxt_9x60_wvga/production/_ext/1872342336/legato_imagedecoder_raw_read_stream_color.o
LOAD build/lcdc_rgba888_mxt_9x60_wvga/production/_ext/1872342336/legato_imagedecoder_raw_read_stream_rlecolor.o
LOAD build/lcdc_rgba888_mxt_9x60_wvga/production/_ext/1872342336/legato_imagedecoder_raw_palette_stream.o
LOAD build/lcdc_rgba888_mxt_9x60_wvga/production/_ext/1381099687/legato_image_utils.o
LOAD build/lcdc_rgba888_mxt_9x60_wvga/production/_ext/1381099687/legato_image.o
LOAD build/lcdc_rgba888_mxt_9x60_wvga/production/_ext/1381099687/legato_palette.o
LOAD build/lcdc_rgba888_mxt_9x60_wvga/production/_ext/28088523/legato_fixedheap.o
LOAD build/lcdc_rgba888_mxt_9x60_wvga/production/_ext/28088523/legato_memory.o
LOAD build/lcdc_rgba888_mxt_9x60_wvga/production/_ext/28088523/legato_variableheap.o
LOAD build/lcdc_rgba888_mxt_9x60_wvga/production/_ext/1081070089/legato_draw_rect.o
LOAD build/lcdc_rgba888_mxt_9x60_wvga/production/_ext/1081070089/legato_draw_line.o
LOAD build/lcdc_rgba888_mxt_9x60_wvga/production/_ext/1081070089/legato_renderer.o
LOAD build/lcdc_rgba888_mxt_9x60_wvga/production/_ext/1081070089/legato_draw.o
LOAD build/lcdc_rgba888_mxt_9x60_wvga/production/_ext/1081070089/legato_draw_arc.o
LOAD build/lcdc_rgba888_mxt_9x60_wvga/production/_ext/1081070089/legato_gpu.o
LOAD build/lcdc_rgba888_mxt_9x60_wvga/production/_ext/157682245/legato_string_renderer.o
LOAD build/lcdc_rgba888_mxt_9x60_wvga/production/_ext/157682245/legato_stringutils.o
LOAD build/lcdc_rgba888_mxt_9x60_wvga/production/_ext/157682245/legato_dynamicstring.o
LOAD build/lcdc_rgba888_mxt_9x60_wvga/production/_ext/157682245/legato_tablestring.o
LOAD build/lcdc_rgba888_mxt_9x60_wvga/production/_ext/157682245/legato_string.o
LOAD build/lcdc_rgba888_mxt_9x60_wvga/production/_ext/157682245/legato_string_renderer_stream.o
LOAD build/lcdc_rgba888_mxt_9x60_wvga/production/_ext/157682245/legato_fixedstring.o
LOAD build/lcdc_rgba888_mxt_9x60_wvga/production/_ext/157682245/legato_stringtable.o
LOAD build/lcdc_rgba888_mxt_9x60_wvga/production/_ext/1029185477/legato_widget_arc.o
LOAD build/lcdc_rgba888_mxt_9x60_wvga/production/_ext/1029185477/legato_widget_arc_skin_classic.o
LOAD build/lcdc_rgba888_mxt_9x60_wvga/production/_ext/1946336466/legato_widget_bar_graph.o
LOAD build/lcdc_rgba888_mxt_9x60_wvga/production/_ext/1946336466/legato_widget_bar_graph_skin_classic.o
LOAD build/lcdc_rgba888_mxt_9x60_wvga/production/_ext/1339002025/legato_widget_button.o
LOAD build/lcdc_rgba888_mxt_9x60_wvga/production/_ext/1339002025/legato_widget_button_skin_classic.o
LOAD build/lcdc_rgba888_mxt_9x60_wvga/production/_ext/935657338/legato_widget_checkbox_skin_classic.o
LOAD build/lcdc_rgba888_mxt_9x60_wvga/production/_ext/935657338/legato_widget_checkbox.o
LOAD build/lcdc_rgba888_mxt_9x60_wvga/production/_ext/1356472903/legato_widget_circle_skin_classic.o
LOAD build/lcdc_rgba888_mxt_9x60_wvga/production/_ext/1356472903/legato_widget_circle.o
LOAD build/lcdc_rgba888_mxt_9x60_wvga/production/_ext/2122148963/legato_widget_circular_gauge.o
LOAD build/lcdc_rgba888_mxt_9x60_wvga/production/_ext/2122148963/legato_widget_circular_gauge_skin_classic.o
LOAD build/lcdc_rgba888_mxt_9x60_wvga/production/_ext/1715456695/legato_widget_circular_slider.o
LOAD build/lcdc_rgba888_mxt_9x60_wvga/production/_ext/1715456695/legato_widget_circular_slider_skin_classic.o
LOAD build/lcdc_rgba888_mxt_9x60_wvga/production/_ext/1444382766/legato_widget_drawsurface.o
LOAD build/lcdc_rgba888_mxt_9x60_wvga/production/_ext/1444382766/legato_widget_drawsurface_skin_classic.o
LOAD build/lcdc_rgba888_mxt_9x60_wvga/production/_ext/511583513/legato_widget_gradient_skin_classic.o
LOAD build/lcdc_rgba888_mxt_9x60_wvga/production/_ext/511583513/legato_widget_gradient.o
LOAD build/lcdc_rgba888_mxt_9x60_wvga/production/_ext/94869853/legato_widget_groupbox.o
LOAD build/lcdc_rgba888_mxt_9x60_wvga/production/_ext/94869853/legato_widget_groupbox_skin_classic.o
LOAD build/lcdc_rgba888_mxt_9x60_wvga/production/_ext/1197524732/legato_widget_image_skin_classic.o
LOAD build/lcdc_rgba888_mxt_9x60_wvga/production/_ext/1197524732/legato_widget_image.o
LOAD build/lcdc_rgba888_mxt_9x60_wvga/production/_ext/1694778207/legato_widget_imagerotate_skin_classic.o
LOAD build/lcdc_rgba888_mxt_9x60_wvga/production/_ext/1694778207/legato_widget_imagerotate.o
LOAD build/lcdc_rgba888_mxt_9x60_wvga/production/_ext/609407686/legato_widget_imagescale.o
LOAD build/lcdc_rgba888_mxt_9x60_wvga/production/_ext/609407686/legato_widget_imagescale_skin_classic.o
LOAD build/lcdc_rgba888_mxt_9x60_wvga/production/_ext/2015859515/legato_widget_imagesequence_skin_classic.o
LOAD build/lcdc_rgba888_mxt_9x60_wvga/production/_ext/2015859515/legato_widget_imagesequence.o
LOAD build/lcdc_rgba888_mxt_9x60_wvga/production/_ext/1582032715/legato_widget_keypad.o
LOAD build/lcdc_rgba888_mxt_9x60_wvga/production/_ext/1582032715/legato_widget_keypad_skin_classic.o
LOAD build/lcdc_rgba888_mxt_9x60_wvga/production/_ext/1195110755/legato_widget_label.o
LOAD build/lcdc_rgba888_mxt_9x60_wvga/production/_ext/1195110755/legato_widget_label_skin_classic.o
LOAD build/lcdc_rgba888_mxt_9x60_wvga/production/_ext/1839659221/legato_widget_line.o
LOAD build/lcdc_rgba888_mxt_9x60_wvga/production/_ext/1839659221/legato_widget_line_skin_classic.o
LOAD build/lcdc_rgba888_mxt_9x60_wvga/production/_ext/1047821571/legato_widget_line_graph.o
LOAD build/lcdc_rgba888_mxt_9x60_wvga/production/_ext/1047821571/legato_widget_line_graph_skin_classic.o
LOAD build/lcdc_rgba888_mxt_9x60_wvga/production/_ext/1839659051/legato_widget_list.o
LOAD build/lcdc_rgba888_mxt_9x60_wvga/production/_ext/1839659051/legato_widget_list_skin_classic.o
LOAD build/lcdc_rgba888_mxt_9x60_wvga/production/_ext/1634291878/legato_widget_listwheel.o
LOAD build/lcdc_rgba888_mxt_9x60_wvga/production/_ext/1634291878/legato_widget_listwheel_skin_classic.o
LOAD build/lcdc_rgba888_mxt_9x60_wvga/production/_ext/1290198647/legato_widget_pie_chart_skin_classic.o
LOAD build/lcdc_rgba888_mxt_9x60_wvga/production/_ext/1290198647/legato_widget_pie_chart.o
LOAD build/lcdc_rgba888_mxt_9x60_wvga/production/_ext/231973969/legato_widget_progressbar.o
LOAD build/lcdc_rgba888_mxt_9x60_wvga/production/_ext/231973969/legato_widget_progressbar_skin_classic.o
LOAD build/lcdc_rgba888_mxt_9x60_wvga/production/_ext/1643194869/legato_widget_radial_menu_state.o
LOAD build/lcdc_rgba888_mxt_9x60_wvga/production/_ext/1643194869/legato_widget_radial_menu.o
LOAD build/lcdc_rgba888_mxt_9x60_wvga/production/_ext/1643194869/legato_widget_radial_menu_skin_classic.o
LOAD build/lcdc_rgba888_mxt_9x60_wvga/production/_ext/1338867754/legato_radiobutton_group.o
LOAD build/lcdc_rgba888_mxt_9x60_wvga/production/_ext/1338867754/legato_widget_radiobutton.o
LOAD build/lcdc_rgba888_mxt_9x60_wvga/production/_ext/1338867754/legato_widget_radiobutton_skin_classic.o
LOAD build/lcdc_rgba888_mxt_9x60_wvga/production/_ext/337100648/legato_widget_rectangle.o
LOAD build/lcdc_rgba888_mxt_9x60_wvga/production/_ext/337100648/legato_widget_rectangle_skin_classic.o
LOAD build/lcdc_rgba888_mxt_9x60_wvga/production/_ext/1040606897/legato_widget_scrollbar.o
LOAD build/lcdc_rgba888_mxt_9x60_wvga/production/_ext/1040606897/legato_widget_scrollbar_skin_classic.o
LOAD build/lcdc_rgba888_mxt_9x60_wvga/production/_ext/1817042520/legato_widget_slider.o
LOAD build/lcdc_rgba888_mxt_9x60_wvga/production/_ext/1817042520/legato_widget_slider_skin_classic.o
LOAD build/lcdc_rgba888_mxt_9x60_wvga/production/_ext/1805132566/legato_widget_textfield.o
LOAD build/lcdc_rgba888_mxt_9x60_wvga/production/_ext/1805132566/legato_widget_textfield_skin_classic.o
LOAD build/lcdc_rgba888_mxt_9x60_wvga/production/_ext/1093664902/legato_widget_touchtest.o
LOAD build/lcdc_rgba888_mxt_9x60_wvga/production/_ext/1093664902/legato_widget_touchtest_skin_classic.o
LOAD build/lcdc_rgba888_mxt_9x60_wvga/production/_ext/1928937831/legato_widget_window_skin_classic.o
LOAD build/lcdc_rgba888_mxt_9x60_wvga/production/_ext/1928937831/legato_widget_window.o
LOAD build/lcdc_rgba888_mxt_9x60_wvga/production/_ext/261620856/legato_widget_skin_classic.o
LOAD build/lcdc_rgba888_mxt_9x60_wvga/production/_ext/261620856/legato_widget.o
LOAD build/lcdc_rgba888_mxt_9x60_wvga/production/_ext/261620856/legato_editwidget.o
LOAD build/lcdc_rgba888_mxt_9x60_wvga/production/_ext/261620856/legato_widget_skin_classic_common.o
LOAD build/lcdc_rgba888_mxt_9x60_wvga/production/_ext/4986847/plib_aic.o
LOAD build/lcdc_rgba888_mxt_9x60_wvga/production/_ext/4988870/plib_clk.o
LOAD build/lcdc_rgba888_mxt_9x60_wvga/production/_ext/813772974/plib_flexcom6_twi_master.o
LOAD build/lcdc_rgba888_mxt_9x60_wvga/production/_ext/154914322/plib_lcdc.o
LOAD build/lcdc_rgba888_mxt_9x60_wvga/production/_ext/4998521/plib_mmu.o
LOAD build/lcdc_rgba888_mxt_9x60_wvga/production/_ext/5001274/plib_pio.o
LOAD build/lcdc_rgba888_mxt_9x60_wvga/production/_ext/1247087435/plib_tc0.o
LOAD build/lcdc_rgba888_mxt_9x60_wvga/production/_ext/286729486/xc32_monitor.o
LOAD build/lcdc_rgba888_mxt_9x60_wvga/production/_ext/1408246553/sys_cache.o
LOAD build/lcdc_rgba888_mxt_9x60_wvga/production/_ext/1414187873/sys_input.o
LOAD build/lcdc_rgba888_mxt_9x60_wvga/production/_ext/1414187873/sys_input_listener.o
LOAD build/lcdc_rgba888_mxt_9x60_wvga/production/_ext/1826491803/sys_int.o
LOAD build/lcdc_rgba888_mxt_9x60_wvga/production/_ext/1812361045/sys_time.o
LOAD build/lcdc_rgba888_mxt_9x60_wvga/production/_ext/2052985144/initialization.o
LOAD build/lcdc_rgba888_mxt_9x60_wvga/production/_ext/2052985144/cstartup.o
LOAD build/lcdc_rgba888_mxt_9x60_wvga/production/_ext/2052985144/fault_handlers.o
LOAD build/lcdc_rgba888_mxt_9x60_wvga/production/_ext/2052985144/interrupts.o
LOAD build/lcdc_rgba888_mxt_9x60_wvga/production/_ext/2052985144/tasks.o
LOAD build/lcdc_rgba888_mxt_9x60_wvga/production/_ext/1360937237/app.o
LOAD build/lcdc_rgba888_mxt_9x60_wvga/production/_ext/1360937237/main.o
LOAD build/lcdc_rgba888_mxt_9x60_wvga/production/_ext/1360937237/app_screen0.o
LOAD build/lcdc_rgba888_mxt_9x60_wvga/production/_ext/5003525/plib_rtc.o
LOAD build/lcdc_rgba888_mxt_9x60_wvga/production/_ext/1360937237/app_screen1.o
LOAD build/lcdc_rgba888_mxt_9x60_wvga/production/_ext/1121151461/gfx_canvas_api.o
LOAD build/lcdc_rgba888_mxt_9x60_wvga/production/_ext/1121151461/gfx_canvas.o
                0x00000001                __MPLAB_BUILD = 0x1
                0x00001000                C_STACK_SIZE = 0x1000
                0x00000060                IRQ_STACK_SIZE = 0x60
                0x00000060                FIQ_STACK_SIZE = 0x60
                0x00001000                SVC_STACK_SIZE = 0x1000
                0x00000040                ABT_STACK_SIZE = 0x40
                0x00000040                UND_STACK_SIZE = 0x40

.text           0x23f00000   0x43d9b8
                0x23f00000                . = ALIGN (0x4)
                [!provide]                PROVIDE (_sfixed = .)
 *(.textEntry)
 .textEntry     0x23f00000      0x110 build/lcdc_rgba888_mxt_9x60_wvga/production/_ext/2052985144/cstartup.o
                0x23f00000                entry
 *(.text .text.* .gnu.linkonce.t.*)
 .text          0x23f00110       0x70 c:/program files/microchip/xc32/v4.20/bin/bin/../../lib/gcc/pic32c/8.3.1/arm/v5te/nofp/crtbegin.o
 .text.BSP_Initialize
                0x23f00180       0x20 build/lcdc_rgba888_mxt_9x60_wvga/production/_ext/236556520/bsp.o
                0x23f00180                BSP_Initialize
 .text._DRV_I2C_DriverHandleValidate
                0x23f001a0       0x6c build/lcdc_rgba888_mxt_9x60_wvga/production/_ext/103208383/drv_i2c.o
 .text._DRV_I2C_RemoveTransferObjFromList
                0x23f0020c       0x28 build/lcdc_rgba888_mxt_9x60_wvga/production/_ext/103208383/drv_i2c.o
 .text._DRV_I2C_RemoveClientTransfersFromList
                0x23f00234       0x5c build/lcdc_rgba888_mxt_9x60_wvga/production/_ext/103208383/drv_i2c.o
 .text._DRV_I2C_ClientCallback
                0x23f00290       0x80 build/lcdc_rgba888_mxt_9x60_wvga/production/_ext/103208383/drv_i2c.o
 .text._DRV_I2C_NextTransferInitiate
                0x23f00310      0x12c build/lcdc_rgba888_mxt_9x60_wvga/production/_ext/103208383/drv_i2c.o
 .text._DRV_I2C_ResourceLock
                0x23f0043c       0xdc build/lcdc_rgba888_mxt_9x60_wvga/production/_ext/103208383/drv_i2c.o
 .text._DRV_I2C_ResourceUnlock
                0x23f00518       0xbc build/lcdc_rgba888_mxt_9x60_wvga/production/_ext/103208383/drv_i2c.o
 .text._DRV_I2C_WriteReadTransferAdd
                0x23f005d4      0x360 build/lcdc_rgba888_mxt_9x60_wvga/production/_ext/103208383/drv_i2c.o
 .text._DRV_I2C_PLibCallbackHandler
                0x23f00934       0x84 build/lcdc_rgba888_mxt_9x60_wvga/production/_ext/103208383/drv_i2c.o
 .text.DRV_I2C_Initialize
                0x23f009b8       0xbc build/lcdc_rgba888_mxt_9x60_wvga/production/_ext/103208383/drv_i2c.o
                0x23f009b8                DRV_I2C_Initialize
 .text.DRV_I2C_Open
                0x23f00a74      0x1ac build/lcdc_rgba888_mxt_9x60_wvga/production/_ext/103208383/drv_i2c.o
                0x23f00a74                DRV_I2C_Open
 .text.DRV_I2C_Close
                0x23f00c20       0x98 build/lcdc_rgba888_mxt_9x60_wvga/production/_ext/103208383/drv_i2c.o
                0x23f00c20                DRV_I2C_Close
 .text.DRV_I2C_TransferEventHandlerSet
                0x23f00cb8       0x50 build/lcdc_rgba888_mxt_9x60_wvga/production/_ext/103208383/drv_i2c.o
                0x23f00cb8                DRV_I2C_TransferEventHandlerSet
 .text.DRV_I2C_ReadTransferAdd
                0x23f00d08       0x34 build/lcdc_rgba888_mxt_9x60_wvga/production/_ext/103208383/drv_i2c.o
                0x23f00d08                DRV_I2C_ReadTransferAdd
 .text.DRV_I2C_WriteTransferAdd
                0x23f00d3c       0x30 build/lcdc_rgba888_mxt_9x60_wvga/production/_ext/103208383/drv_i2c.o
                0x23f00d3c                DRV_I2C_WriteTransferAdd
 .text.DRV_MAXTOUCH_I2CEventHandler
                0x23f00d6c      0x23c build/lcdc_rgba888_mxt_9x60_wvga/production/_ext/1959449242/drv_maxtouch.o
                0x23f00d6c                DRV_MAXTOUCH_I2CEventHandler
 .text._RegWrite16
                0x23f00fa8       0x60 build/lcdc_rgba888_mxt_9x60_wvga/production/_ext/1959449242/drv_maxtouch.o
 .text.resetTimer_Callback
                0x23f01008       0x70 build/lcdc_rgba888_mxt_9x60_wvga/production/_ext/1959449242/drv_maxtouch.o
 .text._MessageObjectRead
                0x23f01078       0x94 build/lcdc_rgba888_mxt_9x60_wvga/production/_ext/1959449242/drv_maxtouch.o
 .text.mxt_proc_t100_message
                0x23f0110c       0xd4 build/lcdc_rgba888_mxt_9x60_wvga/production/_ext/1959449242/drv_maxtouch.o
 .text._mxt_DelayMS
                0x23f011e0       0x38 build/lcdc_rgba888_mxt_9x60_wvga/production/_ext/1959449242/drv_maxtouch.o
 .text.mxt_calculate_crc
                0x23f01218       0xac build/lcdc_rgba888_mxt_9x60_wvga/production/_ext/1959449242/drv_maxtouch.o
 .text.MXT_INTERRUPT_PIN_VALUE_GET
                0x23f012c4       0x14 build/lcdc_rgba888_mxt_9x60_wvga/production/_ext/1959449242/drv_maxtouch.o
                0x23f012c4                MXT_INTERRUPT_PIN_VALUE_GET
 .text.DRV_MAXTOUCH_Initialize
                0x23f012d8       0xd4 build/lcdc_rgba888_mxt_9x60_wvga/production/_ext/1959449242/drv_maxtouch.o
                0x23f012d8                DRV_MAXTOUCH_Initialize
 .text.DRV_MAXTOUCH_Open
                0x23f013ac      0x12c build/lcdc_rgba888_mxt_9x60_wvga/production/_ext/1959449242/drv_maxtouch.o
                0x23f013ac                DRV_MAXTOUCH_Open
 .text.DRV_MAXTOUCH_Tasks
                0x23f014d8      0xadc build/lcdc_rgba888_mxt_9x60_wvga/production/_ext/1959449242/drv_maxtouch.o
                0x23f014d8                DRV_MAXTOUCH_Tasks
 .text.gfxPixelBufferCreate
                0x23f01fb4       0xd8 build/lcdc_rgba888_mxt_9x60_wvga/production/_ext/1165331637/gfx_driver.o
                0x23f01fb4                gfxPixelBufferCreate
 .text.gfxPixelBufferOffsetGet
                0x23f0208c       0x4c build/lcdc_rgba888_mxt_9x60_wvga/production/_ext/1165331637/gfx_driver.o
                0x23f0208c                gfxPixelBufferOffsetGet
 .text.gfxPixelBuffer_IsLocked
                0x23f020d8       0x14 build/lcdc_rgba888_mxt_9x60_wvga/production/_ext/1165331637/gfx_driver.o
                0x23f020d8                gfxPixelBuffer_IsLocked
 .text.getLCDCStrideFromColorMode
                0x23f020ec       0x30 build/lcdc_rgba888_mxt_9x60_wvga/production/_ext/129784465/drv_gfx_lcdc.o
 .text._IntHandlerLayerReadComplete
                0x23f0211c       0xb4 build/lcdc_rgba888_mxt_9x60_wvga/production/_ext/129784465/drv_gfx_lcdc.o
                0x23f0211c                _IntHandlerLayerReadComplete
 .text.DRV_LCDC_Update
                0x23f021d0       0x50 build/lcdc_rgba888_mxt_9x60_wvga/production/_ext/129784465/drv_gfx_lcdc.o
                0x23f021d0                DRV_LCDC_Update
 .text.LCDC_BrightnessSet
                0x23f02220       0x24 build/lcdc_rgba888_mxt_9x60_wvga/production/_ext/129784465/drv_gfx_lcdc.o
                0x23f02220                LCDC_BrightnessSet
 .text.DRV_LCDC_Initialize
                0x23f02244      0x370 build/lcdc_rgba888_mxt_9x60_wvga/production/_ext/129784465/drv_gfx_lcdc.o
                0x23f02244                DRV_LCDC_Initialize
 .text.DRV_LCDC_BlitBuffer
                0x23f025b4       0xf0 build/lcdc_rgba888_mxt_9x60_wvga/production/_ext/129784465/drv_gfx_lcdc.o
                0x23f025b4                DRV_LCDC_BlitBuffer
 .text.DRV_LCDC_IOCTL
                0x23f026a4      0x70c build/lcdc_rgba888_mxt_9x60_wvga/production/_ext/129784465/drv_gfx_lcdc.o
                0x23f026a4                DRV_LCDC_IOCTL
 .text.leQueryArcQuadrants
                0x23f02db0      0x124 build/lcdc_rgba888_mxt_9x60_wvga/production/_ext/305146849/legato_math.o
 .text.leNormalizeAngle
                0x23f02ed4       0x30 build/lcdc_rgba888_mxt_9x60_wvga/production/_ext/305146849/legato_math.o
                0x23f02ed4                leNormalizeAngle
 .text.leSin    0x23f02f04       0x80 build/lcdc_rgba888_mxt_9x60_wvga/production/_ext/305146849/legato_math.o
                0x23f02f04                leSin
 .text.leCos    0x23f02f84       0x78 build/lcdc_rgba888_mxt_9x60_wvga/production/_ext/305146849/legato_math.o
                0x23f02f84                leCos
 .text.lePolarToXY
                0x23f02ffc       0x60 build/lcdc_rgba888_mxt_9x60_wvga/production/_ext/305146849/legato_math.o
                0x23f02ffc                lePolarToXY
 .text.leMini   0x23f0305c        0xc build/lcdc_rgba888_mxt_9x60_wvga/production/_ext/305146849/legato_math.o
                0x23f0305c                leMini
 .text.leMaxi   0x23f03068        0xc build/lcdc_rgba888_mxt_9x60_wvga/production/_ext/305146849/legato_math.o
                0x23f03068                leMaxi
 .text.leClampi
                0x23f03074       0x18 build/lcdc_rgba888_mxt_9x60_wvga/production/_ext/305146849/legato_math.o
                0x23f03074                leClampi
 .text.lePercent
                0x23f0308c       0x1c build/lcdc_rgba888_mxt_9x60_wvga/production/_ext/305146849/legato_math.o
                0x23f0308c                lePercent
 .text.lePercentWholeRounded
                0x23f030a8       0x3c build/lcdc_rgba888_mxt_9x60_wvga/production/_ext/305146849/legato_math.o
                0x23f030a8                lePercentWholeRounded
 .text.lePercentOf
                0x23f030e4       0x58 build/lcdc_rgba888_mxt_9x60_wvga/production/_ext/305146849/legato_math.o
                0x23f030e4                lePercentOf
 .text.leScaleInteger
                0x23f0313c       0x44 build/lcdc_rgba888_mxt_9x60_wvga/production/_ext/305146849/legato_math.o
                0x23f0313c                leScaleInteger
 .text.leLerp   0x23f03180       0x58 build/lcdc_rgba888_mxt_9x60_wvga/production/_ext/305146849/legato_math.o
                0x23f03180                leLerp
 .text.lePointOnLineSide
                0x23f031d8       0x60 build/lcdc_rgba888_mxt_9x60_wvga/production/_ext/305146849/legato_math.o
                0x23f031d8                lePointOnLineSide
 .text.leRotatePoint
                0x23f03238       0xbc build/lcdc_rgba888_mxt_9x60_wvga/production/_ext/305146849/legato_math.o
                0x23f03238                leRotatePoint
 .text.leRotatedRectBounds
                0x23f032f4      0x14c build/lcdc_rgba888_mxt_9x60_wvga/production/_ext/305146849/legato_math.o
                0x23f032f4                leRotatedRectBounds
 .text.leSqrt   0x23f03440       0x58 build/lcdc_rgba888_mxt_9x60_wvga/production/_ext/305146849/legato_math.o
                0x23f03440                leSqrt
 .text.lePointOnCircle
                0x23f03498       0x30 build/lcdc_rgba888_mxt_9x60_wvga/production/_ext/305146849/legato_math.o
                0x23f03498                lePointOnCircle
 .text.leResolveAngles
                0x23f034c8      0x2a8 build/lcdc_rgba888_mxt_9x60_wvga/production/_ext/305146849/legato_math.o
                0x23f034c8                leResolveAngles
 .text.leRound  0x23f03770       0xa0 build/lcdc_rgba888_mxt_9x60_wvga/production/_ext/305146849/legato_math.o
                0x23f03770                leRound
 .text.leColorBlend_RGBA_8888
                0x23f03810      0x168 build/lcdc_rgba888_mxt_9x60_wvga/production/_ext/305146849/legato_color_blend.o
                0x23f03810                leColorBlend_RGBA_8888
 .text.leColorBlend_ARGB_8888
                0x23f03978      0x14c build/lcdc_rgba888_mxt_9x60_wvga/production/_ext/305146849/legato_color_blend.o
                0x23f03978                leColorBlend_ARGB_8888
 .text.no_conv  0x23f03ac4        0x4 build/lcdc_rgba888_mxt_9x60_wvga/production/_ext/305146849/legato_color_convert.o
 .text.gs8_rgb332
                0x23f03ac8       0x10 build/lcdc_rgba888_mxt_9x60_wvga/production/_ext/305146849/legato_color_convert.o
 .text.gs8_rgb565
                0x23f03ad8       0x20 build/lcdc_rgba888_mxt_9x60_wvga/production/_ext/305146849/legato_color_convert.o
 .text.gs8_rgba5551
                0x23f03af8       0x28 build/lcdc_rgba888_mxt_9x60_wvga/production/_ext/305146849/legato_color_convert.o
 .text.gs8_rgb888
                0x23f03b20       0x10 build/lcdc_rgba888_mxt_9x60_wvga/production/_ext/305146849/legato_color_convert.o
 .text.gs8_rgba8888
                0x23f03b30       0x14 build/lcdc_rgba888_mxt_9x60_wvga/production/_ext/305146849/legato_color_convert.o
 .text.gs8_argb8888
                0x23f03b44       0x14 build/lcdc_rgba888_mxt_9x60_wvga/production/_ext/305146849/legato_color_convert.o
 .text.gs8_mono
                0x23f03b58       0x10 build/lcdc_rgba888_mxt_9x60_wvga/production/_ext/305146849/legato_color_convert.o
 .text.rgb332_rgb565
                0x23f03b68       0x2c build/lcdc_rgba888_mxt_9x60_wvga/production/_ext/305146849/legato_color_convert.o
 .text.rgb332_rgba5551
                0x23f03b94       0x2c build/lcdc_rgba888_mxt_9x60_wvga/production/_ext/305146849/legato_color_convert.o
 .text.rgb332_rgb888
                0x23f03bc0       0x30 build/lcdc_rgba888_mxt_9x60_wvga/production/_ext/305146849/legato_color_convert.o
 .text.rgb332_rgba8888
                0x23f03bf0       0x2c build/lcdc_rgba888_mxt_9x60_wvga/production/_ext/305146849/legato_color_convert.o
 .text.rgb332_argb8888
                0x23f03c1c       0x30 build/lcdc_rgba888_mxt_9x60_wvga/production/_ext/305146849/legato_color_convert.o
 .text.rgb565_rgb332
                0x23f03c4c       0x20 build/lcdc_rgba888_mxt_9x60_wvga/production/_ext/305146849/legato_color_convert.o
 .text.rgb565_rgba5551
                0x23f03c6c       0x20 build/lcdc_rgba888_mxt_9x60_wvga/production/_ext/305146849/legato_color_convert.o
 .text.rgb565_rgb888
                0x23f03c8c       0x24 build/lcdc_rgba888_mxt_9x60_wvga/production/_ext/305146849/legato_color_convert.o
 .text.rgb565_rgba8888
                0x23f03cb0       0x24 build/lcdc_rgba888_mxt_9x60_wvga/production/_ext/305146849/legato_color_convert.o
 .text.rgb565_argb8888
                0x23f03cd4       0x28 build/lcdc_rgba888_mxt_9x60_wvga/production/_ext/305146849/legato_color_convert.o
 .text.rgba5551_gs8
                0x23f03cfc        0x4 build/lcdc_rgba888_mxt_9x60_wvga/production/_ext/305146849/legato_color_convert.o
 .text.rgba5551_rgb332
                0x23f03d00       0x20 build/lcdc_rgba888_mxt_9x60_wvga/production/_ext/305146849/legato_color_convert.o
 .text.rgba5551_rgb565
                0x23f03d20       0x1c build/lcdc_rgba888_mxt_9x60_wvga/production/_ext/305146849/legato_color_convert.o
 .text.rgba5551_rgb888
                0x23f03d3c       0x30 build/lcdc_rgba888_mxt_9x60_wvga/production/_ext/305146849/legato_color_convert.o
 .text.rgba5551_rgba8888
                0x23f03d6c       0x40 build/lcdc_rgba888_mxt_9x60_wvga/production/_ext/305146849/legato_color_convert.o
 .text.rgba5551_argb8888
                0x23f03dac       0x40 build/lcdc_rgba888_mxt_9x60_wvga/production/_ext/305146849/legato_color_convert.o
 .text.rgb888_gs8
                0x23f03dec        0x4 build/lcdc_rgba888_mxt_9x60_wvga/production/_ext/305146849/legato_color_convert.o
 .text.rgb888_rgb332
                0x23f03df0       0x24 build/lcdc_rgba888_mxt_9x60_wvga/production/_ext/305146849/legato_color_convert.o
 .text.rgb888_rgb565
                0x23f03e14       0x20 build/lcdc_rgba888_mxt_9x60_wvga/production/_ext/305146849/legato_color_convert.o
 .text.rgb888_rgba5551
                0x23f03e34       0x28 build/lcdc_rgba888_mxt_9x60_wvga/production/_ext/305146849/legato_color_convert.o
 .text.rgb888_rgba8888
                0x23f03e5c        0xc build/lcdc_rgba888_mxt_9x60_wvga/production/_ext/305146849/legato_color_convert.o
 .text.rgb888_argb8888
                0x23f03e68        0x8 build/lcdc_rgba888_mxt_9x60_wvga/production/_ext/305146849/legato_color_convert.o
 .text.rgba8888_gs8
                0x23f03e70        0x4 build/lcdc_rgba888_mxt_9x60_wvga/production/_ext/305146849/legato_color_convert.o
 .text.rgba8888_rgb332
                0x23f03e74       0x20 build/lcdc_rgba888_mxt_9x60_wvga/production/_ext/305146849/legato_color_convert.o
 .text.rgba8888_rgb565
                0x23f03e94       0x20 build/lcdc_rgba888_mxt_9x60_wvga/production/_ext/305146849/legato_color_convert.o
 .text.rgba8888_rgba5551
                0x23f03eb4       0x34 build/lcdc_rgba888_mxt_9x60_wvga/production/_ext/305146849/legato_color_convert.o
 .text.rgba8888_rgb888
                0x23f03ee8        0x8 build/lcdc_rgba888_mxt_9x60_wvga/production/_ext/305146849/legato_color_convert.o
 .text.rgba8888_argb8888
                0x23f03ef0        0x8 build/lcdc_rgba888_mxt_9x60_wvga/production/_ext/305146849/legato_color_convert.o
 .text.argb8888_rgba5551
                0x23f03ef8       0x34 build/lcdc_rgba888_mxt_9x60_wvga/production/_ext/305146849/legato_color_convert.o
 .text.argb8888_rgb888
                0x23f03f2c        0x8 build/lcdc_rgba888_mxt_9x60_wvga/production/_ext/305146849/legato_color_convert.o
 .text.argb8888_rgba8888
                0x23f03f34        0x8 build/lcdc_rgba888_mxt_9x60_wvga/production/_ext/305146849/legato_color_convert.o
 .text.rgb565_gs8
                0x23f03f3c       0x54 build/lcdc_rgba888_mxt_9x60_wvga/production/_ext/305146849/legato_color_convert.o
 .text.rgb332_gs8
                0x23f03f90       0x54 build/lcdc_rgba888_mxt_9x60_wvga/production/_ext/305146849/legato_color_convert.o
 .text.leColorConvert
                0x23f03fe4       0x28 build/lcdc_rgba888_mxt_9x60_wvga/production/_ext/305146849/legato_color_convert.o
                0x23f03fe4                leColorConvert
 .text.leRectContainsPoint
                0x23f0400c       0x60 build/lcdc_rgba888_mxt_9x60_wvga/production/_ext/305146849/legato_rect.o
                0x23f0400c                leRectContainsPoint
 .text.leRectContainsRect
                0x23f0406c       0x70 build/lcdc_rgba888_mxt_9x60_wvga/production/_ext/305146849/legato_rect.o
                0x23f0406c                leRectContainsRect
 .text.leRectIntersects
                0x23f040dc       0x70 build/lcdc_rgba888_mxt_9x60_wvga/production/_ext/305146849/legato_rect.o
                0x23f040dc                leRectIntersects
 .text.leRectCombine
                0x23f0414c       0x88 build/lcdc_rgba888_mxt_9x60_wvga/production/_ext/305146849/legato_rect.o
                0x23f0414c                leRectCombine
 .text.leRectClipAdj
                0x23f041d4      0x180 build/lcdc_rgba888_mxt_9x60_wvga/production/_ext/305146849/legato_rect.o
                0x23f041d4                leRectClipAdj
 .text.leRectClip
                0x23f04354       0xa0 build/lcdc_rgba888_mxt_9x60_wvga/production/_ext/305146849/legato_rect.o
                0x23f04354                leRectClip
 .text.leRectCompare
                0x23f043f4       0x60 build/lcdc_rgba888_mxt_9x60_wvga/production/_ext/305146849/legato_rect.o
                0x23f043f4                leRectCompare
 .text.leRectsAreSimilar
                0x23f04454       0xcc build/lcdc_rgba888_mxt_9x60_wvga/production/_ext/305146849/legato_rect.o
                0x23f04454                leRectsAreSimilar
 .text.leUtils_PickFromWidget
                0x23f04520       0xe4 build/lcdc_rgba888_mxt_9x60_wvga/production/_ext/305146849/legato_utils.o
                0x23f04520                leUtils_PickFromWidget
 .text.leUtils_ClipRectToParent
                0x23f04604       0x84 build/lcdc_rgba888_mxt_9x60_wvga/production/_ext/305146849/legato_utils.o
                0x23f04604                leUtils_ClipRectToParent
 .text.leUtils_RectToScreenSpace
                0x23f04688       0x44 build/lcdc_rgba888_mxt_9x60_wvga/production/_ext/305146849/legato_utils.o
                0x23f04688                leUtils_RectToScreenSpace
 .text.leUtils_ClipRectToAncestors
                0x23f046cc       0x94 build/lcdc_rgba888_mxt_9x60_wvga/production/_ext/305146849/legato_utils.o
                0x23f046cc                leUtils_ClipRectToAncestors
 .text.leUtils_ArrangeRectangle
                0x23f04760      0x280 build/lcdc_rgba888_mxt_9x60_wvga/production/_ext/305146849/legato_utils.o
                0x23f04760                leUtils_ArrangeRectangle
 .text.leUtils_ArrangeRectangleRelative
                0x23f049e0      0x2b0 build/lcdc_rgba888_mxt_9x60_wvga/production/_ext/305146849/legato_utils.o
                0x23f049e0                leUtils_ArrangeRectangleRelative
 .text.leUtils_GetSchemeLookupTable
                0x23f04c90       0x64 build/lcdc_rgba888_mxt_9x60_wvga/production/_ext/305146849/legato_utils.o
                0x23f04c90                leUtils_GetSchemeLookupTable
 .text.indexGet1bpp
                0x23f04cf4       0x20 build/lcdc_rgba888_mxt_9x60_wvga/production/_ext/305146849/legato_pixelbuffer.o
 .text.indexGet4bpp
                0x23f04d14       0x18 build/lcdc_rgba888_mxt_9x60_wvga/production/_ext/305146849/legato_pixelbuffer.o
 .text.indexGet
                0x23f04d2c       0x64 build/lcdc_rgba888_mxt_9x60_wvga/production/_ext/305146849/legato_pixelbuffer.o
 .text.get1byte
                0x23f04d90        0x8 build/lcdc_rgba888_mxt_9x60_wvga/production/_ext/305146849/legato_pixelbuffer.o
 .text.get2byte
                0x23f04d98        0x8 build/lcdc_rgba888_mxt_9x60_wvga/production/_ext/305146849/legato_pixelbuffer.o
 .text.get3byte
                0x23f04da0       0x1c build/lcdc_rgba888_mxt_9x60_wvga/production/_ext/305146849/legato_pixelbuffer.o
 .text.get4byte
                0x23f04dbc        0x8 build/lcdc_rgba888_mxt_9x60_wvga/production/_ext/305146849/legato_pixelbuffer.o
 .text.set1byte
                0x23f04dc4        0xc build/lcdc_rgba888_mxt_9x60_wvga/production/_ext/305146849/legato_pixelbuffer.o
 .text.set2byte
                0x23f04dd0        0xc build/lcdc_rgba888_mxt_9x60_wvga/production/_ext/305146849/legato_pixelbuffer.o
 .text.set3byte
                0x23f04ddc       0x1c build/lcdc_rgba888_mxt_9x60_wvga/production/_ext/305146849/legato_pixelbuffer.o
 .text.set4byte
                0x23f04df8        0xc build/lcdc_rgba888_mxt_9x60_wvga/production/_ext/305146849/legato_pixelbuffer.o
 .text.lePixelBufferCreate
                0x23f04e04       0xd0 build/lcdc_rgba888_mxt_9x60_wvga/production/_ext/305146849/legato_pixelbuffer.o
                0x23f04e04                lePixelBufferCreate
 .text.lePixelBufferOffsetGet
                0x23f04ed4       0x5c build/lcdc_rgba888_mxt_9x60_wvga/production/_ext/305146849/legato_pixelbuffer.o
                0x23f04ed4                lePixelBufferOffsetGet
 .text.lePixelBufferOffsetGet_Unsafe
                0x23f04f30       0x44 build/lcdc_rgba888_mxt_9x60_wvga/production/_ext/305146849/legato_pixelbuffer.o
                0x23f04f30                lePixelBufferOffsetGet_Unsafe
 .text.lePixelBufferGet_Unsafe
                0x23f04f74       0x64 build/lcdc_rgba888_mxt_9x60_wvga/production/_ext/305146849/legato_pixelbuffer.o
                0x23f04f74                lePixelBufferGet_Unsafe
 .text.lePixelBufferGet
                0x23f04fd8       0x34 build/lcdc_rgba888_mxt_9x60_wvga/production/_ext/305146849/legato_pixelbuffer.o
                0x23f04fd8                lePixelBufferGet
 .text.lePixelBufferClipRect
                0x23f0500c       0x84 build/lcdc_rgba888_mxt_9x60_wvga/production/_ext/305146849/legato_pixelbuffer.o
                0x23f0500c                lePixelBufferClipRect
 .text.lePixelBufferGetIndex_Unsafe
                0x23f05090       0x2c build/lcdc_rgba888_mxt_9x60_wvga/production/_ext/305146849/legato_pixelbuffer.o
                0x23f05090                lePixelBufferGetIndex_Unsafe
 .text.lePixelBufferSet_Unsafe
                0x23f050bc       0x7c build/lcdc_rgba888_mxt_9x60_wvga/production/_ext/305146849/legato_pixelbuffer.o
                0x23f050bc                lePixelBufferSet_Unsafe
 .text.lePixelBufferSet
                0x23f05138       0x28 build/lcdc_rgba888_mxt_9x60_wvga/production/_ext/305146849/legato_pixelbuffer.o
                0x23f05138                lePixelBufferSet
 .text.lePixelBufferAreaFill_Unsafe
                0x23f05160      0x110 build/lcdc_rgba888_mxt_9x60_wvga/production/_ext/305146849/legato_pixelbuffer.o
                0x23f05160                lePixelBufferAreaFill_Unsafe
 .text.lePixelBufferAreaFill
                0x23f05270       0x70 build/lcdc_rgba888_mxt_9x60_wvga/production/_ext/305146849/legato_pixelbuffer.o
                0x23f05270                lePixelBufferAreaFill
 .text.lePixelBufferCopy
                0x23f052e0       0xd8 build/lcdc_rgba888_mxt_9x60_wvga/production/_ext/305146849/legato_pixelbuffer.o
                0x23f052e0                lePixelBufferCopy
 .text.lerp_argb8888
                0x23f053b8       0x78 build/lcdc_rgba888_mxt_9x60_wvga/production/_ext/305146849/legato_color_lerp.o
 .text.lerp_rgba8888
                0x23f05430       0x78 build/lcdc_rgba888_mxt_9x60_wvga/production/_ext/305146849/legato_color_lerp.o
 .text.lerp_rgb888
                0x23f054a8       0x60 build/lcdc_rgba888_mxt_9x60_wvga/production/_ext/305146849/legato_color_lerp.o
 .text.lerp_rgba5551
                0x23f05508       0x74 build/lcdc_rgba888_mxt_9x60_wvga/production/_ext/305146849/legato_color_lerp.o
 .text.lerp_rgb565
                0x23f0557c       0x60 build/lcdc_rgba888_mxt_9x60_wvga/production/_ext/305146849/legato_color_lerp.o
 .text.lerp_rgb332
                0x23f055dc       0x60 build/lcdc_rgba888_mxt_9x60_wvga/production/_ext/305146849/legato_color_lerp.o
 .text.lerp_gs8
                0x23f0563c        0xc build/lcdc_rgba888_mxt_9x60_wvga/production/_ext/305146849/legato_color_lerp.o
 .text.leColorLerp
                0x23f05648       0x40 build/lcdc_rgba888_mxt_9x60_wvga/production/_ext/305146849/legato_color_lerp.o
                0x23f05648                leColorLerp
 .text.leColorBilerp
                0x23f05688       0x5c build/lcdc_rgba888_mxt_9x60_wvga/production/_ext/305146849/legato_color_lerp.o
                0x23f05688                leColorBilerp
 .text.leColorChannelAlpha
                0x23f056e4       0x30 build/lcdc_rgba888_mxt_9x60_wvga/production/_ext/305146849/legato_color.o
                0x23f056e4                leColorChannelAlpha
 .text.leColorSwap
                0x23f05714       0xa8 build/lcdc_rgba888_mxt_9x60_wvga/production/_ext/305146849/legato_color.o
                0x23f05714                leColorSwap
 .text.updateWidget
                0x23f057bc       0x4c build/lcdc_rgba888_mxt_9x60_wvga/production/_ext/1618192685/legato_state.o
 .text.leGetState
                0x23f05808        0xc build/lcdc_rgba888_mxt_9x60_wvga/production/_ext/1618192685/legato_state.o
                0x23f05808                leGetState
 .text.leAddLayer
                0x23f05814       0xb8 build/lcdc_rgba888_mxt_9x60_wvga/production/_ext/1618192685/legato_state.o
                0x23f05814                leAddLayer
 .text.leInitialize
                0x23f058cc       0xa4 build/lcdc_rgba888_mxt_9x60_wvga/production/_ext/1618192685/legato_state.o
                0x23f058cc                leInitialize
 .text.leGetLayerState
                0x23f05970       0x50 build/lcdc_rgba888_mxt_9x60_wvga/production/_ext/1618192685/legato_state.o
                0x23f05970                leGetLayerState
 .text.leGetLayerColorMode
                0x23f059c0       0x54 build/lcdc_rgba888_mxt_9x60_wvga/production/_ext/1618192685/legato_state.o
                0x23f059c0                leGetLayerColorMode
 .text.leGetLayerRenderHorizontal
                0x23f05a14       0x54 build/lcdc_rgba888_mxt_9x60_wvga/production/_ext/1618192685/legato_state.o
                0x23f05a14                leGetLayerRenderHorizontal
 .text.leGetFocusWidget
                0x23f05a68       0x10 build/lcdc_rgba888_mxt_9x60_wvga/production/_ext/1618192685/legato_state.o
                0x23f05a68                leGetFocusWidget
 .text.leSetFocusWidget
                0x23f05a78       0x84 build/lcdc_rgba888_mxt_9x60_wvga/production/_ext/1618192685/legato_state.o
                0x23f05a78                leSetFocusWidget
 .text.leGetEditWidget
                0x23f05afc       0x10 build/lcdc_rgba888_mxt_9x60_wvga/production/_ext/1618192685/legato_state.o
                0x23f05afc                leGetEditWidget
 .text.leSetEditWidget
                0x23f05b0c       0x84 build/lcdc_rgba888_mxt_9x60_wvga/production/_ext/1618192685/legato_state.o
                0x23f05b0c                leSetEditWidget
 .text.leRedrawAll
                0x23f05b90       0x50 build/lcdc_rgba888_mxt_9x60_wvga/production/_ext/1618192685/legato_state.o
                0x23f05b90                leRedrawAll
 .text.leSetLayerColorMode
                0x23f05be0       0x74 build/lcdc_rgba888_mxt_9x60_wvga/production/_ext/1618192685/legato_state.o
                0x23f05be0                leSetLayerColorMode
 .text.leSetStringTable
                0x23f05c54       0x18 build/lcdc_rgba888_mxt_9x60_wvga/production/_ext/1618192685/legato_state.o
                0x23f05c54                leSetStringTable
 .text.leIsDrawing
                0x23f05c6c       0x14 build/lcdc_rgba888_mxt_9x60_wvga/production/_ext/1618192685/legato_state.o
                0x23f05c6c                leIsDrawing
 .text.leUpdate
                0x23f05c80      0x114 build/lcdc_rgba888_mxt_9x60_wvga/production/_ext/1618192685/legato_state.o
                0x23f05c80                leUpdate
 .text.leAddRootWidget
                0x23f05d94       0x68 build/lcdc_rgba888_mxt_9x60_wvga/production/_ext/1618192685/legato_state.o
                0x23f05d94                leAddRootWidget
 .text.leRemoveRootWidget
                0x23f05dfc       0x74 build/lcdc_rgba888_mxt_9x60_wvga/production/_ext/1618192685/legato_state.o
                0x23f05dfc                leRemoveRootWidget
 .text.leGetWidgetLayer
                0x23f05e70       0x8c build/lcdc_rgba888_mxt_9x60_wvga/production/_ext/1618192685/legato_state.o
                0x23f05e70                leGetWidgetLayer
 .text.leWidgetIsInScene
                0x23f05efc       0x14 build/lcdc_rgba888_mxt_9x60_wvga/production/_ext/1618192685/legato_state.o
                0x23f05efc                leWidgetIsInScene
 .text.leScheme_GetRenderColor
                0x23f05f10       0x38 build/lcdc_rgba888_mxt_9x60_wvga/production/_ext/1618192685/legato_scheme.o
                0x23f05f10                leScheme_GetRenderColor
 .text._leGetEventState
                0x23f05f48        0xc build/lcdc_rgba888_mxt_9x60_wvga/production/_ext/1618192685/legato_event.o
                0x23f05f48                _leGetEventState
 .text.leEvent_Init
                0x23f05f54       0x20 build/lcdc_rgba888_mxt_9x60_wvga/production/_ext/1618192685/legato_event.o
                0x23f05f54                leEvent_Init
 .text.leEvent_AddEvent
                0x23f05f74       0x28 build/lcdc_rgba888_mxt_9x60_wvga/production/_ext/1618192685/legato_event.o
                0x23f05f74                leEvent_AddEvent
 .text.leEvent_ProcessEvents
                0x23f05f9c       0xb4 build/lcdc_rgba888_mxt_9x60_wvga/production/_ext/1618192685/legato_event.o
                0x23f05f9c                leEvent_ProcessEvents
 .text.leWidgetEvent_Accept
                0x23f06050       0x14 build/lcdc_rgba888_mxt_9x60_wvga/production/_ext/1618192685/legato_event.o
                0x23f06050                leWidgetEvent_Accept
 .text.leInput_Init
                0x23f06064       0x2c build/lcdc_rgba888_mxt_9x60_wvga/production/_ext/1618192685/legato_input.o
                0x23f06064                leInput_Init
 .text.leInput_InjectTouchDown
                0x23f06090       0xd8 build/lcdc_rgba888_mxt_9x60_wvga/production/_ext/1618192685/legato_input.o
                0x23f06090                leInput_InjectTouchDown
 .text.leInput_InjectTouchUp
                0x23f06168       0xb4 build/lcdc_rgba888_mxt_9x60_wvga/production/_ext/1618192685/legato_input.o
                0x23f06168                leInput_InjectTouchUp
 .text.leInput_InjectTouchMoved
                0x23f0621c      0x12c build/lcdc_rgba888_mxt_9x60_wvga/production/_ext/1618192685/legato_input.o
                0x23f0621c                leInput_InjectTouchMoved
 .text.handleTouchDown
                0x23f06348      0x118 build/lcdc_rgba888_mxt_9x60_wvga/production/_ext/1618192685/legato_input.o
                0x23f06348                handleTouchDown
 .text.handleTouchUp
                0x23f06460       0x70 build/lcdc_rgba888_mxt_9x60_wvga/production/_ext/1618192685/legato_input.o
                0x23f06460                handleTouchUp
 .text.handleTouchMoved
                0x23f064d0       0x70 build/lcdc_rgba888_mxt_9x60_wvga/production/_ext/1618192685/legato_input.o
                0x23f064d0                handleTouchMoved
 .text._leInput_HandleInputEvent
                0x23f06540       0x40 build/lcdc_rgba888_mxt_9x60_wvga/production/_ext/1618192685/legato_input.o
                0x23f06540                _leInput_HandleInputEvent
 .text._shuffleLeft
                0x23f06580       0xac build/lcdc_rgba888_mxt_9x60_wvga/production/_ext/109670485/legato_rectarray.o
 .text.leRectArray_Create
                0x23f0662c       0x1c build/lcdc_rgba888_mxt_9x60_wvga/production/_ext/109670485/legato_rectarray.o
                0x23f0662c                leRectArray_Create
 .text.leRectArray_Resize
                0x23f06648       0x7c build/lcdc_rgba888_mxt_9x60_wvga/production/_ext/109670485/legato_rectarray.o
                0x23f06648                leRectArray_Resize
 .text.leRectArray_PushBack
                0x23f066c4       0x70 build/lcdc_rgba888_mxt_9x60_wvga/production/_ext/109670485/legato_rectarray.o
                0x23f066c4                leRectArray_PushBack
 .text.leRectArray_RemoveAt
                0x23f06734       0x38 build/lcdc_rgba888_mxt_9x60_wvga/production/_ext/109670485/legato_rectarray.o
                0x23f06734                leRectArray_RemoveAt
 .text.leRectArray_Copy
                0x23f0676c       0x74 build/lcdc_rgba888_mxt_9x60_wvga/production/_ext/109670485/legato_rectarray.o
                0x23f0676c                leRectArray_Copy
 .text.leRectArray_Clear
                0x23f067e0       0x14 build/lcdc_rgba888_mxt_9x60_wvga/production/_ext/109670485/legato_rectarray.o
                0x23f067e0                leRectArray_Clear
 .text.leRectArray_Destroy
                0x23f067f4       0x3c build/lcdc_rgba888_mxt_9x60_wvga/production/_ext/109670485/legato_rectarray.o
                0x23f067f4                leRectArray_Destroy
 .text.leRectArray_RemoveDuplicates
                0x23f06830       0x90 build/lcdc_rgba888_mxt_9x60_wvga/production/_ext/109670485/legato_rectarray.o
                0x23f06830                leRectArray_RemoveDuplicates
 .text.leRectArray_SortBySize
                0x23f068c0       0xdc build/lcdc_rgba888_mxt_9x60_wvga/production/_ext/109670485/legato_rectarray.o
                0x23f068c0                leRectArray_SortBySize
 .text.leRectArray_SortByX
                0x23f0699c       0xfc build/lcdc_rgba888_mxt_9x60_wvga/production/_ext/109670485/legato_rectarray.o
                0x23f0699c                leRectArray_SortByX
 .text.leRectArray_SortByY
                0x23f06a98       0xf4 build/lcdc_rgba888_mxt_9x60_wvga/production/_ext/109670485/legato_rectarray.o
                0x23f06a98                leRectArray_SortByY
 .text.leRectArray_MergeSimilar
                0x23f06b8c       0x98 build/lcdc_rgba888_mxt_9x60_wvga/production/_ext/109670485/legato_rectarray.o
                0x23f06b8c                leRectArray_MergeSimilar
 .text.leRectArray_RemoveOverlapping
                0x23f06c24       0x84 build/lcdc_rgba888_mxt_9x60_wvga/production/_ext/109670485/legato_rectarray.o
                0x23f06c24                leRectArray_RemoveOverlapping
 .text.leRectArray_PadRectangleWidth
                0x23f06ca8      0x120 build/lcdc_rgba888_mxt_9x60_wvga/production/_ext/109670485/legato_rectarray.o
                0x23f06ca8                leRectArray_PadRectangleWidth
 .text.leRectArray_CropToSizeY
                0x23f06dc8      0x134 build/lcdc_rgba888_mxt_9x60_wvga/production/_ext/109670485/legato_rectarray.o
                0x23f06dc8                leRectArray_CropToSizeY
 .text.leRectArray_CropToSizeX
                0x23f06efc      0x134 build/lcdc_rgba888_mxt_9x60_wvga/production/_ext/109670485/legato_rectarray.o
                0x23f06efc                leRectArray_CropToSizeX
 .text._shuffleRight
                0x23f07030       0x78 build/lcdc_rgba888_mxt_9x60_wvga/production/_ext/109670485/legato_array.o
 .text._shuffleLeft
                0x23f070a8       0x5c build/lcdc_rgba888_mxt_9x60_wvga/production/_ext/109670485/legato_array.o
 .text.leArray_Create
                0x23f07104       0x1c build/lcdc_rgba888_mxt_9x60_wvga/production/_ext/109670485/legato_array.o
                0x23f07104                leArray_Create
 .text.leArray_Resize
                0x23f07120       0x70 build/lcdc_rgba888_mxt_9x60_wvga/production/_ext/109670485/legato_array.o
                0x23f07120                leArray_Resize
 .text.leArray_PushBack
                0x23f07190       0x60 build/lcdc_rgba888_mxt_9x60_wvga/production/_ext/109670485/legato_array.o
                0x23f07190                leArray_PushBack
 .text.leArray_InsertAt
                0x23f071f0       0x9c build/lcdc_rgba888_mxt_9x60_wvga/production/_ext/109670485/legato_array.o
                0x23f071f0                leArray_InsertAt
 .text.leArray_RemoveAt
                0x23f0728c       0x38 build/lcdc_rgba888_mxt_9x60_wvga/production/_ext/109670485/legato_array.o
                0x23f0728c                leArray_RemoveAt
 .text.leArray_Get
                0x23f072c4       0x18 build/lcdc_rgba888_mxt_9x60_wvga/production/_ext/109670485/legato_array.o
                0x23f072c4                leArray_Get
 .text.leArray_Find
                0x23f072dc       0x68 build/lcdc_rgba888_mxt_9x60_wvga/production/_ext/109670485/legato_array.o
                0x23f072dc                leArray_Find
 .text.leArray_Remove
                0x23f07344       0x58 build/lcdc_rgba888_mxt_9x60_wvga/production/_ext/109670485/legato_array.o
                0x23f07344                leArray_Remove
 .text.leArray_Clear
                0x23f0739c       0x38 build/lcdc_rgba888_mxt_9x60_wvga/production/_ext/109670485/legato_array.o
                0x23f0739c                leArray_Clear
 .text.leList_Create
                0x23f073d4       0x1c build/lcdc_rgba888_mxt_9x60_wvga/production/_ext/109670485/legato_list.o
                0x23f073d4                leList_Create
 .text.leList_PushBack
                0x23f073f0       0x68 build/lcdc_rgba888_mxt_9x60_wvga/production/_ext/109670485/legato_list.o
                0x23f073f0                leList_PushBack
 .text.leList_Get
                0x23f07458       0x44 build/lcdc_rgba888_mxt_9x60_wvga/production/_ext/109670485/legato_list.o
                0x23f07458                leList_Get
 .text.leList_Remove
                0x23f0749c       0xbc build/lcdc_rgba888_mxt_9x60_wvga/production/_ext/109670485/legato_list.o
                0x23f0749c                leList_Remove
 .text.leList_Destroy
                0x23f07558       0x4c build/lcdc_rgba888_mxt_9x60_wvga/production/_ext/109670485/legato_list.o
                0x23f07558                leList_Destroy
 .text.drawGlyphRow8bpp
                0x23f075a4       0xf8 build/lcdc_rgba888_mxt_9x60_wvga/production/_ext/1618103421/legato_font.o
 .text.drawGlyphRow1bpp
                0x23f0769c       0xd0 build/lcdc_rgba888_mxt_9x60_wvga/production/_ext/1618103421/legato_font.o
 .text.drawGlyphRow8bppMono
                0x23f0776c       0x5c build/lcdc_rgba888_mxt_9x60_wvga/production/_ext/1618103421/legato_font.o
 .text.drawGlyphRow1bppMono
                0x23f077c8       0x64 build/lcdc_rgba888_mxt_9x60_wvga/production/_ext/1618103421/legato_font.o
 .text._drawUnknownGlyph
                0x23f0782c       0xf4 build/lcdc_rgba888_mxt_9x60_wvga/production/_ext/1618103421/legato_font.o
 .text.leFont_GetGlyphInfo
                0x23f07920       0xe0 build/lcdc_rgba888_mxt_9x60_wvga/production/_ext/1618103421/legato_font.o
                0x23f07920                leFont_GetGlyphInfo
 .text.leFont_DrawGlyphData
                0x23f07a00      0x12c build/lcdc_rgba888_mxt_9x60_wvga/production/_ext/1618103421/legato_font.o
                0x23f07a00                leFont_DrawGlyphData
 .text.leFont_DrawGlyphData_Lookup
                0x23f07b2c      0x300 build/lcdc_rgba888_mxt_9x60_wvga/production/_ext/1618103421/legato_font.o
                0x23f07b2c                leFont_DrawGlyphData_Lookup
 .text.leFont_DrawGlyph
                0x23f07e2c       0xa4 build/lcdc_rgba888_mxt_9x60_wvga/production/_ext/1618103421/legato_font.o
                0x23f07e2c                leFont_DrawGlyph
 .text.leFont_DrawGlyph_Lookup
                0x23f07ed0       0xb4 build/lcdc_rgba888_mxt_9x60_wvga/production/_ext/1618103421/legato_font.o
                0x23f07ed0                leFont_DrawGlyph_Lookup
 .text.screenInit_Screen0
                0x23f07f84       0x28 build/lcdc_rgba888_mxt_9x60_wvga/production/_ext/534613472/le_gen_screen_Screen0.o
                0x23f07f84                screenInit_Screen0
 .text.screenShow_Screen0
                0x23f07fac      0x52c build/lcdc_rgba888_mxt_9x60_wvga/production/_ext/534613472/le_gen_screen_Screen0.o
                0x23f07fac                screenShow_Screen0
 .text.screenUpdate_Screen0
                0x23f084d8       0x68 build/lcdc_rgba888_mxt_9x60_wvga/production/_ext/534613472/le_gen_screen_Screen0.o
                0x23f084d8                screenUpdate_Screen0
 .text.screenHide_Screen0
                0x23f08540       0xc4 build/lcdc_rgba888_mxt_9x60_wvga/production/_ext/534613472/le_gen_screen_Screen0.o
                0x23f08540                screenHide_Screen0
 .text.screenInit_Screen1
                0x23f08604       0x28 build/lcdc_rgba888_mxt_9x60_wvga/production/_ext/534613472/le_gen_screen_Screen1.o
                0x23f08604                screenInit_Screen1
 .text.screenShow_Screen1
                0x23f0862c      0xf30 build/lcdc_rgba888_mxt_9x60_wvga/production/_ext/534613472/le_gen_screen_Screen1.o
                0x23f0862c                screenShow_Screen1
 .text.screenUpdate_Screen1
                0x23f0955c       0x68 build/lcdc_rgba888_mxt_9x60_wvga/production/_ext/534613472/le_gen_screen_Screen1.o
                0x23f0955c                screenUpdate_Screen1
 .text.screenHide_Screen1
                0x23f095c4      0x1b4 build/lcdc_rgba888_mxt_9x60_wvga/production/_ext/534613472/le_gen_screen_Screen1.o
                0x23f095c4                screenHide_Screen1
 .text.legato_getCurrentScreen
                0x23f09778       0x10 build/lcdc_rgba888_mxt_9x60_wvga/production/_ext/706129189/le_gen_init.o
                0x23f09778                legato_getCurrentScreen
 .text.legato_showScreen
                0x23f09788       0x1c build/lcdc_rgba888_mxt_9x60_wvga/production/_ext/706129189/le_gen_init.o
                0x23f09788                legato_showScreen
 .text.legato_initializeScreenState
                0x23f097a4       0x44 build/lcdc_rgba888_mxt_9x60_wvga/production/_ext/706129189/le_gen_init.o
                0x23f097a4                legato_initializeScreenState
 .text.legato_updateScreenState
                0x23f097e8       0xc8 build/lcdc_rgba888_mxt_9x60_wvga/production/_ext/706129189/le_gen_init.o
                0x23f097e8                legato_updateScreenState
 .text.initializeStrings
                0x23f098b0      0x138 build/lcdc_rgba888_mxt_9x60_wvga/production/_ext/706129189/le_gen_stringtable.o
                0x23f098b0                initializeStrings
 .text.touchMoveHandler
                0x23f099e8       0x18 build/lcdc_rgba888_mxt_9x60_wvga/production/_ext/706129189/le_gen_harmony.o
 .text.touchUpHandler
                0x23f09a00       0x18 build/lcdc_rgba888_mxt_9x60_wvga/production/_ext/706129189/le_gen_harmony.o
 .text.touchDownHandler
                0x23f09a18       0x18 build/lcdc_rgba888_mxt_9x60_wvga/production/_ext/706129189/le_gen_harmony.o
 .text.Legato_Initialize
                0x23f09a30       0x98 build/lcdc_rgba888_mxt_9x60_wvga/production/_ext/706129189/le_gen_harmony.o
                0x23f09a30                Legato_Initialize
 .text.Legato_Tasks
                0x23f09ac8       0x4c build/lcdc_rgba888_mxt_9x60_wvga/production/_ext/706129189/le_gen_harmony.o
                0x23f09ac8                Legato_Tasks
 .text._supportsImage
                0x23f09b14       0x28 build/lcdc_rgba888_mxt_9x60_wvga/production/_ext/2086705360/legato_imagedecoder_jpeg.o
 .text.internalMemoryRead
                0x23f09b3c       0x48 build/lcdc_rgba888_mxt_9x60_wvga/production/_ext/2086705360/legato_imagedecoder_jpeg.o
 .text.exec     0x23f09b84        0x8 build/lcdc_rgba888_mxt_9x60_wvga/production/_ext/2086705360/legato_imagedecoder_jpeg.o
 .text._render  0x23f09b8c      0x1fc build/lcdc_rgba888_mxt_9x60_wvga/production/_ext/2086705360/legato_imagedecoder_jpeg.o
 .text._draw    0x23f09d88      0x20c build/lcdc_rgba888_mxt_9x60_wvga/production/_ext/2086705360/legato_imagedecoder_jpeg.o
 .text.blitToImage
                0x23f09f94       0xa4 build/lcdc_rgba888_mxt_9x60_wvga/production/_ext/2086705360/legato_imagedecoder_jpeg.o
 .text.blitToFrameBuffer
                0x23f0a038       0x98 build/lcdc_rgba888_mxt_9x60_wvga/production/_ext/2086705360/legato_imagedecoder_jpeg.o
 .text._leJPEGImageDecoder_Init
                0x23f0a0d0       0x5c build/lcdc_rgba888_mxt_9x60_wvga/production/_ext/2086705360/legato_imagedecoder_jpeg.o
                0x23f0a0d0                _leJPEGImageDecoder_Init
 .text.JPEG_wReadWord
                0x23f0a12c       0x50 build/lcdc_rgba888_mxt_9x60_wvga/production/_ext/2086705360/legato_imagedecoder_jpeg_common.o
 .text.JPEG_bReadByte
                0x23f0a17c       0x2c build/lcdc_rgba888_mxt_9x60_wvga/production/_ext/2086705360/legato_imagedecoder_jpeg_common.o
 .text.JPEG_bGet1Bit
                0x23f0a1a8      0x154 build/lcdc_rgba888_mxt_9x60_wvga/production/_ext/2086705360/legato_imagedecoder_jpeg_common.o
 .text.JPEG_wGetBits
                0x23f0a2fc       0x4c build/lcdc_rgba888_mxt_9x60_wvga/production/_ext/2086705360/legato_imagedecoder_jpeg_common.o
 .text.JPEG_sGetBitsValue
                0x23f0a348       0x50 build/lcdc_rgba888_mxt_9x60_wvga/production/_ext/2086705360/legato_imagedecoder_jpeg_common.o
 .text.JPEG_bGetNextHuffByte
                0x23f0a398       0x98 build/lcdc_rgba888_mxt_9x60_wvga/production/_ext/2086705360/legato_imagedecoder_jpeg_common.o
 .text.JPEG_vResetDecoder
                0x23f0a430       0x20 build/lcdc_rgba888_mxt_9x60_wvga/production/_ext/2086705360/legato_imagedecoder_jpeg_common.o
                0x23f0a430                JPEG_vResetDecoder
 .text.JPEG_bReadHeader
                0x23f0a450      0x7c8 build/lcdc_rgba888_mxt_9x60_wvga/production/_ext/2086705360/legato_imagedecoder_jpeg_common.o
                0x23f0a450                JPEG_bReadHeader
 .text.JPEG_bGenerateHuffmanTables
                0x23f0ac18       0x90 build/lcdc_rgba888_mxt_9x60_wvga/production/_ext/2086705360/legato_imagedecoder_jpeg_common.o
                0x23f0ac18                JPEG_bGenerateHuffmanTables
 .text.JPEG_bDecodeOneBlock
                0x23f0aca8      0x270 build/lcdc_rgba888_mxt_9x60_wvga/production/_ext/2086705360/legato_imagedecoder_jpeg_common.o
                0x23f0aca8                JPEG_bDecodeOneBlock
 .text.JPEG_vInitDisplay
                0x23f0af18       0x10 build/lcdc_rgba888_mxt_9x60_wvga/production/_ext/2086705360/legato_imagedecoder_jpeg_common.o
                0x23f0af18                JPEG_vInitDisplay
 .text.JPEG_bPaintOneBlock
                0x23f0af28      0x9c4 build/lcdc_rgba888_mxt_9x60_wvga/production/_ext/2086705360/legato_imagedecoder_jpeg_common.o
                0x23f0af28                JPEG_bPaintOneBlock
 .text.jpeg_idct_islow_leg
                0x23f0b8ec      0x514 build/lcdc_rgba888_mxt_9x60_wvga/production/_ext/2086705360/jidctint.o
                0x23f0b8ec                jpeg_idct_islow_leg
 .text.stage_decode
                0x23f0be00       0x3c build/lcdc_rgba888_mxt_9x60_wvga/production/_ext/2086794059/legato_imagedecoder_mono_read_internal.o
 .text._leMonoImageDecoder_ReadStage_Internal
                0x23f0be3c       0x30 build/lcdc_rgba888_mxt_9x60_wvga/production/_ext/2086794059/legato_imagedecoder_mono_read_internal.o
                0x23f0be3c                _leMonoImageDecoder_ReadStage_Internal
 .text._supportsImage
                0x23f0be6c       0x14 build/lcdc_rgba888_mxt_9x60_wvga/production/_ext/2086794059/legato_imagedecoder_mono.o
 .text._decoderCleanup
                0x23f0be80       0x64 build/lcdc_rgba888_mxt_9x60_wvga/production/_ext/2086794059/legato_imagedecoder_mono.o
 .text._decoderExec
                0x23f0bee4       0x84 build/lcdc_rgba888_mxt_9x60_wvga/production/_ext/2086794059/legato_imagedecoder_mono.o
 .text._decoderIsDone
                0x23f0bf68       0x10 build/lcdc_rgba888_mxt_9x60_wvga/production/_ext/2086794059/legato_imagedecoder_mono.o
 .text.stage_sourceIterateSetup
                0x23f0bf78       0xb4 build/lcdc_rgba888_mxt_9x60_wvga/production/_ext/2086794059/legato_imagedecoder_mono.o
 .text.stage_FrameBufferWrite
                0x23f0c02c       0x20 build/lcdc_rgba888_mxt_9x60_wvga/production/_ext/2086794059/legato_imagedecoder_mono.o
 .text.stage_ImageWrite
                0x23f0c04c       0x28 build/lcdc_rgba888_mxt_9x60_wvga/production/_ext/2086794059/legato_imagedecoder_mono.o
 .text._leMonoImageDecoder_Init
                0x23f0c074       0x84 build/lcdc_rgba888_mxt_9x60_wvga/production/_ext/2086794059/legato_imagedecoder_mono.o
                0x23f0c074                _leMonoImageDecoder_Init
 .text._leMonoImageDecoder_InjectStage
                0x23f0c0f8       0x38 build/lcdc_rgba888_mxt_9x60_wvga/production/_ext/2086794059/legato_imagedecoder_mono.o
                0x23f0c0f8                _leMonoImageDecoder_InjectStage
 .text._leMonoImageDecoder_SourceIterateSetupStage
                0x23f0c130       0x38 build/lcdc_rgba888_mxt_9x60_wvga/production/_ext/2086794059/legato_imagedecoder_mono.o
                0x23f0c130                _leMonoImageDecoder_SourceIterateSetupStage
 .text._leMonoImageDecoder_FrameBufferWriteStage
                0x23f0c168       0x30 build/lcdc_rgba888_mxt_9x60_wvga/production/_ext/2086794059/legato_imagedecoder_mono.o
                0x23f0c168                _leMonoImageDecoder_FrameBufferWriteStage
 .text._draw    0x23f0c198      0x154 build/lcdc_rgba888_mxt_9x60_wvga/production/_ext/2086794059/legato_imagedecoder_mono.o
 .text._leMonoImageDecoder_ImageWriteStage
                0x23f0c2ec       0x30 build/lcdc_rgba888_mxt_9x60_wvga/production/_ext/2086794059/legato_imagedecoder_mono.o
                0x23f0c2ec                _leMonoImageDecoder_ImageWriteStage
 .text._copy    0x23f0c31c      0x190 build/lcdc_rgba888_mxt_9x60_wvga/production/_ext/2086794059/legato_imagedecoder_mono.o
 .text.readBitsFromStream
                0x23f0c4ac       0x50 build/lcdc_rgba888_mxt_9x60_wvga/production/_ext/1872343871/lodepng.o
 .text.huffmanDecodeSymbol
                0x23f0c4fc       0x64 build/lcdc_rgba888_mxt_9x60_wvga/production/_ext/1872343871/lodepng.o
 .text.readBitFromReversedStream
                0x23f0c560       0x24 build/lcdc_rgba888_mxt_9x60_wvga/production/_ext/1872343871/lodepng.o
 .text.readBitsFromReversedStream
                0x23f0c584       0x48 build/lcdc_rgba888_mxt_9x60_wvga/production/_ext/1872343871/lodepng.o
 .text.getNumColorChannels
                0x23f0c5cc       0x50 build/lcdc_rgba888_mxt_9x60_wvga/production/_ext/1872343871/lodepng.o
 .text.lodepng_color_mode_equal
                0x23f0c61c      0x120 build/lcdc_rgba888_mxt_9x60_wvga/production/_ext/1872343871/lodepng.o
 .text.addColorBits
                0x23f0c73c       0x50 build/lcdc_rgba888_mxt_9x60_wvga/production/_ext/1872343871/lodepng.o
 .text.getPixelColorsRGBA8
                0x23f0c78c      0x51c build/lcdc_rgba888_mxt_9x60_wvga/production/_ext/1872343871/lodepng.o
 .text.Adam7_getpassvalues
                0x23f0cca8      0x18c build/lcdc_rgba888_mxt_9x60_wvga/production/_ext/1872343871/lodepng.o
 .text.unfilter
                0x23f0ce34      0x424 build/lcdc_rgba888_mxt_9x60_wvga/production/_ext/1872343871/lodepng.o
 .text.removePaddingBits
                0x23f0d258       0xa4 build/lcdc_rgba888_mxt_9x60_wvga/production/_ext/1872343871/lodepng.o
 .text.ucvector_reserve
                0x23f0d2fc       0x58 build/lcdc_rgba888_mxt_9x60_wvga/production/_ext/1872343871/lodepng.o
 .text.ucvector_resize
                0x23f0d354       0x20 build/lcdc_rgba888_mxt_9x60_wvga/production/_ext/1872343871/lodepng.o
 .text.ucvector_push_back
                0x23f0d374       0x34 build/lcdc_rgba888_mxt_9x60_wvga/production/_ext/1872343871/lodepng.o
 .text.color_tree_cleanup
                0x23f0d3a8       0x34 build/lcdc_rgba888_mxt_9x60_wvga/production/_ext/1872343871/lodepng.o
 .text.LodePNGIText_cleanup
                0x23f0d3dc       0x90 build/lcdc_rgba888_mxt_9x60_wvga/production/_ext/1872343871/lodepng.o
 .text.LodePNGText_cleanup
                0x23f0d46c       0x60 build/lcdc_rgba888_mxt_9x60_wvga/production/_ext/1872343871/lodepng.o
 .text.HuffmanTree_cleanup
                0x23f0d4cc       0x24 build/lcdc_rgba888_mxt_9x60_wvga/production/_ext/1872343871/lodepng.o
 .text.string_set
                0x23f0d4f0       0x68 build/lcdc_rgba888_mxt_9x60_wvga/production/_ext/1872343871/lodepng.o
 .text.string_init
                0x23f0d558       0x2c build/lcdc_rgba888_mxt_9x60_wvga/production/_ext/1872343871/lodepng.o
 .text.uivector_reserve
                0x23f0d584       0x58 build/lcdc_rgba888_mxt_9x60_wvga/production/_ext/1872343871/lodepng.o
 .text.HuffmanTree_makeFromLengths
                0x23f0d5dc      0x424 build/lcdc_rgba888_mxt_9x60_wvga/production/_ext/1872343871/lodepng.o
 .text.lodepng_read32bitInt
                0x23f0da00       0x24 build/lcdc_rgba888_mxt_9x60_wvga/production/_ext/1872343871/lodepng.o
                0x23f0da00                lodepng_read32bitInt
 .text.lodepng_inflate
                0x23f0da24      0x998 build/lcdc_rgba888_mxt_9x60_wvga/production/_ext/1872343871/lodepng.o
                0x23f0da24                lodepng_inflate
 .text.lodepng_zlib_decompress
                0x23f0e3bc      0x198 build/lcdc_rgba888_mxt_9x60_wvga/production/_ext/1872343871/lodepng.o
                0x23f0e3bc                lodepng_zlib_decompress
 .text.zlib_decompress
                0x23f0e554       0x34 build/lcdc_rgba888_mxt_9x60_wvga/production/_ext/1872343871/lodepng.o
 .text.lodepng_crc32
                0x23f0e588       0x4c build/lcdc_rgba888_mxt_9x60_wvga/production/_ext/1872343871/lodepng.o
                0x23f0e588                lodepng_crc32
 .text.lodepng_chunk_type_equals
                0x23f0e5d4       0x80 build/lcdc_rgba888_mxt_9x60_wvga/production/_ext/1872343871/lodepng.o
                0x23f0e5d4                lodepng_chunk_type_equals
 .text.lodepng_chunk_check_crc
                0x23f0e654       0x38 build/lcdc_rgba888_mxt_9x60_wvga/production/_ext/1872343871/lodepng.o
                0x23f0e654                lodepng_chunk_check_crc
 .text.lodepng_chunk_next_const
                0x23f0e68c       0x18 build/lcdc_rgba888_mxt_9x60_wvga/production/_ext/1872343871/lodepng.o
                0x23f0e68c                lodepng_chunk_next_const
 .text.lodepng_chunk_append
                0x23f0e6a4       0xa4 build/lcdc_rgba888_mxt_9x60_wvga/production/_ext/1872343871/lodepng.o
                0x23f0e6a4                lodepng_chunk_append
 .text.lodepng_color_mode_init
                0x23f0e748       0x30 build/lcdc_rgba888_mxt_9x60_wvga/production/_ext/1872343871/lodepng.o
                0x23f0e748                lodepng_color_mode_init
 .text.lodepng_palette_clear
                0x23f0e778       0x28 build/lcdc_rgba888_mxt_9x60_wvga/production/_ext/1872343871/lodepng.o
                0x23f0e778                lodepng_palette_clear
 .text.lodepng_color_mode_copy
                0x23f0e7a0       0x98 build/lcdc_rgba888_mxt_9x60_wvga/production/_ext/1872343871/lodepng.o
                0x23f0e7a0                lodepng_color_mode_copy
 .text.lodepng_get_bpp
                0x23f0e838       0x1c build/lcdc_rgba888_mxt_9x60_wvga/production/_ext/1872343871/lodepng.o
                0x23f0e838                lodepng_get_bpp
 .text.lodepng_get_raw_size_idat
                0x23f0e854       0x34 build/lcdc_rgba888_mxt_9x60_wvga/production/_ext/1872343871/lodepng.o
 .text.lodepng_get_raw_size
                0x23f0e888       0x38 build/lcdc_rgba888_mxt_9x60_wvga/production/_ext/1872343871/lodepng.o
                0x23f0e888                lodepng_get_raw_size
 .text.lodepng_add_text
                0x23f0e8c0       0xcc build/lcdc_rgba888_mxt_9x60_wvga/production/_ext/1872343871/lodepng.o
                0x23f0e8c0                lodepng_add_text
 .text.lodepng_add_itext
                0x23f0e98c      0x17c build/lcdc_rgba888_mxt_9x60_wvga/production/_ext/1872343871/lodepng.o
                0x23f0e98c                lodepng_add_itext
 .text.lodepng_info_init
                0x23f0eb08       0x74 build/lcdc_rgba888_mxt_9x60_wvga/production/_ext/1872343871/lodepng.o
                0x23f0eb08                lodepng_info_init
 .text.lodepng_info_cleanup
                0x23f0eb7c       0x3c build/lcdc_rgba888_mxt_9x60_wvga/production/_ext/1872343871/lodepng.o
                0x23f0eb7c                lodepng_info_cleanup
 .text.lodepng_convert
                0x23f0ebb8      0xbb8 build/lcdc_rgba888_mxt_9x60_wvga/production/_ext/1872343871/lodepng.o
                0x23f0ebb8                lodepng_convert
 .text.lodepng_inspect
                0x23f0f770      0x290 build/lcdc_rgba888_mxt_9x60_wvga/production/_ext/1872343871/lodepng.o
                0x23f0f770                lodepng_inspect
 .text.lodepng_decode
                0x23f0fa00     0x1740 build/lcdc_rgba888_mxt_9x60_wvga/production/_ext/1872343871/lodepng.o
                0x23f0fa00                lodepng_decode
 .text.lodepng_decoder_settings_init
                0x23f11140       0x2c build/lcdc_rgba888_mxt_9x60_wvga/production/_ext/1872343871/lodepng.o
                0x23f11140                lodepng_decoder_settings_init
 .text.lodepng_state_init
                0x23f1116c       0x28 build/lcdc_rgba888_mxt_9x60_wvga/production/_ext/1872343871/lodepng.o
                0x23f1116c                lodepng_state_init
 .text.lodepng_state_cleanup
                0x23f11194       0x1c build/lcdc_rgba888_mxt_9x60_wvga/production/_ext/1872343871/lodepng.o
                0x23f11194                lodepng_state_cleanup
 .text.lodepng_decode_memory
                0x23f111b0       0x68 build/lcdc_rgba888_mxt_9x60_wvga/production/_ext/1872343871/lodepng.o
                0x23f111b0                lodepng_decode_memory
 .text._supportsImage
                0x23f11218       0x28 build/lcdc_rgba888_mxt_9x60_wvga/production/_ext/1872343871/legato_imagedecoder_png.o
 .text._decoderCleanup
                0x23f11240        0x4 build/lcdc_rgba888_mxt_9x60_wvga/production/_ext/1872343871/legato_imagedecoder_png.o
 .text._decoderExec
                0x23f11244        0x8 build/lcdc_rgba888_mxt_9x60_wvga/production/_ext/1872343871/legato_imagedecoder_png.o
 .text._decoderIsDone
                0x23f1124c        0x8 build/lcdc_rgba888_mxt_9x60_wvga/production/_ext/1872343871/legato_imagedecoder_png.o
 .text._render  0x23f11254       0xf4 build/lcdc_rgba888_mxt_9x60_wvga/production/_ext/1872343871/legato_imagedecoder_png.o
 .text._draw    0x23f11348      0x1f0 build/lcdc_rgba888_mxt_9x60_wvga/production/_ext/1872343871/legato_imagedecoder_png.o
 .text._lePNGImageDecoder_Init
                0x23f11538       0x6c build/lcdc_rgba888_mxt_9x60_wvga/production/_ext/1872343871/legato_imagedecoder_png.o
                0x23f11538                _lePNGImageDecoder_Init
 .text.stage_sourceIterateSetup
                0x23f115a4       0xb4 build/lcdc_rgba888_mxt_9x60_wvga/production/_ext/1872342336/legato_imagedecoder_raw_setup.o
 .text.stage_targetIterateSetup
                0x23f11658       0x94 build/lcdc_rgba888_mxt_9x60_wvga/production/_ext/1872342336/legato_imagedecoder_raw_setup.o
 .text._leRawImageDecoder_SourceIterateSetupStage
                0x23f116ec       0x38 build/lcdc_rgba888_mxt_9x60_wvga/production/_ext/1872342336/legato_imagedecoder_raw_setup.o
                0x23f116ec                _leRawImageDecoder_SourceIterateSetupStage
 .text._leRawImageDecoder_TargetIterateSetupStage
                0x23f11724       0x38 build/lcdc_rgba888_mxt_9x60_wvga/production/_ext/1872342336/legato_imagedecoder_raw_setup.o
                0x23f11724                _leRawImageDecoder_TargetIterateSetupStage
 .text.stage_postRead
                0x23f1175c       0x14 build/lcdc_rgba888_mxt_9x60_wvga/production/_ext/1872342336/legato_imagedecoder_raw_scale.o
 .text.stage_scaledNearestNeighborPreRead
                0x23f11770       0xc4 build/lcdc_rgba888_mxt_9x60_wvga/production/_ext/1872342336/legato_imagedecoder_raw_scale.o
 .text.stage_bilinearPreRead
                0x23f11834      0x164 build/lcdc_rgba888_mxt_9x60_wvga/production/_ext/1872342336/legato_imagedecoder_raw_scale.o
 .text.stage_scaledBilinearPostRead
                0x23f11998       0x8c build/lcdc_rgba888_mxt_9x60_wvga/production/_ext/1872342336/legato_imagedecoder_raw_scale.o
 .text._leRawImageDecoder_ScaleNearestNeighborPreReadStage
                0x23f11a24       0x6c build/lcdc_rgba888_mxt_9x60_wvga/production/_ext/1872342336/legato_imagedecoder_raw_scale.o
                0x23f11a24                _leRawImageDecoder_ScaleNearestNeighborPreReadStage
 .text._leRawImageDecoder_ScaleBilinearPreReadStage
                0x23f11a90       0x74 build/lcdc_rgba888_mxt_9x60_wvga/production/_ext/1872342336/legato_imagedecoder_raw_scale.o
                0x23f11a90                _leRawImageDecoder_ScaleBilinearPreReadStage
 .text._leRawImageDecoder_PostReadStage
                0x23f11b04       0x30 build/lcdc_rgba888_mxt_9x60_wvga/production/_ext/1872342336/legato_imagedecoder_raw_scale.o
                0x23f11b04                _leRawImageDecoder_PostReadStage
 .text._leRawImageDecoder_ScaleBilinearPostReadStage
                0x23f11b34       0x30 build/lcdc_rgba888_mxt_9x60_wvga/production/_ext/1872342336/legato_imagedecoder_raw_scale.o
                0x23f11b34                _leRawImageDecoder_ScaleBilinearPostReadStage
 .text._supportsImage
                0x23f11b64       0x14 build/lcdc_rgba888_mxt_9x60_wvga/production/_ext/1872342336/legato_imagedecoder_raw.o
 .text._decoderCleanup
                0x23f11b78       0x64 build/lcdc_rgba888_mxt_9x60_wvga/production/_ext/1872342336/legato_imagedecoder_raw.o
 .text._decoderExec
                0x23f11bdc       0x84 build/lcdc_rgba888_mxt_9x60_wvga/production/_ext/1872342336/legato_imagedecoder_raw.o
 .text._decoderIsDone
                0x23f11c60       0x10 build/lcdc_rgba888_mxt_9x60_wvga/production/_ext/1872342336/legato_imagedecoder_raw.o
 .text._initReadStage
                0x23f11c70       0x1c build/lcdc_rgba888_mxt_9x60_wvga/production/_ext/1872342336/legato_imagedecoder_raw.o
 .text._initMaskStage
                0x23f11c8c       0x24 build/lcdc_rgba888_mxt_9x60_wvga/production/_ext/1872342336/legato_imagedecoder_raw.o
 .text._initBlendStage
                0x23f11cb0       0x44 build/lcdc_rgba888_mxt_9x60_wvga/production/_ext/1872342336/legato_imagedecoder_raw.o
 .text._initConvertStage
                0x23f11cf4       0x4c build/lcdc_rgba888_mxt_9x60_wvga/production/_ext/1872342336/legato_imagedecoder_raw.o
 .text._rotateDraw
                0x23f11d40      0x2b0 build/lcdc_rgba888_mxt_9x60_wvga/production/_ext/1872342336/legato_imagedecoder_raw.o
 .text._rotate  0x23f11ff0      0x2f4 build/lcdc_rgba888_mxt_9x60_wvga/production/_ext/1872342336/legato_imagedecoder_raw.o
 .text._resizeDraw
                0x23f122e4      0x294 build/lcdc_rgba888_mxt_9x60_wvga/production/_ext/1872342336/legato_imagedecoder_raw.o
 .text._resize  0x23f12578      0x238 build/lcdc_rgba888_mxt_9x60_wvga/production/_ext/1872342336/legato_imagedecoder_raw.o
 .text._copy    0x23f127b0      0x1b8 build/lcdc_rgba888_mxt_9x60_wvga/production/_ext/1872342336/legato_imagedecoder_raw.o
 .text._initLookupStage
                0x23f12968       0x4c build/lcdc_rgba888_mxt_9x60_wvga/production/_ext/1872342336/legato_imagedecoder_raw.o
 .text._render  0x23f129b4      0x260 build/lcdc_rgba888_mxt_9x60_wvga/production/_ext/1872342336/legato_imagedecoder_raw.o
 .text._draw    0x23f12c14      0x2f4 build/lcdc_rgba888_mxt_9x60_wvga/production/_ext/1872342336/legato_imagedecoder_raw.o
 .text._leRawImageDecoder_Init
                0x23f12f08       0xa8 build/lcdc_rgba888_mxt_9x60_wvga/production/_ext/1872342336/legato_imagedecoder_raw.o
                0x23f12f08                _leRawImageDecoder_Init
 .text._leRawImageDecoder_InjectStage
                0x23f12fb0       0x38 build/lcdc_rgba888_mxt_9x60_wvga/production/_ext/1872342336/legato_imagedecoder_raw.o
                0x23f12fb0                _leRawImageDecoder_InjectStage
 .text.stage_decode
                0x23f12fe8       0x74 build/lcdc_rgba888_mxt_9x60_wvga/production/_ext/1872342336/legato_imagedecoder_raw_read_internal.o
 .text.rleRandomDecode
                0x23f1305c       0x54 build/lcdc_rgba888_mxt_9x60_wvga/production/_ext/1872342336/legato_imagedecoder_raw_read_internal.o
 .text.rleSequentialDecode
                0x23f130b0       0x48 build/lcdc_rgba888_mxt_9x60_wvga/production/_ext/1872342336/legato_imagedecoder_raw_read_internal.o
 .text.colorDecode
                0x23f130f8       0x34 build/lcdc_rgba888_mxt_9x60_wvga/production/_ext/1872342336/legato_imagedecoder_raw_read_internal.o
 .text.indexRLERandomDecode
                0x23f1312c       0x80 build/lcdc_rgba888_mxt_9x60_wvga/production/_ext/1872342336/legato_imagedecoder_raw_read_internal.o
 .text.indexRLESequentialDecode
                0x23f131ac       0x74 build/lcdc_rgba888_mxt_9x60_wvga/production/_ext/1872342336/legato_imagedecoder_raw_read_internal.o
 .text.indexDecode
                0x23f13220       0x30 build/lcdc_rgba888_mxt_9x60_wvga/production/_ext/1872342336/legato_imagedecoder_raw_read_internal.o
 .text._leRawImageDecoder_ReadStage_Internal
                0x23f13250      0x100 build/lcdc_rgba888_mxt_9x60_wvga/production/_ext/1872342336/legato_imagedecoder_raw_read_internal.o
                0x23f13250                _leRawImageDecoder_ReadStage_Internal
 .text.stage_FrameBufferWrite
                0x23f13350       0x24 build/lcdc_rgba888_mxt_9x60_wvga/production/_ext/1872342336/legato_imagedecoder_raw_write.o
 .text.stage_ImageWrite
                0x23f13374       0x28 build/lcdc_rgba888_mxt_9x60_wvga/production/_ext/1872342336/legato_imagedecoder_raw_write.o
 .text._leRawImageDecoder_FrameBufferWriteStage
                0x23f1339c       0x30 build/lcdc_rgba888_mxt_9x60_wvga/production/_ext/1872342336/legato_imagedecoder_raw_write.o
                0x23f1339c                _leRawImageDecoder_FrameBufferWriteStage
 .text._leRawImageDecoder_ImageWriteStage
                0x23f133cc       0x30 build/lcdc_rgba888_mxt_9x60_wvga/production/_ext/1872342336/legato_imagedecoder_raw_write.o
                0x23f133cc                _leRawImageDecoder_ImageWriteStage
 .text.stage_BlendRGBA5551
                0x23f133fc       0x1c build/lcdc_rgba888_mxt_9x60_wvga/production/_ext/1872342336/legato_imagedecoder_raw_blend.o
 .text.stage_BlendARGB8888
                0x23f13418       0x70 build/lcdc_rgba888_mxt_9x60_wvga/production/_ext/1872342336/legato_imagedecoder_raw_blend.o
 .text.stage_BlendRGBA8888
                0x23f13488       0x70 build/lcdc_rgba888_mxt_9x60_wvga/production/_ext/1872342336/legato_imagedecoder_raw_blend.o
 .text._leRawImageDecoder_BlendStage_Internal
                0x23f134f8       0xa0 build/lcdc_rgba888_mxt_9x60_wvga/production/_ext/1872342336/legato_imagedecoder_raw_blend.o
                0x23f134f8                _leRawImageDecoder_BlendStage_Internal
 .text.stage_rejectMaskedColor
                0x23f13598       0x24 build/lcdc_rgba888_mxt_9x60_wvga/production/_ext/1872342336/legato_imagedecoder_raw_mask.o
 .text._leRawImageDecoder_MaskStage_Internal
                0x23f135bc       0x2c build/lcdc_rgba888_mxt_9x60_wvga/production/_ext/1872342336/legato_imagedecoder_raw_mask.o
                0x23f135bc                _leRawImageDecoder_MaskStage_Internal
 .text.stage_convertColor
                0x23f135e8       0x2c build/lcdc_rgba888_mxt_9x60_wvga/production/_ext/1872342336/legato_imagedecoder_raw_convert.o
 .text._leRawImageDecoder_ConvertStage
                0x23f13614       0x90 build/lcdc_rgba888_mxt_9x60_wvga/production/_ext/1872342336/legato_imagedecoder_raw_convert.o
                0x23f13614                _leRawImageDecoder_ConvertStage
 .text.stage_rotateNearestNeighborPreRead
                0x23f136a4      0x120 build/lcdc_rgba888_mxt_9x60_wvga/production/_ext/1872342336/legato_imagedecoder_raw_rotate.o
 .text.stage_bilinearPreRead
                0x23f137c4      0x20c build/lcdc_rgba888_mxt_9x60_wvga/production/_ext/1872342336/legato_imagedecoder_raw_rotate.o
 .text.stage_rotateBilinearPostRead
                0x23f139d0       0x60 build/lcdc_rgba888_mxt_9x60_wvga/production/_ext/1872342336/legato_imagedecoder_raw_rotate.o
 .text._leRawImageDecoder_RotateNearestNeighborPreReadStage
                0x23f13a30       0x30 build/lcdc_rgba888_mxt_9x60_wvga/production/_ext/1872342336/legato_imagedecoder_raw_rotate.o
                0x23f13a30                _leRawImageDecoder_RotateNearestNeighborPreReadStage
 .text._leRawImageDecoder_RotateBilinearPreReadStage
                0x23f13a60       0x38 build/lcdc_rgba888_mxt_9x60_wvga/production/_ext/1872342336/legato_imagedecoder_raw_rotate.o
                0x23f13a60                _leRawImageDecoder_RotateBilinearPreReadStage
 .text._leRawImageDecoder_RotateBilinearPostReadStage
                0x23f13a98       0x30 build/lcdc_rgba888_mxt_9x60_wvga/production/_ext/1872342336/legato_imagedecoder_raw_rotate.o
                0x23f13a98                _leRawImageDecoder_RotateBilinearPostReadStage
 .text.stage_imageRenderPostLookup
                0x23f13ac8       0x48 build/lcdc_rgba888_mxt_9x60_wvga/production/_ext/1872342336/legato_imagedecoder_raw_palette_internal.o
 .text.stage_lookup
                0x23f13b10       0x40 build/lcdc_rgba888_mxt_9x60_wvga/production/_ext/1872342336/legato_imagedecoder_raw_palette_internal.o
 .text._leRawImageDecoder_LookupStage_Internal
                0x23f13b50       0x50 build/lcdc_rgba888_mxt_9x60_wvga/production/_ext/1872342336/legato_imagedecoder_raw_palette_internal.o
                0x23f13b50                _leRawImageDecoder_LookupStage_Internal
 .text._leRawImageDecoder_ImageRenderPostLookupStage
                0x23f13ba0       0x38 build/lcdc_rgba888_mxt_9x60_wvga/production/_ext/1872342336/legato_imagedecoder_raw_palette_internal.o
                0x23f13ba0                _leRawImageDecoder_ImageRenderPostLookupStage
 .text.getDiscreteValueAtIndex1
                0x23f13bd8       0x18 build/lcdc_rgba888_mxt_9x60_wvga/production/_ext/1381099687/legato_image_utils.o
 .text.getDiscreteValueAtIndex4
                0x23f13bf0       0x10 build/lcdc_rgba888_mxt_9x60_wvga/production/_ext/1381099687/legato_image_utils.o
 .text.getDiscreteValueAtIndex8
                0x23f13c00        0x8 build/lcdc_rgba888_mxt_9x60_wvga/production/_ext/1381099687/legato_image_utils.o
 .text.calcOffset1bpp
                0x23f13c08        0x8 build/lcdc_rgba888_mxt_9x60_wvga/production/_ext/1381099687/legato_image_utils.o
 .text.calcOffset4bpp
                0x23f13c10        0x8 build/lcdc_rgba888_mxt_9x60_wvga/production/_ext/1381099687/legato_image_utils.o
 .text.calcOffset8bpp
                0x23f13c18        0x4 build/lcdc_rgba888_mxt_9x60_wvga/production/_ext/1381099687/legato_image_utils.o
 .text.calcOffset16bpp
                0x23f13c1c        0x8 build/lcdc_rgba888_mxt_9x60_wvga/production/_ext/1381099687/legato_image_utils.o
 .text.calcOffset24bpp
                0x23f13c24        0x8 build/lcdc_rgba888_mxt_9x60_wvga/production/_ext/1381099687/legato_image_utils.o
 .text.calcOffset32bpp
                0x23f13c2c        0x8 build/lcdc_rgba888_mxt_9x60_wvga/production/_ext/1381099687/legato_image_utils.o
 .text.leGetRLEDataAtIndex
                0x23f13c34       0xd8 build/lcdc_rgba888_mxt_9x60_wvga/production/_ext/1381099687/legato_image_utils.o
                0x23f13c34                leGetRLEDataAtIndex
 .text.leGetDiscreteValueAtIndex
                0x23f13d0c       0x18 build/lcdc_rgba888_mxt_9x60_wvga/production/_ext/1381099687/legato_image_utils.o
                0x23f13d0c                leGetDiscreteValueAtIndex
 .text.leGetOffsetFromIndexAndBPP
                0x23f13d24       0x18 build/lcdc_rgba888_mxt_9x60_wvga/production/_ext/1381099687/legato_image_utils.o
                0x23f13d24                leGetOffsetFromIndexAndBPP
 .text.leImage_InitDecoders
                0x23f13d3c       0x30 build/lcdc_rgba888_mxt_9x60_wvga/production/_ext/1381099687/legato_image.o
                0x23f13d3c                leImage_InitDecoders
 .text.leImage_Create
                0x23f13d6c       0x94 build/lcdc_rgba888_mxt_9x60_wvga/production/_ext/1381099687/legato_image.o
                0x23f13d6c                leImage_Create
 .text.leImage_Allocate
                0x23f13e00       0xb4 build/lcdc_rgba888_mxt_9x60_wvga/production/_ext/1381099687/legato_image.o
                0x23f13e00                leImage_Allocate
 .text.leImage_Draw
                0x23f13eb4       0xd4 build/lcdc_rgba888_mxt_9x60_wvga/production/_ext/1381099687/legato_image.o
                0x23f13eb4                leImage_Draw
 .text.leFixedHeap_Init
                0x23f13f88       0xb0 build/lcdc_rgba888_mxt_9x60_wvga/production/_ext/28088523/legato_fixedheap.o
                0x23f13f88                leFixedHeap_Init
 .text.leFixedHeap_Alloc
                0x23f14038       0x48 build/lcdc_rgba888_mxt_9x60_wvga/production/_ext/28088523/legato_fixedheap.o
                0x23f14038                leFixedHeap_Alloc
 .text.leFixedHeap_Free
                0x23f14080       0x1c build/lcdc_rgba888_mxt_9x60_wvga/production/_ext/28088523/legato_fixedheap.o
                0x23f14080                leFixedHeap_Free
 .text.leFixedHeap_Contains
                0x23f1409c       0x60 build/lcdc_rgba888_mxt_9x60_wvga/production/_ext/28088523/legato_fixedheap.o
                0x23f1409c                leFixedHeap_Contains
 .text._fixedHeapAlloc
                0x23f140fc       0x60 build/lcdc_rgba888_mxt_9x60_wvga/production/_ext/28088523/legato_memory.o
 .text._findFixedHeapForPointer
                0x23f1415c       0x5c build/lcdc_rgba888_mxt_9x60_wvga/production/_ext/28088523/legato_memory.o
 .text.leMemory_Init
                0x23f141b8       0xb0 build/lcdc_rgba888_mxt_9x60_wvga/production/_ext/28088523/legato_memory.o
                0x23f141b8                leMemory_Init
 .text.leMalloc
                0x23f14268       0x28 build/lcdc_rgba888_mxt_9x60_wvga/production/_ext/28088523/legato_memory.o
                0x23f14268                leMalloc
 .text.leFree   0x23f14290       0x6c build/lcdc_rgba888_mxt_9x60_wvga/production/_ext/28088523/legato_memory.o
                0x23f14290                leFree
 .text.leRealloc
                0x23f142fc      0x25c build/lcdc_rgba888_mxt_9x60_wvga/production/_ext/28088523/legato_memory.o
                0x23f142fc                leRealloc
 .text._insertIntoList
                0x23f14558       0x84 build/lcdc_rgba888_mxt_9x60_wvga/production/_ext/28088523/legato_variableheap.o
 .text._removeFromList
                0x23f145dc       0x38 build/lcdc_rgba888_mxt_9x60_wvga/production/_ext/28088523/legato_variableheap.o
 .text._findPreviousBlock
                0x23f14614       0xa0 build/lcdc_rgba888_mxt_9x60_wvga/production/_ext/28088523/legato_variableheap.o
 .text._findNextBlock
                0x23f146b4       0x74 build/lcdc_rgba888_mxt_9x60_wvga/production/_ext/28088523/legato_variableheap.o
 .text._canSplit
                0x23f14728       0x3c build/lcdc_rgba888_mxt_9x60_wvga/production/_ext/28088523/legato_variableheap.o
 .text._combineFreeBlockNext
                0x23f14764       0x7c build/lcdc_rgba888_mxt_9x60_wvga/production/_ext/28088523/legato_variableheap.o
 .text._growAllocBlock
                0x23f147e0      0x104 build/lcdc_rgba888_mxt_9x60_wvga/production/_ext/28088523/legato_variableheap.o
 .text.leVariableHeap_Init
                0x23f148e4       0x58 build/lcdc_rgba888_mxt_9x60_wvga/production/_ext/28088523/legato_variableheap.o
                0x23f148e4                leVariableHeap_Init
 .text.leVariableHeap_Alloc
                0x23f1493c      0x130 build/lcdc_rgba888_mxt_9x60_wvga/production/_ext/28088523/legato_variableheap.o
                0x23f1493c                leVariableHeap_Alloc
 .text.leVariableHeap_Free
                0x23f14a6c       0xd8 build/lcdc_rgba888_mxt_9x60_wvga/production/_ext/28088523/legato_variableheap.o
                0x23f14a6c                leVariableHeap_Free
 .text.leVariableHeap_Realloc
                0x23f14b44      0x2a0 build/lcdc_rgba888_mxt_9x60_wvga/production/_ext/28088523/legato_variableheap.o
                0x23f14b44                leVariableHeap_Realloc
 .text.leVariableHeap_Contains
                0x23f14de4       0x20 build/lcdc_rgba888_mxt_9x60_wvga/production/_ext/28088523/legato_variableheap.o
                0x23f14de4                leVariableHeap_Contains
 .text.leVariableHeap_SizeOf
                0x23f14e04        0x8 build/lcdc_rgba888_mxt_9x60_wvga/production/_ext/28088523/legato_variableheap.o
                0x23f14e04                leVariableHeap_SizeOf
 .text.leVariableHeap_Validate
                0x23f14e0c        0x8 build/lcdc_rgba888_mxt_9x60_wvga/production/_ext/28088523/legato_variableheap.o
                0x23f14e0c                leVariableHeap_Validate
 .text.leRenderer_RectFill
                0x23f14e14       0x6c build/lcdc_rgba888_mxt_9x60_wvga/production/_ext/1081070089/legato_draw_rect.o
                0x23f14e14                leRenderer_RectFill
 .text.leRenderer_HorzLine
                0x23f14e80       0xe4 build/lcdc_rgba888_mxt_9x60_wvga/production/_ext/1081070089/legato_draw_line.o
                0x23f14e80                leRenderer_HorzLine
 .text.leRenderer_VertLine
                0x23f14f64       0xe4 build/lcdc_rgba888_mxt_9x60_wvga/production/_ext/1081070089/legato_draw_line.o
                0x23f14f64                leRenderer_VertLine
 .text.findDirtyWidget
                0x23f15048       0x90 build/lcdc_rgba888_mxt_9x60_wvga/production/_ext/1081070089/legato_renderer.o
 .text._nextRect
                0x23f150d8       0x34 build/lcdc_rgba888_mxt_9x60_wvga/production/_ext/1081070089/legato_renderer.o
 .text.invalidateWidget
                0x23f1510c       0xe0 build/lcdc_rgba888_mxt_9x60_wvga/production/_ext/1081070089/legato_renderer.o
 .text.addDamageRectToList
                0x23f151ec       0xb8 build/lcdc_rgba888_mxt_9x60_wvga/production/_ext/1081070089/legato_renderer.o
 .text.leRenderer_IsIdle
                0x23f152a4       0x18 build/lcdc_rgba888_mxt_9x60_wvga/production/_ext/1081070089/legato_renderer.o
                0x23f152a4                leRenderer_IsIdle
 .text.leGetRenderBuffer
                0x23f152bc       0x28 build/lcdc_rgba888_mxt_9x60_wvga/production/_ext/1081070089/legato_renderer.o
                0x23f152bc                leGetRenderBuffer
 .text.leRenderer_CurrentColorMode
                0x23f152e4       0x20 build/lcdc_rgba888_mxt_9x60_wvga/production/_ext/1081070089/legato_renderer.o
                0x23f152e4                leRenderer_CurrentColorMode
 .text.leRenderer_ConvertColor
                0x23f15304       0x34 build/lcdc_rgba888_mxt_9x60_wvga/production/_ext/1081070089/legato_renderer.o
                0x23f15304                leRenderer_ConvertColor
 .text.leRenderer_DisplaySize
                0x23f15338       0x40 build/lcdc_rgba888_mxt_9x60_wvga/production/_ext/1081070089/legato_renderer.o
                0x23f15338                leRenderer_DisplaySize
 .text.leRenderer_GetClipRect
                0x23f15378       0x18 build/lcdc_rgba888_mxt_9x60_wvga/production/_ext/1081070089/legato_renderer.o
                0x23f15378                leRenderer_GetClipRect
 .text.leRenderer_GetFrameRect
                0x23f15390       0x28 build/lcdc_rgba888_mxt_9x60_wvga/production/_ext/1081070089/legato_renderer.o
                0x23f15390                leRenderer_GetFrameRect
 .text.leRenderer_CullDrawRect
                0x23f153b8       0x20 build/lcdc_rgba888_mxt_9x60_wvga/production/_ext/1081070089/legato_renderer.o
                0x23f153b8                leRenderer_CullDrawRect
 .text.leRenderer_CullDrawXY
                0x23f153d8       0x30 build/lcdc_rgba888_mxt_9x60_wvga/production/_ext/1081070089/legato_renderer.o
                0x23f153d8                leRenderer_CullDrawXY
 .text.leRenderer_ClipDrawRect
                0x23f15408       0x18 build/lcdc_rgba888_mxt_9x60_wvga/production/_ext/1081070089/legato_renderer.o
                0x23f15408                leRenderer_ClipDrawRect
 .text.leRenderer_Initialize
                0x23f15420       0xb8 build/lcdc_rgba888_mxt_9x60_wvga/production/_ext/1081070089/legato_renderer.o
                0x23f15420                leRenderer_Initialize
 .text.leRenderer_DisplayInterface
                0x23f154d8       0x10 build/lcdc_rgba888_mxt_9x60_wvga/production/_ext/1081070089/legato_renderer.o
                0x23f154d8                leRenderer_DisplayInterface
 .text.leRenderer_GPUInterface
                0x23f154e8       0x10 build/lcdc_rgba888_mxt_9x60_wvga/production/_ext/1081070089/legato_renderer.o
                0x23f154e8                leRenderer_GPUInterface
 .text.leRenderer_DamageArea
                0x23f154f8       0xa8 build/lcdc_rgba888_mxt_9x60_wvga/production/_ext/1081070089/legato_renderer.o
                0x23f154f8                leRenderer_DamageArea
 .text.leRenderer_Paint
                0x23f155a0      0x7b8 build/lcdc_rgba888_mxt_9x60_wvga/production/_ext/1081070089/legato_renderer.o
                0x23f155a0                leRenderer_Paint
 .text._leRenderer_CreateLayerState
                0x23f15d58       0x48 build/lcdc_rgba888_mxt_9x60_wvga/production/_ext/1081070089/legato_renderer.o
                0x23f15d58                _leRenderer_CreateLayerState
 .text._MonoFill
                0x23f15da0       0x64 build/lcdc_rgba888_mxt_9x60_wvga/production/_ext/1081070089/legato_draw.o
 .text._MonoPutPixel
                0x23f15e04       0x30 build/lcdc_rgba888_mxt_9x60_wvga/production/_ext/1081070089/legato_draw.o
 .text._RGBPutPixel
                0x23f15e34       0x2c build/lcdc_rgba888_mxt_9x60_wvga/production/_ext/1081070089/legato_draw.o
 .text._RGBFill
                0x23f15e60       0x88 build/lcdc_rgba888_mxt_9x60_wvga/production/_ext/1081070089/legato_draw.o
 .text._RGBBlendPixel
                0x23f15ee8      0x15c build/lcdc_rgba888_mxt_9x60_wvga/production/_ext/1081070089/legato_draw.o
 .text.leRenderer_GetPixel
                0x23f16044       0x40 build/lcdc_rgba888_mxt_9x60_wvga/production/_ext/1081070089/legato_draw.o
                0x23f16044                leRenderer_GetPixel
 .text.leRenderer_PutPixel
                0x23f16084       0x4c build/lcdc_rgba888_mxt_9x60_wvga/production/_ext/1081070089/legato_draw.o
                0x23f16084                leRenderer_PutPixel
 .text.leRenderer_BlendPixel
                0x23f160d0       0x50 build/lcdc_rgba888_mxt_9x60_wvga/production/_ext/1081070089/legato_draw.o
                0x23f160d0                leRenderer_BlendPixel
 .text.leRenderer_BlendPixel_Safe
                0x23f16120       0x64 build/lcdc_rgba888_mxt_9x60_wvga/production/_ext/1081070089/legato_draw.o
                0x23f16120                leRenderer_BlendPixel_Safe
 .text._RGBBlendFill
                0x23f16184      0x140 build/lcdc_rgba888_mxt_9x60_wvga/production/_ext/1081070089/legato_draw.o
 .text.leRenderer_FillArea
                0x23f162c4       0x30 build/lcdc_rgba888_mxt_9x60_wvga/production/_ext/1081070089/legato_draw.o
                0x23f162c4                leRenderer_FillArea
 .text._leRenderer_InitDrawForMode
                0x23f162f4       0xa0 build/lcdc_rgba888_mxt_9x60_wvga/production/_ext/1081070089/legato_draw.o
                0x23f162f4                _leRenderer_InitDrawForMode
 .text.drawQ1   0x23f16394      0x1d4 build/lcdc_rgba888_mxt_9x60_wvga/production/_ext/1081070089/legato_draw_arc.o
 .text.drawQ2   0x23f16568      0x1bc build/lcdc_rgba888_mxt_9x60_wvga/production/_ext/1081070089/legato_draw_arc.o
 .text.drawQ3   0x23f16724      0x1c8 build/lcdc_rgba888_mxt_9x60_wvga/production/_ext/1081070089/legato_draw_arc.o
 .text.drawQ4   0x23f168ec      0x1dc build/lcdc_rgba888_mxt_9x60_wvga/production/_ext/1081070089/legato_draw_arc.o
 .text.leRenderer_ArcFill
                0x23f16ac8      0x3e0 build/lcdc_rgba888_mxt_9x60_wvga/production/_ext/1081070089/legato_draw_arc.o
                0x23f16ac8                leRenderer_ArcFill
 .text.leRenderer_CircleFill
                0x23f16ea8       0xc0 build/lcdc_rgba888_mxt_9x60_wvga/production/_ext/1081070089/legato_draw_arc.o
                0x23f16ea8                leRenderer_CircleFill
 .text._convertColorMode
                0x23f16f68        0xc build/lcdc_rgba888_mxt_9x60_wvga/production/_ext/1081070089/legato_gpu.o
 .text.leGPU_DrawLine
                0x23f16f74      0x1e4 build/lcdc_rgba888_mxt_9x60_wvga/production/_ext/1081070089/legato_gpu.o
                0x23f16f74                leGPU_DrawLine
 .text.leGPU_ClearBuffer
                0x23f17158       0xa4 build/lcdc_rgba888_mxt_9x60_wvga/production/_ext/1081070089/legato_gpu.o
                0x23f17158                leGPU_ClearBuffer
 .text.leGPU_FillRect
                0x23f171fc      0x178 build/lcdc_rgba888_mxt_9x60_wvga/production/_ext/1081070089/legato_gpu.o
                0x23f171fc                leGPU_FillRect
 .text.leGPU_BlitBuffer
                0x23f17374      0x224 build/lcdc_rgba888_mxt_9x60_wvga/production/_ext/1081070089/legato_gpu.o
                0x23f17374                leGPU_BlitBuffer
 .text.leGPU_BlitStretchBuffer
                0x23f17598      0x200 build/lcdc_rgba888_mxt_9x60_wvga/production/_ext/1081070089/legato_gpu.o
                0x23f17598                leGPU_BlitStretchBuffer
 .text.leStringRenderer_DrawString
                0x23f17798      0x290 build/lcdc_rgba888_mxt_9x60_wvga/production/_ext/157682245/legato_string_renderer.o
                0x23f17798                leStringRenderer_DrawString
 .text.decodeASCII
                0x23f17a28       0x18 build/lcdc_rgba888_mxt_9x60_wvga/production/_ext/157682245/legato_stringutils.o
 .text.decodeUTF8
                0x23f17a40      0x1f8 build/lcdc_rgba888_mxt_9x60_wvga/production/_ext/157682245/legato_stringutils.o
 .text.decodeUTF16
                0x23f17c38       0x80 build/lcdc_rgba888_mxt_9x60_wvga/production/_ext/157682245/legato_stringutils.o
 .text.leDecodeCodePoint
                0x23f17cb8       0x2c build/lcdc_rgba888_mxt_9x60_wvga/production/_ext/157682245/legato_stringutils.o
                0x23f17cb8                leDecodeCodePoint
 .text.leStringUtils_KerningRect
                0x23f17ce4       0x44 build/lcdc_rgba888_mxt_9x60_wvga/production/_ext/157682245/legato_stringutils.o
                0x23f17ce4                leStringUtils_KerningRect
 .text._leTableString_SetFont
                0x23f17d28        0x8 build/lcdc_rgba888_mxt_9x60_wvga/production/_ext/157682245/legato_tablestring.o
                0x23f17d28                _leTableString_SetFont
 .text._leTableString_SetFromString
                0x23f17d30        0x8 build/lcdc_rgba888_mxt_9x60_wvga/production/_ext/157682245/legato_tablestring.o
                0x23f17d30                _leTableString_SetFromString
 .text._leTableString_SetFromChar
                0x23f17d38        0x8 build/lcdc_rgba888_mxt_9x60_wvga/production/_ext/157682245/legato_tablestring.o
                0x23f17d38                _leTableString_SetFromChar
 .text._leTableString_SetFromCStr
                0x23f17d40        0x8 build/lcdc_rgba888_mxt_9x60_wvga/production/_ext/157682245/legato_tablestring.o
                0x23f17d40                _leTableString_SetFromCStr
 .text._leTableString_Compare
                0x23f17d48       0xb8 build/lcdc_rgba888_mxt_9x60_wvga/production/_ext/157682245/legato_tablestring.o
                0x23f17d48                _leTableString_Compare
 .text._leTableString_Append
                0x23f17e00        0x8 build/lcdc_rgba888_mxt_9x60_wvga/production/_ext/157682245/legato_tablestring.o
                0x23f17e00                _leTableString_Append
 .text._leTableString_Insert
                0x23f17e08        0x8 build/lcdc_rgba888_mxt_9x60_wvga/production/_ext/157682245/legato_tablestring.o
                0x23f17e08                _leTableString_Insert
 .text._leTableString_Remove
                0x23f17e10        0x8 build/lcdc_rgba888_mxt_9x60_wvga/production/_ext/157682245/legato_tablestring.o
                0x23f17e10                _leTableString_Remove
 .text._leTableString_Clear
                0x23f17e18        0x4 build/lcdc_rgba888_mxt_9x60_wvga/production/_ext/157682245/legato_tablestring.o
                0x23f17e18                _leTableString_Clear
 .text._leTableString_GetID
                0x23f17e1c        0x8 build/lcdc_rgba888_mxt_9x60_wvga/production/_ext/157682245/legato_tablestring.o
                0x23f17e1c                _leTableString_GetID
 .text._leTableString_SetID
                0x23f17e24       0x34 build/lcdc_rgba888_mxt_9x60_wvga/production/_ext/157682245/legato_tablestring.o
                0x23f17e24                _leTableString_SetID
 .text._leTableString_Destructor
                0x23f17e58       0x14 build/lcdc_rgba888_mxt_9x60_wvga/production/_ext/157682245/legato_tablestring.o
                0x23f17e58                _leTableString_Destructor
 .text._leTableString_GetFont
                0x23f17e6c       0x2c build/lcdc_rgba888_mxt_9x60_wvga/production/_ext/157682245/legato_tablestring.o
                0x23f17e6c                _leTableString_GetFont
 .text._leTableString_Length
                0x23f17e98       0x78 build/lcdc_rgba888_mxt_9x60_wvga/production/_ext/157682245/legato_tablestring.o
                0x23f17e98                _leTableString_Length
 .text._leTableString_IsEmpty
                0x23f17f10       0x14 build/lcdc_rgba888_mxt_9x60_wvga/production/_ext/157682245/legato_tablestring.o
                0x23f17f10                _leTableString_IsEmpty
 .text._leTableString_CharAt
                0x23f17f24       0xf8 build/lcdc_rgba888_mxt_9x60_wvga/production/_ext/157682245/legato_tablestring.o
                0x23f17f24                _leTableString_CharAt
 .text.leTableString_Constructor
                0x23f1801c       0x28 build/lcdc_rgba888_mxt_9x60_wvga/production/_ext/157682245/legato_tablestring.o
                0x23f1801c                leTableString_Constructor
 .text._leString_Constructor
                0x23f18044       0x18 build/lcdc_rgba888_mxt_9x60_wvga/production/_ext/157682245/legato_string.o
                0x23f18044                _leString_Constructor
 .text._leString_Destructor
                0x23f1805c        0x4 build/lcdc_rgba888_mxt_9x60_wvga/production/_ext/157682245/legato_string.o
                0x23f1805c                _leString_Destructor
 .text._leString_GetRect
                0x23f18060       0xd8 build/lcdc_rgba888_mxt_9x60_wvga/production/_ext/157682245/legato_string.o
                0x23f18060                _leString_GetRect
 .text._leString_GetLineCount
                0x23f18138       0x58 build/lcdc_rgba888_mxt_9x60_wvga/production/_ext/157682245/legato_string.o
                0x23f18138                _leString_GetLineCount
 .text._leString_GetLineIndices
                0x23f18190       0xbc build/lcdc_rgba888_mxt_9x60_wvga/production/_ext/157682245/legato_string.o
                0x23f18190                _leString_GetLineIndices
 .text._leString_GetLineRect
                0x23f1824c      0x118 build/lcdc_rgba888_mxt_9x60_wvga/production/_ext/157682245/legato_string.o
                0x23f1824c                _leString_GetLineRect
 .text._leString_GetCharRect
                0x23f18364      0x118 build/lcdc_rgba888_mxt_9x60_wvga/production/_ext/157682245/legato_string.o
                0x23f18364                _leString_GetCharRect
 .text._leString_GetCharIndexAtPoint
                0x23f1847c      0x128 build/lcdc_rgba888_mxt_9x60_wvga/production/_ext/157682245/legato_string.o
                0x23f1847c                _leString_GetCharIndexAtPoint
 .text._leString_Draw
                0x23f185a4       0x40 build/lcdc_rgba888_mxt_9x60_wvga/production/_ext/157682245/legato_string.o
                0x23f185a4                _leString_Draw
 .text._leString_PreInvalidate
                0x23f185e4       0x1c build/lcdc_rgba888_mxt_9x60_wvga/production/_ext/157682245/legato_string.o
                0x23f185e4                _leString_PreInvalidate
 .text._leString_Invalidate
                0x23f18600       0x1c build/lcdc_rgba888_mxt_9x60_wvga/production/_ext/157682245/legato_string.o
                0x23f18600                _leString_Invalidate
 .text._leString_SetPreInvalidateCallback
                0x23f1861c       0x18 build/lcdc_rgba888_mxt_9x60_wvga/production/_ext/157682245/legato_string.o
                0x23f1861c                _leString_SetPreInvalidateCallback
 .text._leString_SetInvalidateCallback
                0x23f18634       0x18 build/lcdc_rgba888_mxt_9x60_wvga/production/_ext/157682245/legato_string.o
                0x23f18634                _leString_SetInvalidateCallback
 .text._leFixedString_GetFont
                0x23f1864c        0x8 build/lcdc_rgba888_mxt_9x60_wvga/production/_ext/157682245/legato_fixedstring.o
                0x23f1864c                _leFixedString_GetFont
 .text._leFixedString_SetFont
                0x23f18654       0x34 build/lcdc_rgba888_mxt_9x60_wvga/production/_ext/157682245/legato_fixedstring.o
                0x23f18654                _leFixedString_SetFont
 .text._leFixedString_SetFromString
                0x23f18688       0xc8 build/lcdc_rgba888_mxt_9x60_wvga/production/_ext/157682245/legato_fixedstring.o
                0x23f18688                _leFixedString_SetFromString
 .text._leFixedString_SetFromChar
                0x23f18750       0xa0 build/lcdc_rgba888_mxt_9x60_wvga/production/_ext/157682245/legato_fixedstring.o
                0x23f18750                _leFixedString_SetFromChar
 .text._leFixedString_Length
                0x23f187f0        0x8 build/lcdc_rgba888_mxt_9x60_wvga/production/_ext/157682245/legato_fixedstring.o
                0x23f187f0                _leFixedString_Length
 .text._leFixedString_IsEmpty
                0x23f187f8       0x10 build/lcdc_rgba888_mxt_9x60_wvga/production/_ext/157682245/legato_fixedstring.o
                0x23f187f8                _leFixedString_IsEmpty
 .text._leFixedString_CharAt
                0x23f18808       0x1c build/lcdc_rgba888_mxt_9x60_wvga/production/_ext/157682245/legato_fixedstring.o
                0x23f18808                _leFixedString_CharAt
 .text._leFixedString_Compare
                0x23f18824       0xb0 build/lcdc_rgba888_mxt_9x60_wvga/production/_ext/157682245/legato_fixedstring.o
                0x23f18824                _leFixedString_Compare
 .text._leFixedString_Append
                0x23f188d4       0xdc build/lcdc_rgba888_mxt_9x60_wvga/production/_ext/157682245/legato_fixedstring.o
                0x23f188d4                _leFixedString_Append
 .text._leFixedString_Insert
                0x23f189b0      0x180 build/lcdc_rgba888_mxt_9x60_wvga/production/_ext/157682245/legato_fixedstring.o
                0x23f189b0                _leFixedString_Insert
 .text._leFixedString_Remove
                0x23f18b30       0xd4 build/lcdc_rgba888_mxt_9x60_wvga/production/_ext/157682245/legato_fixedstring.o
                0x23f18b30                _leFixedString_Remove
 .text._leFixedString_Clear
                0x23f18c04       0x30 build/lcdc_rgba888_mxt_9x60_wvga/production/_ext/157682245/legato_fixedstring.o
                0x23f18c04                _leFixedString_Clear
 .text._leFixedString_Destructor
                0x23f18c34       0x20 build/lcdc_rgba888_mxt_9x60_wvga/production/_ext/157682245/legato_fixedstring.o
                0x23f18c34                _leFixedString_Destructor
 .text._leFixedString_SetFromCStr
                0x23f18c54       0xa8 build/lcdc_rgba888_mxt_9x60_wvga/production/_ext/157682245/legato_fixedstring.o
                0x23f18c54                _leFixedString_SetFromCStr
 .text._leFixedString_ToChar
                0x23f18cfc       0x50 build/lcdc_rgba888_mxt_9x60_wvga/production/_ext/157682245/legato_fixedstring.o
                0x23f18cfc                _leFixedString_ToChar
 .text.leFixedString_Constructor
                0x23f18d4c       0x40 build/lcdc_rgba888_mxt_9x60_wvga/production/_ext/157682245/legato_fixedstring.o
                0x23f18d4c                leFixedString_Constructor
 .text.leStringTable_GetStringOffset
                0x23f18d8c       0x64 build/lcdc_rgba888_mxt_9x60_wvga/production/_ext/157682245/legato_stringtable.o
                0x23f18d8c                leStringTable_GetStringOffset
 .text.leStringTable_GetStringFont
                0x23f18df0       0x60 build/lcdc_rgba888_mxt_9x60_wvga/production/_ext/157682245/legato_stringtable.o
                0x23f18df0                leStringTable_GetStringFont
 .text.leStringTable_StringLookup
                0x23f18e50       0x60 build/lcdc_rgba888_mxt_9x60_wvga/production/_ext/157682245/legato_stringtable.o
                0x23f18e50                leStringTable_StringLookup
 .text.leStringTable_GetStringLength
                0x23f18eb0       0x84 build/lcdc_rgba888_mxt_9x60_wvga/production/_ext/157682245/legato_stringtable.o
                0x23f18eb0                leStringTable_GetStringLength
 .text.getToggleable
                0x23f18f34        0x8 build/lcdc_rgba888_mxt_9x60_wvga/production/_ext/1339002025/legato_widget_button.o
 .text.setToggleable
                0x23f18f3c       0x14 build/lcdc_rgba888_mxt_9x60_wvga/production/_ext/1339002025/legato_widget_button.o
 .text.getPressed
                0x23f18f50       0x18 build/lcdc_rgba888_mxt_9x60_wvga/production/_ext/1339002025/legato_widget_button.o
 .text.setPressed
                0x23f18f68      0x110 build/lcdc_rgba888_mxt_9x60_wvga/production/_ext/1339002025/legato_widget_button.o
 .text.getString
                0x23f19078        0x8 build/lcdc_rgba888_mxt_9x60_wvga/production/_ext/1339002025/legato_widget_button.o
 .text.setString
                0x23f19080       0xa0 build/lcdc_rgba888_mxt_9x60_wvga/production/_ext/1339002025/legato_widget_button.o
 .text.getPressedImage
                0x23f19120        0x8 build/lcdc_rgba888_mxt_9x60_wvga/production/_ext/1339002025/legato_widget_button.o
 .text.setPressedImage
                0x23f19128       0x1c build/lcdc_rgba888_mxt_9x60_wvga/production/_ext/1339002025/legato_widget_button.o
 .text.getReleasedImage
                0x23f19144        0x8 build/lcdc_rgba888_mxt_9x60_wvga/production/_ext/1339002025/legato_widget_button.o
 .text.setReleasedImage
                0x23f1914c       0x1c build/lcdc_rgba888_mxt_9x60_wvga/production/_ext/1339002025/legato_widget_button.o
 .text.getImagePosition
                0x23f19168        0x8 build/lcdc_rgba888_mxt_9x60_wvga/production/_ext/1339002025/legato_widget_button.o
 .text.setImagePosition
                0x23f19170       0x48 build/lcdc_rgba888_mxt_9x60_wvga/production/_ext/1339002025/legato_widget_button.o
 .text.getImageMargin
                0x23f191b8        0x8 build/lcdc_rgba888_mxt_9x60_wvga/production/_ext/1339002025/legato_widget_button.o
 .text.setImageMargin
                0x23f191c0       0x48 build/lcdc_rgba888_mxt_9x60_wvga/production/_ext/1339002025/legato_widget_button.o
 .text.getPressedOffset
                0x23f19208        0x8 build/lcdc_rgba888_mxt_9x60_wvga/production/_ext/1339002025/legato_widget_button.o
 .text.setPressedOffset
                0x23f19210       0x60 build/lcdc_rgba888_mxt_9x60_wvga/production/_ext/1339002025/legato_widget_button.o
 .text.getPressedEventCallback
                0x23f19270        0x8 build/lcdc_rgba888_mxt_9x60_wvga/production/_ext/1339002025/legato_widget_button.o
 .text.setPressedEventCallback
                0x23f19278        0xc build/lcdc_rgba888_mxt_9x60_wvga/production/_ext/1339002025/legato_widget_button.o
 .text.getReleasedEventCallback
                0x23f19284        0x8 build/lcdc_rgba888_mxt_9x60_wvga/production/_ext/1339002025/legato_widget_button.o
 .text.setReleasedEventCallback
                0x23f1928c        0xc build/lcdc_rgba888_mxt_9x60_wvga/production/_ext/1339002025/legato_widget_button.o
 .text.languageChanging
                0x23f19298       0x20 build/lcdc_rgba888_mxt_9x60_wvga/production/_ext/1339002025/legato_widget_button.o
 .text.invalidateTextRect
                0x23f192b8       0x34 build/lcdc_rgba888_mxt_9x60_wvga/production/_ext/1339002025/legato_widget_button.o
 .text.stringInvalidate
                0x23f192ec       0x10 build/lcdc_rgba888_mxt_9x60_wvga/production/_ext/1339002025/legato_widget_button.o
 .text.stringPreinvalidate
                0x23f192fc       0x10 build/lcdc_rgba888_mxt_9x60_wvga/production/_ext/1339002025/legato_widget_button.o
 .text.touchDown
                0x23f1930c       0xac build/lcdc_rgba888_mxt_9x60_wvga/production/_ext/1339002025/legato_widget_button.o
 .text.touchMoved
                0x23f193b8      0x168 build/lcdc_rgba888_mxt_9x60_wvga/production/_ext/1339002025/legato_widget_button.o
 .text.touchUp  0x23f19520      0x158 build/lcdc_rgba888_mxt_9x60_wvga/production/_ext/1339002025/legato_widget_button.o
 .text.invalidateContents
                0x23f19678       0x8c build/lcdc_rgba888_mxt_9x60_wvga/production/_ext/1339002025/legato_widget_button.o
 .text._leButtonWidget_Destructor
                0x23f19704       0x1c build/lcdc_rgba888_mxt_9x60_wvga/production/_ext/1339002025/legato_widget_button.o
                0x23f19704                _leButtonWidget_Destructor
 .text.leButtonWidget_Constructor
                0x23f19720       0x70 build/lcdc_rgba888_mxt_9x60_wvga/production/_ext/1339002025/legato_widget_button.o
                0x23f19720                leButtonWidget_Constructor
 .text.leButtonWidget_New
                0x23f19790       0x24 build/lcdc_rgba888_mxt_9x60_wvga/production/_ext/1339002025/legato_widget_button.o
                0x23f19790                leButtonWidget_New
 .text.nextState
                0x23f197b4      0x140 build/lcdc_rgba888_mxt_9x60_wvga/production/_ext/1339002025/legato_widget_button_skin_classic.o
 .text.drawBorder
                0x23f198f4       0x68 build/lcdc_rgba888_mxt_9x60_wvga/production/_ext/1339002025/legato_widget_button_skin_classic.o
 .text.drawBackground
                0x23f1995c       0x54 build/lcdc_rgba888_mxt_9x60_wvga/production/_ext/1339002025/legato_widget_button_skin_classic.o
 .text._leButtonWidget_GetImageRect
                0x23f199b0      0x160 build/lcdc_rgba888_mxt_9x60_wvga/production/_ext/1339002025/legato_widget_button_skin_classic.o
                0x23f199b0                _leButtonWidget_GetImageRect
 .text.drawImage
                0x23f19b10       0x5c build/lcdc_rgba888_mxt_9x60_wvga/production/_ext/1339002025/legato_widget_button_skin_classic.o
 .text._leButtonWidget_GetTextRects
                0x23f19b6c      0x184 build/lcdc_rgba888_mxt_9x60_wvga/production/_ext/1339002025/legato_widget_button_skin_classic.o
                0x23f19b6c                _leButtonWidget_GetTextRects
 .text.drawString
                0x23f19cf0       0xa0 build/lcdc_rgba888_mxt_9x60_wvga/production/_ext/1339002025/legato_widget_button_skin_classic.o
 .text._leButtonWidget_InvalidateBorderAreas
                0x23f19d90      0x1a4 build/lcdc_rgba888_mxt_9x60_wvga/production/_ext/1339002025/legato_widget_button_skin_classic.o
                0x23f19d90                _leButtonWidget_InvalidateBorderAreas
 .text._leButtonWidget_Paint
                0x23f19f34       0x44 build/lcdc_rgba888_mxt_9x60_wvga/production/_ext/1339002025/legato_widget_button_skin_classic.o
                0x23f19f34                _leButtonWidget_Paint
 .text.nextState
                0x23f19f78       0xec build/lcdc_rgba888_mxt_9x60_wvga/production/_ext/1197524732/legato_widget_image_skin_classic.o
 .text.drawBorder
                0x23f1a064       0x4c build/lcdc_rgba888_mxt_9x60_wvga/production/_ext/1197524732/legato_widget_image_skin_classic.o
 .text.drawBackground
                0x23f1a0b0       0x24 build/lcdc_rgba888_mxt_9x60_wvga/production/_ext/1197524732/legato_widget_image_skin_classic.o
 .text._leImageWidget_GetImageRect
                0x23f1a0d4       0xb4 build/lcdc_rgba888_mxt_9x60_wvga/production/_ext/1197524732/legato_widget_image_skin_classic.o
                0x23f1a0d4                _leImageWidget_GetImageRect
 .text.drawImage
                0x23f1a188       0x74 build/lcdc_rgba888_mxt_9x60_wvga/production/_ext/1197524732/legato_widget_image_skin_classic.o
 .text._leImageWidget_Paint
                0x23f1a1fc       0x44 build/lcdc_rgba888_mxt_9x60_wvga/production/_ext/1197524732/legato_widget_image_skin_classic.o
                0x23f1a1fc                _leImageWidget_Paint
 .text._leImageWidget_GetImage
                0x23f1a240        0x8 build/lcdc_rgba888_mxt_9x60_wvga/production/_ext/1197524732/legato_widget_image.o
                0x23f1a240                _leImageWidget_GetImage
 .text.invalidateImageRect
                0x23f1a248       0x64 build/lcdc_rgba888_mxt_9x60_wvga/production/_ext/1197524732/legato_widget_image.o
 .text.invalidateContents
                0x23f1a2ac       0x18 build/lcdc_rgba888_mxt_9x60_wvga/production/_ext/1197524732/legato_widget_image.o
 .text._leImageWidget_SetImage
                0x23f1a2c4       0x48 build/lcdc_rgba888_mxt_9x60_wvga/production/_ext/1197524732/legato_widget_image.o
                0x23f1a2c4                _leImageWidget_SetImage
 .text._leImageWidget_Destructor
                0x23f1a30c        0xc build/lcdc_rgba888_mxt_9x60_wvga/production/_ext/1197524732/legato_widget_image.o
                0x23f1a30c                _leImageWidget_Destructor
 .text._leImageWidget_Constructor
                0x23f1a318       0x48 build/lcdc_rgba888_mxt_9x60_wvga/production/_ext/1197524732/legato_widget_image.o
                0x23f1a318                _leImageWidget_Constructor
 .text.leImageWidget_New
                0x23f1a360       0x24 build/lcdc_rgba888_mxt_9x60_wvga/production/_ext/1197524732/legato_widget_image.o
                0x23f1a360                leImageWidget_New
 .text.handleLanguageChangeEvent
                0x23f1a384       0x20 build/lcdc_rgba888_mxt_9x60_wvga/production/_ext/1195110755/legato_widget_label.o
 .text.getString
                0x23f1a3a4        0x8 build/lcdc_rgba888_mxt_9x60_wvga/production/_ext/1195110755/legato_widget_label.o
 .text._leLabelWidget_Destructor
                0x23f1a3ac       0x14 build/lcdc_rgba888_mxt_9x60_wvga/production/_ext/1195110755/legato_widget_label.o
 .text.invalidateContents
                0x23f1a3c0       0x40 build/lcdc_rgba888_mxt_9x60_wvga/production/_ext/1195110755/legato_widget_label.o
 .text.setString
                0x23f1a400       0xb0 build/lcdc_rgba888_mxt_9x60_wvga/production/_ext/1195110755/legato_widget_label.o
 .text.stringInvalidate
                0x23f1a4b0       0x10 build/lcdc_rgba888_mxt_9x60_wvga/production/_ext/1195110755/legato_widget_label.o
 .text.stringPreinvalidate
                0x23f1a4c0       0x10 build/lcdc_rgba888_mxt_9x60_wvga/production/_ext/1195110755/legato_widget_label.o
 .text.leLabelWidget_Constructor
                0x23f1a4d0       0x48 build/lcdc_rgba888_mxt_9x60_wvga/production/_ext/1195110755/legato_widget_label.o
                0x23f1a4d0                leLabelWidget_Constructor
 .text.leLabelWidget_New
                0x23f1a518       0x1c build/lcdc_rgba888_mxt_9x60_wvga/production/_ext/1195110755/legato_widget_label.o
                0x23f1a518                leLabelWidget_New
 .text.nextState
                0x23f1a534      0x100 build/lcdc_rgba888_mxt_9x60_wvga/production/_ext/1195110755/legato_widget_label_skin_classic.o
 .text.drawBorder
                0x23f1a634       0x4c build/lcdc_rgba888_mxt_9x60_wvga/production/_ext/1195110755/legato_widget_label_skin_classic.o
 .text.drawBackground
                0x23f1a680       0x24 build/lcdc_rgba888_mxt_9x60_wvga/production/_ext/1195110755/legato_widget_label_skin_classic.o
 .text._leLabelWidget_GetTextRects
                0x23f1a6a4      0x110 build/lcdc_rgba888_mxt_9x60_wvga/production/_ext/1195110755/legato_widget_label_skin_classic.o
                0x23f1a6a4                _leLabelWidget_GetTextRects
 .text.drawString
                0x23f1a7b4       0x98 build/lcdc_rgba888_mxt_9x60_wvga/production/_ext/1195110755/legato_widget_label_skin_classic.o
 .text._leLabelWidget_Paint
                0x23f1a84c       0x44 build/lcdc_rgba888_mxt_9x60_wvga/production/_ext/1195110755/legato_widget_label_skin_classic.o
                0x23f1a84c                _leLabelWidget_Paint
 .text._leRectangleWidget_GetThickness
                0x23f1a890        0x8 build/lcdc_rgba888_mxt_9x60_wvga/production/_ext/337100648/legato_widget_rectangle.o
 .text._leRectangleWidget_SetThickness
                0x23f1a898       0x44 build/lcdc_rgba888_mxt_9x60_wvga/production/_ext/337100648/legato_widget_rectangle.o
 .text._leRectangleWidget_Destructor
                0x23f1a8dc        0xc build/lcdc_rgba888_mxt_9x60_wvga/production/_ext/337100648/legato_widget_rectangle.o
 .text.leRectangleWidget_Constructor
                0x23f1a8e8       0x4c build/lcdc_rgba888_mxt_9x60_wvga/production/_ext/337100648/legato_widget_rectangle.o
                0x23f1a8e8                leRectangleWidget_Constructor
 .text.leRectangleWidget_New
                0x23f1a934       0x24 build/lcdc_rgba888_mxt_9x60_wvga/production/_ext/337100648/legato_widget_rectangle.o
                0x23f1a934                leRectangleWidget_New
 .text.nextState
                0x23f1a958       0xec build/lcdc_rgba888_mxt_9x60_wvga/production/_ext/337100648/legato_widget_rectangle_skin_classic.o
 .text.drawBorder
                0x23f1aa44       0x4c build/lcdc_rgba888_mxt_9x60_wvga/production/_ext/337100648/legato_widget_rectangle_skin_classic.o
 .text.drawEdge
                0x23f1aa90      0x14c build/lcdc_rgba888_mxt_9x60_wvga/production/_ext/337100648/legato_widget_rectangle_skin_classic.o
 .text.drawBackground
                0x23f1abdc       0x24 build/lcdc_rgba888_mxt_9x60_wvga/production/_ext/337100648/legato_widget_rectangle_skin_classic.o
 .text._leRectangleWidget_InvalidateRect
                0x23f1ac00      0x130 build/lcdc_rgba888_mxt_9x60_wvga/production/_ext/337100648/legato_widget_rectangle_skin_classic.o
                0x23f1ac00                _leRectangleWidget_InvalidateRect
 .text._leRectangleWidget_Paint
                0x23f1ad30       0x44 build/lcdc_rgba888_mxt_9x60_wvga/production/_ext/337100648/legato_widget_rectangle_skin_classic.o
                0x23f1ad30                _leRectangleWidget_Paint
 .text.drawBorder
                0x23f1ad74       0x54 build/lcdc_rgba888_mxt_9x60_wvga/production/_ext/261620856/legato_widget_skin_classic.o
 .text.drawBackground
                0x23f1adc8       0xb8 build/lcdc_rgba888_mxt_9x60_wvga/production/_ext/261620856/legato_widget_skin_classic.o
 .text._leWidget_Paint
                0x23f1ae80       0x7c build/lcdc_rgba888_mxt_9x60_wvga/production/_ext/261620856/legato_widget_skin_classic.o
                0x23f1ae80                _leWidget_Paint
 .text._leWidget_GetType
                0x23f1aefc        0x8 build/lcdc_rgba888_mxt_9x60_wvga/production/_ext/261620856/legato_widget.o
                0x23f1aefc                _leWidget_GetType
 .text._leWidget_GetX
                0x23f1af04        0x8 build/lcdc_rgba888_mxt_9x60_wvga/production/_ext/261620856/legato_widget.o
                0x23f1af04                _leWidget_GetX
 .text._leWidget_SetX
                0x23f1af0c       0x80 build/lcdc_rgba888_mxt_9x60_wvga/production/_ext/261620856/legato_widget.o
                0x23f1af0c                _leWidget_SetX
 .text._leWidget_GetY
                0x23f1af8c        0x8 build/lcdc_rgba888_mxt_9x60_wvga/production/_ext/261620856/legato_widget.o
                0x23f1af8c                _leWidget_GetY
 .text._leWidget_SetY
                0x23f1af94       0x80 build/lcdc_rgba888_mxt_9x60_wvga/production/_ext/261620856/legato_widget.o
                0x23f1af94                _leWidget_SetY
 .text._leWidget_SetPosition
                0x23f1b014       0xd0 build/lcdc_rgba888_mxt_9x60_wvga/production/_ext/261620856/legato_widget.o
                0x23f1b014                _leWidget_SetPosition
 .text._leWidget_Translate
                0x23f1b0e4       0xcc build/lcdc_rgba888_mxt_9x60_wvga/production/_ext/261620856/legato_widget.o
                0x23f1b0e4                _leWidget_Translate
 .text._leWidget_GetWidth
                0x23f1b1b0        0x8 build/lcdc_rgba888_mxt_9x60_wvga/production/_ext/261620856/legato_widget.o
                0x23f1b1b0                _leWidget_GetWidth
 .text._leWidget_SetWidth
                0x23f1b1b8       0xb8 build/lcdc_rgba888_mxt_9x60_wvga/production/_ext/261620856/legato_widget.o
                0x23f1b1b8                _leWidget_SetWidth
 .text._leWidget_GetHeight
                0x23f1b270        0x8 build/lcdc_rgba888_mxt_9x60_wvga/production/_ext/261620856/legato_widget.o
                0x23f1b270                _leWidget_GetHeight
 .text._leWidget_SetHeight
                0x23f1b278       0xb8 build/lcdc_rgba888_mxt_9x60_wvga/production/_ext/261620856/legato_widget.o
                0x23f1b278                _leWidget_SetHeight
 .text._leWidget_SetSize
                0x23f1b330       0xe8 build/lcdc_rgba888_mxt_9x60_wvga/production/_ext/261620856/legato_widget.o
                0x23f1b330                _leWidget_SetSize
 .text._leWidget_GetAlphaEnabled
                0x23f1b418       0x10 build/lcdc_rgba888_mxt_9x60_wvga/production/_ext/261620856/legato_widget.o
                0x23f1b418                _leWidget_GetAlphaEnabled
 .text._leWidget_GetCumulativeAlphaEnabled
                0x23f1b428       0x44 build/lcdc_rgba888_mxt_9x60_wvga/production/_ext/261620856/legato_widget.o
                0x23f1b428                _leWidget_GetCumulativeAlphaEnabled
 .text._leWidget_SetAlphaEnabled
                0x23f1b46c       0x44 build/lcdc_rgba888_mxt_9x60_wvga/production/_ext/261620856/legato_widget.o
                0x23f1b46c                _leWidget_SetAlphaEnabled
 .text._leWidget_GetAlphaAmount
                0x23f1b4b0        0x8 build/lcdc_rgba888_mxt_9x60_wvga/production/_ext/261620856/legato_widget.o
                0x23f1b4b0                _leWidget_GetAlphaAmount
 .text._leWidget_SetAlphaAmount
                0x23f1b4b8       0x38 build/lcdc_rgba888_mxt_9x60_wvga/production/_ext/261620856/legato_widget.o
                0x23f1b4b8                _leWidget_SetAlphaAmount
 .text._leWidget_IsOpaque
                0x23f1b4f0       0x4c build/lcdc_rgba888_mxt_9x60_wvga/production/_ext/261620856/legato_widget.o
                0x23f1b4f0                _leWidget_IsOpaque
 .text._leWidget_GetEnabled
                0x23f1b53c        0xc build/lcdc_rgba888_mxt_9x60_wvga/production/_ext/261620856/legato_widget.o
                0x23f1b53c                _leWidget_GetEnabled
 .text._leWidget_SetEnabled
                0x23f1b548       0x40 build/lcdc_rgba888_mxt_9x60_wvga/production/_ext/261620856/legato_widget.o
                0x23f1b548                _leWidget_SetEnabled
 .text._leWidget_GetVisible
                0x23f1b588       0x10 build/lcdc_rgba888_mxt_9x60_wvga/production/_ext/261620856/legato_widget.o
                0x23f1b588                _leWidget_GetVisible
 .text._leWidget_SetVisible
                0x23f1b598       0x44 build/lcdc_rgba888_mxt_9x60_wvga/production/_ext/261620856/legato_widget.o
                0x23f1b598                _leWidget_SetVisible
 .text._leWidget_LocalRect
                0x23f1b5dc       0x28 build/lcdc_rgba888_mxt_9x60_wvga/production/_ext/261620856/legato_widget.o
                0x23f1b5dc                _leWidget_LocalRect
 .text._leWidget_RectToParentSpace
                0x23f1b604       0x40 build/lcdc_rgba888_mxt_9x60_wvga/production/_ext/261620856/legato_widget.o
                0x23f1b604                _leWidget_RectToParentSpace
 .text.isAncestorOf
                0x23f1b644       0x44 build/lcdc_rgba888_mxt_9x60_wvga/production/_ext/261620856/legato_widget.o
 .text._leWidget_GetRootWidget
                0x23f1b688       0x24 build/lcdc_rgba888_mxt_9x60_wvga/production/_ext/261620856/legato_widget.o
                0x23f1b688                _leWidget_GetRootWidget
 .text._leWidget_SetParent
                0x23f1b6ac       0x4c build/lcdc_rgba888_mxt_9x60_wvga/production/_ext/261620856/legato_widget.o
                0x23f1b6ac                _leWidget_SetParent
 .text._leWidget_GetChildCount
                0x23f1b6f8        0x8 build/lcdc_rgba888_mxt_9x60_wvga/production/_ext/261620856/legato_widget.o
                0x23f1b6f8                _leWidget_GetChildCount
 .text._leWidget_GetChildAtIndex
                0x23f1b700       0x20 build/lcdc_rgba888_mxt_9x60_wvga/production/_ext/261620856/legato_widget.o
                0x23f1b700                _leWidget_GetChildAtIndex
 .text._leWidget_ContainsDescendant
                0x23f1b720       0x84 build/lcdc_rgba888_mxt_9x60_wvga/production/_ext/261620856/legato_widget.o
                0x23f1b720                _leWidget_ContainsDescendant
 .text._leWidget_GetScheme
                0x23f1b7a4        0x8 build/lcdc_rgba888_mxt_9x60_wvga/production/_ext/261620856/legato_widget.o
                0x23f1b7a4                _leWidget_GetScheme
 .text._leWidget_SetScheme
                0x23f1b7ac       0x30 build/lcdc_rgba888_mxt_9x60_wvga/production/_ext/261620856/legato_widget.o
                0x23f1b7ac                _leWidget_SetScheme
 .text._leWidget_GetBorderType
                0x23f1b7dc        0x8 build/lcdc_rgba888_mxt_9x60_wvga/production/_ext/261620856/legato_widget.o
                0x23f1b7dc                _leWidget_GetBorderType
 .text._leWidget_SetBorderType
                0x23f1b7e4       0x30 build/lcdc_rgba888_mxt_9x60_wvga/production/_ext/261620856/legato_widget.o
                0x23f1b7e4                _leWidget_SetBorderType
 .text._leWidget_GetBackgroundType
                0x23f1b814        0x8 build/lcdc_rgba888_mxt_9x60_wvga/production/_ext/261620856/legato_widget.o
                0x23f1b814                _leWidget_GetBackgroundType
 .text._leWidget_SetBackgroundType
                0x23f1b81c       0x30 build/lcdc_rgba888_mxt_9x60_wvga/production/_ext/261620856/legato_widget.o
                0x23f1b81c                _leWidget_SetBackgroundType
 .text._leWidget_GetHAlignment
                0x23f1b84c        0x8 build/lcdc_rgba888_mxt_9x60_wvga/production/_ext/261620856/legato_widget.o
                0x23f1b84c                _leWidget_GetHAlignment
 .text._leWidget_SetHAlignment
                0x23f1b854       0x48 build/lcdc_rgba888_mxt_9x60_wvga/production/_ext/261620856/legato_widget.o
                0x23f1b854                _leWidget_SetHAlignment
 .text._leWidget_GetVAlignment
                0x23f1b89c        0x8 build/lcdc_rgba888_mxt_9x60_wvga/production/_ext/261620856/legato_widget.o
                0x23f1b89c                _leWidget_GetVAlignment
 .text._leWidget_SetVAlignment
                0x23f1b8a4       0x48 build/lcdc_rgba888_mxt_9x60_wvga/production/_ext/261620856/legato_widget.o
                0x23f1b8a4                _leWidget_SetVAlignment
 .text._leWidget_GetMargins
                0x23f1b8ec       0x2c build/lcdc_rgba888_mxt_9x60_wvga/production/_ext/261620856/legato_widget.o
                0x23f1b8ec                _leWidget_GetMargins
 .text._leWidget_SetMargins
                0x23f1b918       0x64 build/lcdc_rgba888_mxt_9x60_wvga/production/_ext/261620856/legato_widget.o
                0x23f1b918                _leWidget_SetMargins
 .text._leWidget_GetCornerRadius
                0x23f1b97c        0x8 build/lcdc_rgba888_mxt_9x60_wvga/production/_ext/261620856/legato_widget.o
                0x23f1b97c                _leWidget_GetCornerRadius
 .text._leWidget_SetCornerRadius
                0x23f1b984       0x44 build/lcdc_rgba888_mxt_9x60_wvga/production/_ext/261620856/legato_widget.o
                0x23f1b984                _leWidget_SetCornerRadius
 .text._leWidget_Invalidate
                0x23f1b9c8       0x38 build/lcdc_rgba888_mxt_9x60_wvga/production/_ext/261620856/legato_widget.o
                0x23f1b9c8                _leWidget_Invalidate
 .text._leWidget_InvalidateContents
                0x23f1ba00        0x4 build/lcdc_rgba888_mxt_9x60_wvga/production/_ext/261620856/legato_widget.o
                0x23f1ba00                _leWidget_InvalidateContents
 .text._leWidget_InstallEventFilter
                0x23f1ba04       0x68 build/lcdc_rgba888_mxt_9x60_wvga/production/_ext/261620856/legato_widget.o
                0x23f1ba04                _leWidget_InstallEventFilter
 .text._leWidget_RemoveEventFilter
                0x23f1ba6c       0x60 build/lcdc_rgba888_mxt_9x60_wvga/production/_ext/261620856/legato_widget.o
                0x23f1ba6c                _leWidget_RemoveEventFilter
 .text._leWidget_TouchDownEvent
                0x23f1bacc        0x4 build/lcdc_rgba888_mxt_9x60_wvga/production/_ext/261620856/legato_widget.o
                0x23f1bacc                _leWidget_TouchDownEvent
 .text._leWidget_TouchUpEvent
                0x23f1bad0        0x4 build/lcdc_rgba888_mxt_9x60_wvga/production/_ext/261620856/legato_widget.o
                0x23f1bad0                _leWidget_TouchUpEvent
 .text._leWidget_TouchMoveEvent
                0x23f1bad4        0x4 build/lcdc_rgba888_mxt_9x60_wvga/production/_ext/261620856/legato_widget.o
                0x23f1bad4                _leWidget_TouchMoveEvent
 .text._leWidget_MoveEvent
                0x23f1bad8        0x4 build/lcdc_rgba888_mxt_9x60_wvga/production/_ext/261620856/legato_widget.o
                0x23f1bad8                _leWidget_MoveEvent
 .text._leWidget_ResizeEvent
                0x23f1badc        0x4 build/lcdc_rgba888_mxt_9x60_wvga/production/_ext/261620856/legato_widget.o
                0x23f1badc                _leWidget_ResizeEvent
 .text._leWidget_FocusLostEvent
                0x23f1bae0        0x4 build/lcdc_rgba888_mxt_9x60_wvga/production/_ext/261620856/legato_widget.o
                0x23f1bae0                _leWidget_FocusLostEvent
 .text._leWidget_FocusGainedEvent
                0x23f1bae4        0x4 build/lcdc_rgba888_mxt_9x60_wvga/production/_ext/261620856/legato_widget.o
                0x23f1bae4                _leWidget_FocusGainedEvent
 .text._leWidget_LanguageChangeEvent
                0x23f1bae8        0x4 build/lcdc_rgba888_mxt_9x60_wvga/production/_ext/261620856/legato_widget.o
                0x23f1bae8                _leWidget_LanguageChangeEvent
 .text.filterEvent
                0x23f1baec       0x54 build/lcdc_rgba888_mxt_9x60_wvga/production/_ext/261620856/legato_widget.o
 .text._leWidget_HandleEvent
                0x23f1bb40      0x1a0 build/lcdc_rgba888_mxt_9x60_wvga/production/_ext/261620856/legato_widget.o
                0x23f1bb40                _leWidget_HandleEvent
 .text._leWidget_ValidateChildren
                0x23f1bce0       0x54 build/lcdc_rgba888_mxt_9x60_wvga/production/_ext/261620856/legato_widget.o
                0x23f1bce0                _leWidget_ValidateChildren
 .text._leWidget_IncreaseDirtyState
                0x23f1bd34       0x10 build/lcdc_rgba888_mxt_9x60_wvga/production/_ext/261620856/legato_widget.o
                0x23f1bd34                _leWidget_IncreaseDirtyState
 .text._leWidget_SetDirtyState
                0x23f1bd44        0x8 build/lcdc_rgba888_mxt_9x60_wvga/production/_ext/261620856/legato_widget.o
                0x23f1bd44                _leWidget_SetDirtyState
 .text._leWidget_ClearDirtyState
                0x23f1bd4c        0xc build/lcdc_rgba888_mxt_9x60_wvga/production/_ext/261620856/legato_widget.o
                0x23f1bd4c                _leWidget_ClearDirtyState
 .text._leWidget_Update
                0x23f1bd58        0x4 build/lcdc_rgba888_mxt_9x60_wvga/production/_ext/261620856/legato_widget.o
                0x23f1bd58                _leWidget_Update
 .text._leWidget_HasFocus
                0x23f1bd5c       0x20 build/lcdc_rgba888_mxt_9x60_wvga/production/_ext/261620856/legato_widget.o
                0x23f1bd5c                _leWidget_HasFocus
 .text._leWidget_SetFocus
                0x23f1bd7c        0xc build/lcdc_rgba888_mxt_9x60_wvga/production/_ext/261620856/legato_widget.o
                0x23f1bd7c                _leWidget_SetFocus
 .text._leWidget_Destructor
                0x23f1bd88       0x98 build/lcdc_rgba888_mxt_9x60_wvga/production/_ext/261620856/legato_widget.o
                0x23f1bd88                _leWidget_Destructor
 .text._leWidget_RemoveAllChildren
                0x23f1be20       0x74 build/lcdc_rgba888_mxt_9x60_wvga/production/_ext/261620856/legato_widget.o
                0x23f1be20                _leWidget_RemoveAllChildren
 .text._leWidget_Resize
                0x23f1be94      0x104 build/lcdc_rgba888_mxt_9x60_wvga/production/_ext/261620856/legato_widget.o
                0x23f1be94                _leWidget_Resize
 .text._leWidget_RectToScreenSpace
                0x23f1bf98       0x4c build/lcdc_rgba888_mxt_9x60_wvga/production/_ext/261620856/legato_widget.o
                0x23f1bf98                _leWidget_RectToScreenSpace
 .text._leWidget_GetCumulativeAlphaAmount
                0x23f1bfe4       0x94 build/lcdc_rgba888_mxt_9x60_wvga/production/_ext/261620856/legato_widget.o
                0x23f1bfe4                _leWidget_GetCumulativeAlphaAmount
 .text._leWidget_AddChild
                0x23f1c078       0x8c build/lcdc_rgba888_mxt_9x60_wvga/production/_ext/261620856/legato_widget.o
                0x23f1c078                _leWidget_AddChild
 .text._leWidget_InsertChild
                0x23f1c104       0x94 build/lcdc_rgba888_mxt_9x60_wvga/production/_ext/261620856/legato_widget.o
                0x23f1c104                _leWidget_InsertChild
 .text._leWidget_RemoveChild
                0x23f1c198       0x58 build/lcdc_rgba888_mxt_9x60_wvga/production/_ext/261620856/legato_widget.o
                0x23f1c198                _leWidget_RemoveChild
 .text._leWidget_SetChildIndex
                0x23f1c1f0       0x44 build/lcdc_rgba888_mxt_9x60_wvga/production/_ext/261620856/legato_widget.o
                0x23f1c1f0                _leWidget_SetChildIndex
 .text._leWidget_RemoveChildAt
                0x23f1c234       0x58 build/lcdc_rgba888_mxt_9x60_wvga/production/_ext/261620856/legato_widget.o
                0x23f1c234                _leWidget_RemoveChildAt
 .text._leWidget_GetIndexOfChild
                0x23f1c28c       0x24 build/lcdc_rgba888_mxt_9x60_wvga/production/_ext/261620856/legato_widget.o
                0x23f1c28c                _leWidget_GetIndexOfChild
 .text._leWidget_InvalidateBorderAreas
                0x23f1c2b0        0xc build/lcdc_rgba888_mxt_9x60_wvga/production/_ext/261620856/legato_widget.o
                0x23f1c2b0                _leWidget_InvalidateBorderAreas
 .text._leWidget_DamageArea
                0x23f1c2bc       0x30 build/lcdc_rgba888_mxt_9x60_wvga/production/_ext/261620856/legato_widget.o
                0x23f1c2bc                _leWidget_DamageArea
 .text.leWidget_Constructor
                0x23f1c2ec       0xb8 build/lcdc_rgba888_mxt_9x60_wvga/production/_ext/261620856/legato_widget.o
                0x23f1c2ec                leWidget_Constructor
 .text.leWidget_New
                0x23f1c3a4       0x24 build/lcdc_rgba888_mxt_9x60_wvga/production/_ext/261620856/legato_widget.o
                0x23f1c3a4                leWidget_New
 .text.leWidget_Delete
                0x23f1c3c8       0x28 build/lcdc_rgba888_mxt_9x60_wvga/production/_ext/261620856/legato_widget.o
                0x23f1c3c8                leWidget_Delete
 .text.leWidget_SkinClassic_FillRoundCornerRect
                0x23f1c3f0      0x2b4 build/lcdc_rgba888_mxt_9x60_wvga/production/_ext/261620856/legato_widget_skin_classic_common.o
                0x23f1c3f0                leWidget_SkinClassic_FillRoundCornerRect
 .text.leWidget_SkinClassic_DrawBackground
                0x23f1c6a4       0x68 build/lcdc_rgba888_mxt_9x60_wvga/production/_ext/261620856/legato_widget_skin_classic_common.o
                0x23f1c6a4                leWidget_SkinClassic_DrawBackground
 .text.leWidget_SkinClassic_DrawRoundCornerBackground
                0x23f1c70c       0x40 build/lcdc_rgba888_mxt_9x60_wvga/production/_ext/261620856/legato_widget_skin_classic_common.o
                0x23f1c70c                leWidget_SkinClassic_DrawRoundCornerBackground
 .text.leWidget_SkinClassic_DrawStandardBackground
                0x23f1c74c       0x38 build/lcdc_rgba888_mxt_9x60_wvga/production/_ext/261620856/legato_widget_skin_classic_common.o
                0x23f1c74c                leWidget_SkinClassic_DrawStandardBackground
 .text.leWidget_SkinClassic_DrawRoundCornerLineBorder
                0x23f1c784      0x250 build/lcdc_rgba888_mxt_9x60_wvga/production/_ext/261620856/legato_widget_skin_classic_common.o
                0x23f1c784                leWidget_SkinClassic_DrawRoundCornerLineBorder
 .text.leWidget_SkinClassic_DrawLineBorder
                0x23f1c9d4       0xa4 build/lcdc_rgba888_mxt_9x60_wvga/production/_ext/261620856/legato_widget_skin_classic_common.o
                0x23f1c9d4                leWidget_SkinClassic_DrawLineBorder
 .text.leWidget_SkinClassic_Draw2x2BeveledBorder
                0x23f1ca78      0x150 build/lcdc_rgba888_mxt_9x60_wvga/production/_ext/261620856/legato_widget_skin_classic_common.o
                0x23f1ca78                leWidget_SkinClassic_Draw2x2BeveledBorder
 .text.leWidget_SkinClassic_Draw1x2BeveledBorder
                0x23f1cbc8      0x104 build/lcdc_rgba888_mxt_9x60_wvga/production/_ext/261620856/legato_widget_skin_classic_common.o
                0x23f1cbc8                leWidget_SkinClassic_Draw1x2BeveledBorder
 .text.leWidget_SkinClassic_DrawStandardLineBorder
                0x23f1cccc       0x74 build/lcdc_rgba888_mxt_9x60_wvga/production/_ext/261620856/legato_widget_skin_classic_common.o
                0x23f1cccc                leWidget_SkinClassic_DrawStandardLineBorder
 .text.leWidget_SkinClassic_DrawStandardRaisedBorder
                0x23f1cd40       0x80 build/lcdc_rgba888_mxt_9x60_wvga/production/_ext/261620856/legato_widget_skin_classic_common.o
                0x23f1cd40                leWidget_SkinClassic_DrawStandardRaisedBorder
 .text.leWidget_SkinClassic_DrawStandardLoweredBorder
                0x23f1cdc0       0x80 build/lcdc_rgba888_mxt_9x60_wvga/production/_ext/261620856/legato_widget_skin_classic_common.o
                0x23f1cdc0                leWidget_SkinClassic_DrawStandardLoweredBorder
 .text.leWidget_SkinClassic_DrawStandardHybridBorder
                0x23f1ce40       0x6c build/lcdc_rgba888_mxt_9x60_wvga/production/_ext/261620856/legato_widget_skin_classic_common.o
                0x23f1ce40                leWidget_SkinClassic_DrawStandardHybridBorder
 .text.leWidget_SkinClassic_InvalidateBorderAreas
                0x23f1ceac      0x1a0 build/lcdc_rgba888_mxt_9x60_wvga/production/_ext/261620856/legato_widget_skin_classic_common.o
                0x23f1ceac                leWidget_SkinClassic_InvalidateBorderAreas
 .text.AIC_INT_Initialize
                0x23f1d04c      0x118 build/lcdc_rgba888_mxt_9x60_wvga/production/_ext/4986847/plib_aic.o
                0x23f1d04c                AIC_INT_Initialize
 .text.AIC_INT_IrqDisable
                0x23f1d164       0x30 build/lcdc_rgba888_mxt_9x60_wvga/production/_ext/4986847/plib_aic.o
                0x23f1d164                AIC_INT_IrqDisable
 .text.AIC_INT_IrqRestore
                0x23f1d194       0x28 build/lcdc_rgba888_mxt_9x60_wvga/production/_ext/4986847/plib_aic.o
                0x23f1d194                AIC_INT_IrqRestore
 .text.CLK_Initialize
                0x23f1d1bc       0xb4 build/lcdc_rgba888_mxt_9x60_wvga/production/_ext/4988870/plib_clk.o
                0x23f1d1bc                CLK_Initialize
 .text.FLEXCOM6_TWI_InitiateRead
                0x23f1d270       0x60 build/lcdc_rgba888_mxt_9x60_wvga/production/_ext/813772974/plib_flexcom6_twi_master.o
 .text.FLEXCOM6_TWI_InitiateTransfer
                0x23f1d2d0      0x15c build/lcdc_rgba888_mxt_9x60_wvga/production/_ext/813772974/plib_flexcom6_twi_master.o
 .text.FLEXCOM6_TWI_Initialize
                0x23f1d42c       0x6c build/lcdc_rgba888_mxt_9x60_wvga/production/_ext/813772974/plib_flexcom6_twi_master.o
                0x23f1d42c                FLEXCOM6_TWI_Initialize
 .text.FLEXCOM6_TWI_CallbackRegister
                0x23f1d498       0x18 build/lcdc_rgba888_mxt_9x60_wvga/production/_ext/813772974/plib_flexcom6_twi_master.o
                0x23f1d498                FLEXCOM6_TWI_CallbackRegister
 .text.FLEXCOM6_TWI_Read
                0x23f1d4b0       0x78 build/lcdc_rgba888_mxt_9x60_wvga/production/_ext/813772974/plib_flexcom6_twi_master.o
                0x23f1d4b0                FLEXCOM6_TWI_Read
 .text.FLEXCOM6_TWI_Write
                0x23f1d528       0x78 build/lcdc_rgba888_mxt_9x60_wvga/production/_ext/813772974/plib_flexcom6_twi_master.o
                0x23f1d528                FLEXCOM6_TWI_Write
 .text.FLEXCOM6_TWI_WriteRead
                0x23f1d5a0       0x78 build/lcdc_rgba888_mxt_9x60_wvga/production/_ext/813772974/plib_flexcom6_twi_master.o
                0x23f1d5a0                FLEXCOM6_TWI_WriteRead
 .text.FLEXCOM6_TWI_TransferAbort
                0x23f1d618       0x38 build/lcdc_rgba888_mxt_9x60_wvga/production/_ext/813772974/plib_flexcom6_twi_master.o
                0x23f1d618                FLEXCOM6_TWI_TransferAbort
 .text.FLEXCOM6_TWI_ErrorGet
                0x23f1d650       0x18 build/lcdc_rgba888_mxt_9x60_wvga/production/_ext/813772974/plib_flexcom6_twi_master.o
                0x23f1d650                FLEXCOM6_TWI_ErrorGet
 .text.FLEXCOM6_TWI_TransferSetup
                0x23f1d668       0xdc build/lcdc_rgba888_mxt_9x60_wvga/production/_ext/813772974/plib_flexcom6_twi_master.o
                0x23f1d668                FLEXCOM6_TWI_TransferSetup
 .text.FLEXCOM6_InterruptHandler
                0x23f1d744      0x2c8 build/lcdc_rgba888_mxt_9x60_wvga/production/_ext/813772974/plib_flexcom6_twi_master.o
                0x23f1d744                FLEXCOM6_InterruptHandler
 .text.LCDC_SetPWMClockSourceSelection
                0x23f1da0c       0x2c build/lcdc_rgba888_mxt_9x60_wvga/production/_ext/154914322/plib_lcdc.o
                0x23f1da0c                LCDC_SetPWMClockSourceSelection
 .text.LCDC_SetLayerClockGatingDisable
                0x23f1da38       0x90 build/lcdc_rgba888_mxt_9x60_wvga/production/_ext/154914322/plib_lcdc.o
                0x23f1da38                LCDC_SetLayerClockGatingDisable
 .text.LCDC_SetClockDivider
                0x23f1dac8       0x28 build/lcdc_rgba888_mxt_9x60_wvga/production/_ext/154914322/plib_lcdc.o
                0x23f1dac8                LCDC_SetClockDivider
 .text.LCDC_SetHSYNCPulseWidth
                0x23f1daf0       0x28 build/lcdc_rgba888_mxt_9x60_wvga/production/_ext/154914322/plib_lcdc.o
                0x23f1daf0                LCDC_SetHSYNCPulseWidth
 .text.LCDC_SetVSYNCPulseWidth
                0x23f1db18       0x2c build/lcdc_rgba888_mxt_9x60_wvga/production/_ext/154914322/plib_lcdc.o
                0x23f1db18                LCDC_SetVSYNCPulseWidth
 .text.LCDC_SetVerticalFrontPorchWidth
                0x23f1db44       0x2c build/lcdc_rgba888_mxt_9x60_wvga/production/_ext/154914322/plib_lcdc.o
                0x23f1db44                LCDC_SetVerticalFrontPorchWidth
 .text.LCDC_SetVerticalBackPorchWidth
                0x23f1db70       0x30 build/lcdc_rgba888_mxt_9x60_wvga/production/_ext/154914322/plib_lcdc.o
                0x23f1db70                LCDC_SetVerticalBackPorchWidth
 .text.LCDC_SetHorizontalFrontPorchWidth
                0x23f1dba0       0x2c build/lcdc_rgba888_mxt_9x60_wvga/production/_ext/154914322/plib_lcdc.o
                0x23f1dba0                LCDC_SetHorizontalFrontPorchWidth
 .text.LCDC_SetHorizontalBackPorchWidth
                0x23f1dbcc       0x30 build/lcdc_rgba888_mxt_9x60_wvga/production/_ext/154914322/plib_lcdc.o
                0x23f1dbcc                LCDC_SetHorizontalBackPorchWidth
 .text.LCDC_SetNumActiveRows
                0x23f1dbfc       0x30 build/lcdc_rgba888_mxt_9x60_wvga/production/_ext/154914322/plib_lcdc.o
                0x23f1dbfc                LCDC_SetNumActiveRows
 .text.LCDC_SetNumPixelsPerLine
                0x23f1dc2c       0x2c build/lcdc_rgba888_mxt_9x60_wvga/production/_ext/154914322/plib_lcdc.o
                0x23f1dc2c                LCDC_SetNumPixelsPerLine
 .text.LCDC_SetHSYNCPolarity
                0x23f1dc58       0x24 build/lcdc_rgba888_mxt_9x60_wvga/production/_ext/154914322/plib_lcdc.o
                0x23f1dc58                LCDC_SetHSYNCPolarity
 .text.LCDC_SetVSYNCPolarity
                0x23f1dc7c       0x2c build/lcdc_rgba888_mxt_9x60_wvga/production/_ext/154914322/plib_lcdc.o
                0x23f1dc7c                LCDC_SetVSYNCPolarity
 .text.LCDC_SetVSYNCPulseStart
                0x23f1dca8       0x2c build/lcdc_rgba888_mxt_9x60_wvga/production/_ext/154914322/plib_lcdc.o
                0x23f1dca8                LCDC_SetVSYNCPulseStart
 .text.LCDC_SetDisplaySignalSynchronization
                0x23f1dcd4       0x20 build/lcdc_rgba888_mxt_9x60_wvga/production/_ext/154914322/plib_lcdc.o
                0x23f1dcd4                LCDC_SetDisplaySignalSynchronization
 .text.LCDC_SetOutputMode
                0x23f1dcf4       0x24 build/lcdc_rgba888_mxt_9x60_wvga/production/_ext/154914322/plib_lcdc.o
                0x23f1dcf4                LCDC_SetOutputMode
 .text.LCDC_SetDisplayGuardTime
                0x23f1dd18       0x24 build/lcdc_rgba888_mxt_9x60_wvga/production/_ext/154914322/plib_lcdc.o
                0x23f1dd18                LCDC_SetDisplayGuardTime
 .text.LCDC_SetPWMPrescaler
                0x23f1dd3c       0x20 build/lcdc_rgba888_mxt_9x60_wvga/production/_ext/154914322/plib_lcdc.o
                0x23f1dd3c                LCDC_SetPWMPrescaler
 .text.LCDC_SetPWMSignalPolarity
                0x23f1dd5c       0x2c build/lcdc_rgba888_mxt_9x60_wvga/production/_ext/154914322/plib_lcdc.o
                0x23f1dd5c                LCDC_SetPWMSignalPolarity
 .text.LCDC_SetPWMCompareValue
                0x23f1dd88       0x20 build/lcdc_rgba888_mxt_9x60_wvga/production/_ext/154914322/plib_lcdc.o
                0x23f1dd88                LCDC_SetPWMCompareValue
 .text.LCDC_SetPixelClockEnable
                0x23f1dda8       0x28 build/lcdc_rgba888_mxt_9x60_wvga/production/_ext/154914322/plib_lcdc.o
                0x23f1dda8                LCDC_SetPixelClockEnable
 .text.LCDC_SetSYNCEnable
                0x23f1ddd0       0x28 build/lcdc_rgba888_mxt_9x60_wvga/production/_ext/154914322/plib_lcdc.o
                0x23f1ddd0                LCDC_SetSYNCEnable
 .text.LCDC_SetDISPSignalEnable
                0x23f1ddf8       0x28 build/lcdc_rgba888_mxt_9x60_wvga/production/_ext/154914322/plib_lcdc.o
                0x23f1ddf8                LCDC_SetDISPSignalEnable
 .text.LCDC_SetPWMEnable
                0x23f1de20       0x28 build/lcdc_rgba888_mxt_9x60_wvga/production/_ext/154914322/plib_lcdc.o
                0x23f1de20                LCDC_SetPWMEnable
 .text.LCDC_WaitForSyncInProgress
                0x23f1de48       0x18 build/lcdc_rgba888_mxt_9x60_wvga/production/_ext/154914322/plib_lcdc.o
                0x23f1de48                LCDC_WaitForSyncInProgress
 .text.LCDC_WaitForClockRunning
                0x23f1de60       0x18 build/lcdc_rgba888_mxt_9x60_wvga/production/_ext/154914322/plib_lcdc.o
                0x23f1de60                LCDC_WaitForClockRunning
 .text.LCDC_WaitForSynchronization
                0x23f1de78       0x18 build/lcdc_rgba888_mxt_9x60_wvga/production/_ext/154914322/plib_lcdc.o
                0x23f1de78                LCDC_WaitForSynchronization
 .text.LCDC_WaitForDISPSignal
                0x23f1de90       0x18 build/lcdc_rgba888_mxt_9x60_wvga/production/_ext/154914322/plib_lcdc.o
                0x23f1de90                LCDC_WaitForDISPSignal
 .text.LCDC_SetSytemBusDMABurstEnable
                0x23f1dea8       0xc0 build/lcdc_rgba888_mxt_9x60_wvga/production/_ext/154914322/plib_lcdc.o
                0x23f1dea8                LCDC_SetSytemBusDMABurstEnable
 .text.LCDC_SetSytemBusDMABurstLength
                0x23f1df68       0xa0 build/lcdc_rgba888_mxt_9x60_wvga/production/_ext/154914322/plib_lcdc.o
                0x23f1df68                LCDC_SetSytemBusDMABurstLength
 .text.LCDC_SetRGBModeInput
                0x23f1e008       0xa0 build/lcdc_rgba888_mxt_9x60_wvga/production/_ext/154914322/plib_lcdc.o
                0x23f1e008                LCDC_SetRGBModeInput
 .text.LCDC_SetDMAHeadPointer
                0x23f1e0a8       0x80 build/lcdc_rgba888_mxt_9x60_wvga/production/_ext/154914322/plib_lcdc.o
                0x23f1e0a8                LCDC_SetDMAHeadPointer
 .text.LCDC_SetWindowPosition
                0x23f1e128       0x80 build/lcdc_rgba888_mxt_9x60_wvga/production/_ext/154914322/plib_lcdc.o
                0x23f1e128                LCDC_SetWindowPosition
 .text.LCDC_SetWindowSize
                0x23f1e1a8       0x98 build/lcdc_rgba888_mxt_9x60_wvga/production/_ext/154914322/plib_lcdc.o
                0x23f1e1a8                LCDC_SetWindowSize
 .text.LCDC_SetHorizStride
                0x23f1e240       0x50 build/lcdc_rgba888_mxt_9x60_wvga/production/_ext/154914322/plib_lcdc.o
                0x23f1e240                LCDC_SetHorizStride
 .text.LCDC_SetUseDMAPathEnable
                0x23f1e290       0xc0 build/lcdc_rgba888_mxt_9x60_wvga/production/_ext/154914322/plib_lcdc.o
                0x23f1e290                LCDC_SetUseDMAPathEnable
 .text.LCDC_SetDMAAddressRegister
                0x23f1e350       0x50 build/lcdc_rgba888_mxt_9x60_wvga/production/_ext/154914322/plib_lcdc.o
                0x23f1e350                LCDC_SetDMAAddressRegister
 .text.LCDC_SetDMADescriptorNextAddress
                0x23f1e3a0       0x50 build/lcdc_rgba888_mxt_9x60_wvga/production/_ext/154914322/plib_lcdc.o
                0x23f1e3a0                LCDC_SetDMADescriptorNextAddress
 .text.LCDC_SetTransferDescriptorFetchEnable
                0x23f1e3f0       0x80 build/lcdc_rgba888_mxt_9x60_wvga/production/_ext/154914322/plib_lcdc.o
                0x23f1e3f0                LCDC_SetTransferDescriptorFetchEnable
 .text.LCDC_UpdateOverlayAttributesEnable
                0x23f1e470       0x70 build/lcdc_rgba888_mxt_9x60_wvga/production/_ext/154914322/plib_lcdc.o
                0x23f1e470                LCDC_UpdateOverlayAttributesEnable
 .text.LCDC_SetChannelEnable
                0x23f1e4e0       0xbc build/lcdc_rgba888_mxt_9x60_wvga/production/_ext/154914322/plib_lcdc.o
                0x23f1e4e0                LCDC_SetChannelEnable
 .text.LCDC_SetBlenderOverlayLayerEnable
                0x23f1e59c       0x94 build/lcdc_rgba888_mxt_9x60_wvga/production/_ext/154914322/plib_lcdc.o
                0x23f1e59c                LCDC_SetBlenderOverlayLayerEnable
 .text.LCDC_SetBlenderDMALayerEnable
                0x23f1e630       0x94 build/lcdc_rgba888_mxt_9x60_wvga/production/_ext/154914322/plib_lcdc.o
                0x23f1e630                LCDC_SetBlenderDMALayerEnable
 .text.LCDC_SetBlenderLocalAlphaEnable
                0x23f1e6c4       0x94 build/lcdc_rgba888_mxt_9x60_wvga/production/_ext/154914322/plib_lcdc.o
                0x23f1e6c4                LCDC_SetBlenderLocalAlphaEnable
 .text.LCDC_SetBlenderIteratedColorEnable
                0x23f1e758       0x94 build/lcdc_rgba888_mxt_9x60_wvga/production/_ext/154914322/plib_lcdc.o
                0x23f1e758                LCDC_SetBlenderIteratedColorEnable
 .text.LCDC_SetBlenderUseIteratedColor
                0x23f1e7ec       0x94 build/lcdc_rgba888_mxt_9x60_wvga/production/_ext/154914322/plib_lcdc.o
                0x23f1e7ec                LCDC_SetBlenderUseIteratedColor
 .text.LCDC_UpdateAttribute
                0x23f1e880       0x70 build/lcdc_rgba888_mxt_9x60_wvga/production/_ext/154914322/plib_lcdc.o
                0x23f1e880                LCDC_UpdateAttribute
 .text.LCDC_IRQ_CallbackRegister
                0x23f1e8f0       0x14 build/lcdc_rgba888_mxt_9x60_wvga/production/_ext/154914322/plib_lcdc.o
                0x23f1e8f0                LCDC_IRQ_CallbackRegister
 .text.LCDC_IRQ_Enable
                0x23f1e904       0xd0 build/lcdc_rgba888_mxt_9x60_wvga/production/_ext/154914322/plib_lcdc.o
                0x23f1e904                LCDC_IRQ_Enable
 .text.LCDC_LAYER_IRQ_Enable
                0x23f1e9d4       0xb8 build/lcdc_rgba888_mxt_9x60_wvga/production/_ext/154914322/plib_lcdc.o
                0x23f1e9d4                LCDC_LAYER_IRQ_Enable
 .text.LCDC_LAYER_IRQ_Disable
                0x23f1ea8c       0xb8 build/lcdc_rgba888_mxt_9x60_wvga/production/_ext/154914322/plib_lcdc.o
                0x23f1ea8c                LCDC_LAYER_IRQ_Disable
 .text.LCDC_LAYER_IRQ_Status
                0x23f1eb44       0x58 build/lcdc_rgba888_mxt_9x60_wvga/production/_ext/154914322/plib_lcdc.o
                0x23f1eb44                LCDC_LAYER_IRQ_Status
 .text.LCDC_Interrupt_Handler
                0x23f1eb9c       0x28 build/lcdc_rgba888_mxt_9x60_wvga/production/_ext/154914322/plib_lcdc.o
                0x23f1eb9c                LCDC_Interrupt_Handler
 .text.icache_InvalidateAll
                0x23f1ebc4        0xc build/lcdc_rgba888_mxt_9x60_wvga/production/_ext/4998521/plib_mmu.o
                0x23f1ebc4                icache_InvalidateAll
 .text.icache_Enable
                0x23f1ebd0       0x20 build/lcdc_rgba888_mxt_9x60_wvga/production/_ext/4998521/plib_mmu.o
                0x23f1ebd0                icache_Enable
 .text.dcache_InvalidateAll
                0x23f1ebf0       0x38 build/lcdc_rgba888_mxt_9x60_wvga/production/_ext/4998521/plib_mmu.o
                0x23f1ebf0                dcache_InvalidateAll
 .text.dcache_Enable
                0x23f1ec28       0x20 build/lcdc_rgba888_mxt_9x60_wvga/production/_ext/4998521/plib_mmu.o
                0x23f1ec28                dcache_Enable
 .text.MMU_Initialize
                0x23f1ec48      0x244 build/lcdc_rgba888_mxt_9x60_wvga/production/_ext/4998521/plib_mmu.o
                0x23f1ec48                MMU_Initialize
 .text.PIO_Initialize
                0x23f1ee8c       0xf0 build/lcdc_rgba888_mxt_9x60_wvga/production/_ext/5001274/plib_pio.o
                0x23f1ee8c                PIO_Initialize
 .text.TC0_CH0_TimerInitialize
                0x23f1ef7c       0x38 build/lcdc_rgba888_mxt_9x60_wvga/production/_ext/1247087435/plib_tc0.o
                0x23f1ef7c                TC0_CH0_TimerInitialize
 .text.TC0_CH0_TimerStart
                0x23f1efb4       0x14 build/lcdc_rgba888_mxt_9x60_wvga/production/_ext/1247087435/plib_tc0.o
                0x23f1efb4                TC0_CH0_TimerStart
 .text.TC0_CH0_TimerStop
                0x23f1efc8       0x14 build/lcdc_rgba888_mxt_9x60_wvga/production/_ext/1247087435/plib_tc0.o
                0x23f1efc8                TC0_CH0_TimerStop
 .text.TC0_CH0_TimerFrequencyGet
                0x23f1efdc        0xc build/lcdc_rgba888_mxt_9x60_wvga/production/_ext/1247087435/plib_tc0.o
                0x23f1efdc                TC0_CH0_TimerFrequencyGet
 .text.TC0_CH0_TimerPeriodSet
                0x23f1efe8       0x10 build/lcdc_rgba888_mxt_9x60_wvga/production/_ext/1247087435/plib_tc0.o
                0x23f1efe8                TC0_CH0_TimerPeriodSet
 .text.TC0_CH0_TimerCompareSet
                0x23f1eff8       0x10 build/lcdc_rgba888_mxt_9x60_wvga/production/_ext/1247087435/plib_tc0.o
                0x23f1eff8                TC0_CH0_TimerCompareSet
 .text.TC0_CH0_TimerCounterGet
                0x23f1f008       0x10 build/lcdc_rgba888_mxt_9x60_wvga/production/_ext/1247087435/plib_tc0.o
                0x23f1f008                TC0_CH0_TimerCounterGet
 .text.TC0_CH0_TimerCallbackRegister
                0x23f1f018       0x14 build/lcdc_rgba888_mxt_9x60_wvga/production/_ext/1247087435/plib_tc0.o
                0x23f1f018                TC0_CH0_TimerCallbackRegister
 .text.TC0_CH0_InterruptHandler
                0x23f1f02c       0x3c build/lcdc_rgba888_mxt_9x60_wvga/production/_ext/1247087435/plib_tc0.o
                0x23f1f02c                TC0_CH0_InterruptHandler
 .text.TC0_CH2_TimerInitialize
                0x23f1f068       0x40 build/lcdc_rgba888_mxt_9x60_wvga/production/_ext/1247087435/plib_tc0.o
                0x23f1f068                TC0_CH2_TimerInitialize
 .text.TC0_CH2_TimerStart
                0x23f1f0a8       0x14 build/lcdc_rgba888_mxt_9x60_wvga/production/_ext/1247087435/plib_tc0.o
                0x23f1f0a8                TC0_CH2_TimerStart
 .text.TC0_CH2_TimerStop
                0x23f1f0bc       0x14 build/lcdc_rgba888_mxt_9x60_wvga/production/_ext/1247087435/plib_tc0.o
                0x23f1f0bc                TC0_CH2_TimerStop
 .text.TC0_CH2_TimerCallbackRegister
                0x23f1f0d0       0x14 build/lcdc_rgba888_mxt_9x60_wvga/production/_ext/1247087435/plib_tc0.o
                0x23f1f0d0                TC0_CH2_TimerCallbackRegister
 .text.TC0_CH2_InterruptHandler
                0x23f1f0e4       0x3c build/lcdc_rgba888_mxt_9x60_wvga/production/_ext/1247087435/plib_tc0.o
                0x23f1f0e4                TC0_CH2_InterruptHandler
 .text.TC0_InterruptHandler
                0x23f1f120       0x10 build/lcdc_rgba888_mxt_9x60_wvga/production/_ext/1247087435/plib_tc0.o
                0x23f1f120                TC0_InterruptHandler
 .text.write    0x23f1f130        0x8 build/lcdc_rgba888_mxt_9x60_wvga/production/_ext/286729486/xc32_monitor.o
                0x23f1f130                write
 .text.SYS_INP_Init
                0x23f1f138       0x44 build/lcdc_rgba888_mxt_9x60_wvga/production/_ext/1414187873/sys_input.o
                0x23f1f138                SYS_INP_Init
 .text.SYS_INP_Tasks
                0x23f1f17c      0x1dc build/lcdc_rgba888_mxt_9x60_wvga/production/_ext/1414187873/sys_input.o
                0x23f1f17c                SYS_INP_Tasks
 .text.SYS_INP_AddListener
                0x23f1f358       0x84 build/lcdc_rgba888_mxt_9x60_wvga/production/_ext/1414187873/sys_input.o
                0x23f1f358                SYS_INP_AddListener
 .text.SYS_INP_InjectTouchDown
                0x23f1f3dc       0x54 build/lcdc_rgba888_mxt_9x60_wvga/production/_ext/1414187873/sys_input.o
                0x23f1f3dc                SYS_INP_InjectTouchDown
 .text.SYS_INP_InjectTouchUp
                0x23f1f430       0x54 build/lcdc_rgba888_mxt_9x60_wvga/production/_ext/1414187873/sys_input.o
                0x23f1f430                SYS_INP_InjectTouchUp
 .text.SYS_INP_InjectTouchMove
                0x23f1f484       0x54 build/lcdc_rgba888_mxt_9x60_wvga/production/_ext/1414187873/sys_input.o
                0x23f1f484                SYS_INP_InjectTouchMove
 .text.SYS_INT_Disable
                0x23f1f4d8        0xc build/lcdc_rgba888_mxt_9x60_wvga/production/_ext/1826491803/sys_int.o
                0x23f1f4d8                SYS_INT_Disable
 .text.SYS_INT_Restore
                0x23f1f4e4        0xc build/lcdc_rgba888_mxt_9x60_wvga/production/_ext/1826491803/sys_int.o
                0x23f1f4e4                SYS_INT_Restore
 .text.SYS_INT_SourceIsEnabled
                0x23f1f4f0       0x28 build/lcdc_rgba888_mxt_9x60_wvga/production/_ext/1826491803/sys_int.o
                0x23f1f4f0                SYS_INT_SourceIsEnabled
 .text.SYS_INT_SourceEnable
                0x23f1f518       0x28 build/lcdc_rgba888_mxt_9x60_wvga/production/_ext/1826491803/sys_int.o
                0x23f1f518                SYS_INT_SourceEnable
 .text.SYS_INT_SourceDisable
                0x23f1f540       0x3c build/lcdc_rgba888_mxt_9x60_wvga/production/_ext/1826491803/sys_int.o
                0x23f1f540                SYS_INT_SourceDisable
 .text.SYS_INT_SourceRestore
                0x23f1f57c       0x30 build/lcdc_rgba888_mxt_9x60_wvga/production/_ext/1826491803/sys_int.o
                0x23f1f57c                SYS_INT_SourceRestore
 .text.SYS_TIME_GetTimerObject
                0x23f1f5ac       0x70 build/lcdc_rgba888_mxt_9x60_wvga/production/_ext/1812361045/sys_time.o
 .text.SYS_TIME_HwTimerCompareUpdate
                0x23f1f61c       0xfc build/lcdc_rgba888_mxt_9x60_wvga/production/_ext/1812361045/sys_time.o
 .text.SYS_TIME_RemoveFromList
                0x23f1f718       0x94 build/lcdc_rgba888_mxt_9x60_wvga/production/_ext/1812361045/sys_time.o
 .text.SYS_TIME_AddToList
                0x23f1f7ac       0xe0 build/lcdc_rgba888_mxt_9x60_wvga/production/_ext/1812361045/sys_time.o
 .text.SYS_TIME_UpdateTimerList
                0x23f1f88c       0x74 build/lcdc_rgba888_mxt_9x60_wvga/production/_ext/1812361045/sys_time.o
 .text.SYS_TIME_ResourceLock
                0x23f1f900       0x54 build/lcdc_rgba888_mxt_9x60_wvga/production/_ext/1812361045/sys_time.o
 .text.SYS_TIME_ResourceUnlock
                0x23f1f954       0x28 build/lcdc_rgba888_mxt_9x60_wvga/production/_ext/1812361045/sys_time.o
 .text.SYS_TIME_TimerObjectCreate
                0x23f1f97c      0x12c build/lcdc_rgba888_mxt_9x60_wvga/production/_ext/1812361045/sys_time.o
 .text.SYS_TIME_TimerAdd
                0x23f1faa8       0x74 build/lcdc_rgba888_mxt_9x60_wvga/production/_ext/1812361045/sys_time.o
 .text.SYS_TIME_Initialize
                0x23f1fb1c      0x11c build/lcdc_rgba888_mxt_9x60_wvga/production/_ext/1812361045/sys_time.o
                0x23f1fb1c                SYS_TIME_Initialize
 .text.SYS_TIME_TimerDestroy
                0x23f1fc38       0x6c build/lcdc_rgba888_mxt_9x60_wvga/production/_ext/1812361045/sys_time.o
                0x23f1fc38                SYS_TIME_TimerDestroy
 .text.SYS_TIME_PLIBCallback
                0x23f1fca4      0x174 build/lcdc_rgba888_mxt_9x60_wvga/production/_ext/1812361045/sys_time.o
 .text.SYS_TIME_TimerStart
                0x23f1fe18       0x94 build/lcdc_rgba888_mxt_9x60_wvga/production/_ext/1812361045/sys_time.o
                0x23f1fe18                SYS_TIME_TimerStart
 .text.SYS_TIME_TimerStop
                0x23f1feac       0x6c build/lcdc_rgba888_mxt_9x60_wvga/production/_ext/1812361045/sys_time.o
                0x23f1feac                SYS_TIME_TimerStop
 .text.SYS_TIME_TimerPeriodHasExpired
                0x23f1ff18       0x40 build/lcdc_rgba888_mxt_9x60_wvga/production/_ext/1812361045/sys_time.o
                0x23f1ff18                SYS_TIME_TimerPeriodHasExpired
 .text.SYS_TIME_DelayMS
                0x23f1ff58       0x84 build/lcdc_rgba888_mxt_9x60_wvga/production/_ext/1812361045/sys_time.o
                0x23f1ff58                SYS_TIME_DelayMS
 .text.SYS_TIME_DelayIsComplete
                0x23f1ffdc       0x28 build/lcdc_rgba888_mxt_9x60_wvga/production/_ext/1812361045/sys_time.o
                0x23f1ffdc                SYS_TIME_DelayIsComplete
 .text.SYS_TIME_CallbackRegisterMS
                0x23f20004       0x9c build/lcdc_rgba888_mxt_9x60_wvga/production/_ext/1812361045/sys_time.o
                0x23f20004                SYS_TIME_CallbackRegisterMS
 .text.SYS_Initialize
                0x23f200a0       0xec build/lcdc_rgba888_mxt_9x60_wvga/production/_ext/2052985144/initialization.o
                0x23f200a0                SYS_Initialize
 *fill*         0x23f2018c        0x4 
 .text          0x23f20190       0xa0 build/lcdc_rgba888_mxt_9x60_wvga/production/_ext/2052985144/cstartup.o
 .text.undefined_instruction_irq_handler
                0x23f20230        0x4 build/lcdc_rgba888_mxt_9x60_wvga/production/_ext/2052985144/fault_handlers.o
                0x23f20230                undefined_instruction_irq_handler
 .text.software_interrupt_irq_handler
                0x23f20234        0x4 build/lcdc_rgba888_mxt_9x60_wvga/production/_ext/2052985144/fault_handlers.o
                0x23f20234                software_interrupt_irq_handler
 .text.data_abort_irq_handler
                0x23f20238        0x4 build/lcdc_rgba888_mxt_9x60_wvga/production/_ext/2052985144/fault_handlers.o
                0x23f20238                data_abort_irq_handler
 .text.prefetch_abort_irq_handler
                0x23f2023c        0x4 build/lcdc_rgba888_mxt_9x60_wvga/production/_ext/2052985144/fault_handlers.o
                0x23f2023c                prefetch_abort_irq_handler
 .text.SYSC_SharedHandler
                0x23f20240        0xc build/lcdc_rgba888_mxt_9x60_wvga/production/_ext/2052985144/interrupts.o
                0x23f20240                SYSC_SharedHandler
 .text.DefaultInterruptHandlerForSpurious
                0x23f2024c       0x18 build/lcdc_rgba888_mxt_9x60_wvga/production/_ext/2052985144/interrupts.o
                0x23f2024c                DefaultInterruptHandlerForSpurious
 .text.SYS_Tasks
                0x23f20264       0x2c build/lcdc_rgba888_mxt_9x60_wvga/production/_ext/2052985144/tasks.o
                0x23f20264                SYS_Tasks
 .text.APP_Initialize
                0x23f20290       0xcc build/lcdc_rgba888_mxt_9x60_wvga/production/_ext/1360937237/app.o
                0x23f20290                APP_Initialize
 .text.APP_Tasks
                0x23f2035c       0x48 build/lcdc_rgba888_mxt_9x60_wvga/production/_ext/1360937237/app.o
                0x23f2035c                APP_Tasks
 .text.main     0x23f203a4       0x14 build/lcdc_rgba888_mxt_9x60_wvga/production/_ext/1360937237/main.o
                0x23f203a4                main
 .text.event_Screen0_ButtonWidget_0_OnReleased
                0x23f203b8       0x10 build/lcdc_rgba888_mxt_9x60_wvga/production/_ext/1360937237/app_screen0.o
                0x23f203b8                event_Screen0_ButtonWidget_0_OnReleased
 .text.Screen0_OnShow
                0x23f203c8       0x38 build/lcdc_rgba888_mxt_9x60_wvga/production/_ext/1360937237/app_screen0.o
                0x23f203c8                Screen0_OnShow
 .text.Screen0_OnHide
                0x23f20400        0x4 build/lcdc_rgba888_mxt_9x60_wvga/production/_ext/1360937237/app_screen0.o
                0x23f20400                Screen0_OnHide
 .text.RTC_Initialize
                0x23f20404       0x20 build/lcdc_rgba888_mxt_9x60_wvga/production/_ext/5003525/plib_rtc.o
                0x23f20404                RTC_Initialize
 .text.RTC_TimeSet
                0x23f20424      0x1a4 build/lcdc_rgba888_mxt_9x60_wvga/production/_ext/5003525/plib_rtc.o
                0x23f20424                RTC_TimeSet
 .text.RTC_TimeGet
                0x23f205c8      0x138 build/lcdc_rgba888_mxt_9x60_wvga/production/_ext/5003525/plib_rtc.o
                0x23f205c8                RTC_TimeGet
 .text.RTC_InterruptHandler
                0x23f20700       0x60 build/lcdc_rgba888_mxt_9x60_wvga/production/_ext/5003525/plib_rtc.o
                0x23f20700                RTC_InterruptHandler
 .text.TC0_CH2_TimerInterruptHandler
                0x23f20760       0x18 build/lcdc_rgba888_mxt_9x60_wvga/production/_ext/1360937237/app_screen1.o
                0x23f20760                TC0_CH2_TimerInterruptHandler
 .text.Screen1_OnHide
                0x23f20778        0xc build/lcdc_rgba888_mxt_9x60_wvga/production/_ext/1360937237/app_screen1.o
                0x23f20778                Screen1_OnHide
 .text.init_anim_images
                0x23f20784      0x278 build/lcdc_rgba888_mxt_9x60_wvga/production/_ext/1360937237/app_screen1.o
                0x23f20784                init_anim_images
 .text.init_Screen1
                0x23f209fc       0xa0 build/lcdc_rgba888_mxt_9x60_wvga/production/_ext/1360937237/app_screen1.o
                0x23f209fc                init_Screen1
 .text.UpdateTime_Label
                0x23f20a9c       0xe8 build/lcdc_rgba888_mxt_9x60_wvga/production/_ext/1360937237/app_screen1.o
                0x23f20a9c                UpdateTime_Label
 .text.Screen1_OnShow
                0x23f20b84       0x30 build/lcdc_rgba888_mxt_9x60_wvga/production/_ext/1360937237/app_screen1.o
                0x23f20b84                Screen1_OnShow
 .text.UpdateChargeAnime_Canvas
                0x23f20bb4       0xb0 build/lcdc_rgba888_mxt_9x60_wvga/production/_ext/1360937237/app_screen1.o
                0x23f20bb4                UpdateChargeAnime_Canvas
 .text.Update_Screen1
                0x23f20c64       0x10 build/lcdc_rgba888_mxt_9x60_wvga/production/_ext/1360937237/app_screen1.o
                0x23f20c64                Update_Screen1
 .text.gfxcCreate
                0x23f20c74       0x98 build/lcdc_rgba888_mxt_9x60_wvga/production/_ext/1121151461/gfx_canvas_api.o
                0x23f20c74                gfxcCreate
 .text.gfxcSetPixelBuffer
                0x23f20d0c       0x78 build/lcdc_rgba888_mxt_9x60_wvga/production/_ext/1121151461/gfx_canvas_api.o
                0x23f20d0c                gfxcSetPixelBuffer
 .text.gfxcSetLayer
                0x23f20d84       0x50 build/lcdc_rgba888_mxt_9x60_wvga/production/_ext/1121151461/gfx_canvas_api.o
                0x23f20d84                gfxcSetLayer
 .text.gfxcSetWindowPosition
                0x23f20dd4       0x3c build/lcdc_rgba888_mxt_9x60_wvga/production/_ext/1121151461/gfx_canvas_api.o
                0x23f20dd4                gfxcSetWindowPosition
 .text.gfxcSetWindowSize
                0x23f20e10       0x3c build/lcdc_rgba888_mxt_9x60_wvga/production/_ext/1121151461/gfx_canvas_api.o
                0x23f20e10                gfxcSetWindowSize
 .text.gfxcShowCanvas
                0x23f20e4c       0x2c build/lcdc_rgba888_mxt_9x60_wvga/production/_ext/1121151461/gfx_canvas_api.o
                0x23f20e4c                gfxcShowCanvas
 .text.gfxcCanvasUpdate
                0x23f20e78       0x20 build/lcdc_rgba888_mxt_9x60_wvga/production/_ext/1121151461/gfx_canvas_api.o
                0x23f20e78                gfxcCanvasUpdate
 .text.effectsTimerCallback
                0x23f20e98       0x18 build/lcdc_rgba888_mxt_9x60_wvga/production/_ext/1121151461/gfx_canvas.o
 .text.GFXC_Update
                0x23f20eb0        0x4 build/lcdc_rgba888_mxt_9x60_wvga/production/_ext/1121151461/gfx_canvas.o
 .text.GFX_CANVAS_IOCTL
                0x23f20eb4      0x2b4 build/lcdc_rgba888_mxt_9x60_wvga/production/_ext/1121151461/gfx_canvas.o
 .text.GFXC_BlitBuffer
                0x23f21168       0xf0 build/lcdc_rgba888_mxt_9x60_wvga/production/_ext/1121151461/gfx_canvas.o
 .text.GFX_CANVAS_Initialize
                0x23f21258      0x130 build/lcdc_rgba888_mxt_9x60_wvga/production/_ext/1121151461/gfx_canvas.o
                0x23f21258                GFX_CANVAS_Initialize
 .text._gfxcCanvasUpdate
                0x23f21388      0x2f8 build/lcdc_rgba888_mxt_9x60_wvga/production/_ext/1121151461/gfx_canvas.o
                0x23f21388                _gfxcCanvasUpdate
 .text.GFX_CANVAS_Task
                0x23f21680      0x3d8 build/lcdc_rgba888_mxt_9x60_wvga/production/_ext/1121151461/gfx_canvas.o
                0x23f21680                GFX_CANVAS_Task
 .text.__pic32c_data_initialization
                0x23f21a58        0x4 c:/program files/microchip/xc32/v4.20/bin/bin/../../lib/gcc/pic32c/8.3.1/../../../../pic32c/lib/arm/v5te/nofp\libpic32c.a(data_init_wrapper.o)
                0x23f21a58                __pic32c_data_initialization
 .text.__pic32c_data_initialization_impl
                0x23f21a5c       0x98 c:/program files/microchip/xc32/v4.20/bin/bin/../../lib/gcc/pic32c/8.3.1/../../../../pic32c/lib/arm/v5te/nofp\libpic32c.a(data_init_0_1.o)
                0x23f21a5c                __copy_needed
                0x23f21a5c                __pic32c_data_initialization_impl
 .text          0x23f21af4       0xc8 c:/program files/microchip/xc32/v4.20/bin/bin/../../lib/gcc/pic32c/8.3.1/arm/v5te/nofp\libgcc.a(_udivsi3.o)
                0x23f21af4                __aeabi_uidiv
                0x23f21af4                __udivsi3
                0x23f21b9c                __aeabi_uidivmod
 .text          0x23f21bbc       0xfc c:/program files/microchip/xc32/v4.20/bin/bin/../../lib/gcc/pic32c/8.3.1/arm/v5te/nofp\libgcc.a(_divsi3.o)
                0x23f21bbc                __divsi3
                0x23f21bbc                __aeabi_idiv
                0x23f21c98                __aeabi_idivmod
 .text          0x23f21cb8        0x4 c:/program files/microchip/xc32/v4.20/bin/bin/../../lib/gcc/pic32c/8.3.1/arm/v5te/nofp\libgcc.a(_dvmd_tls.o)
                0x23f21cb8                __aeabi_idiv0
                0x23f21cb8                __aeabi_ldiv0
 .text          0x23f21cbc      0x250 c:/program files/microchip/xc32/v4.20/bin/bin/../../lib/gcc/pic32c/8.3.1/arm/v5te/nofp\libgcc.a(_arm_addsubsf3.o)
                0x23f21cbc                __aeabi_frsub
                0x23f21cc4                __subsf3
                0x23f21cc4                __aeabi_fsub
                0x23f21cc8                __aeabi_fadd
                0x23f21cc8                __addsf3
                0x23f21e58                __aeabi_ui2f
                0x23f21e58                __floatunsisf
                0x23f21e60                __aeabi_i2f
                0x23f21e60                __floatsisf
                0x23f21e80                __aeabi_ul2f
                0x23f21e80                __floatundisf
                0x23f21e90                __aeabi_l2f
                0x23f21e90                __floatdisf
 .text          0x23f21f0c      0x2f8 c:/program files/microchip/xc32/v4.20/bin/bin/../../lib/gcc/pic32c/8.3.1/arm/v5te/nofp\libgcc.a(_arm_muldivsf3.o)
                0x23f21f0c                __mulsf3
                0x23f21f0c                __aeabi_fmul
                0x23f220a4                __aeabi_fdiv
                0x23f220a4                __divsf3
 .text          0x23f22204       0xfc c:/program files/microchip/xc32/v4.20/bin/bin/../../lib/gcc/pic32c/8.3.1/arm/v5te/nofp\libgcc.a(_arm_cmpsf2.o)
                0x23f22204                __gesf2
                0x23f22204                __gtsf2
                0x23f2220c                __lesf2
                0x23f2220c                __ltsf2
                0x23f22214                __nesf2
                0x23f22214                __eqsf2
                0x23f22214                __cmpsf2
                0x23f22278                __aeabi_cfrcmple
                0x23f22288                __aeabi_cfcmpeq
                0x23f22288                __aeabi_cfcmple
                0x23f2229c                __aeabi_fcmpeq
                0x23f222b0                __aeabi_fcmplt
                0x23f222c4                __aeabi_fcmple
                0x23f222d8                __aeabi_fcmpge
                0x23f222ec                __aeabi_fcmpgt
 .text          0x23f22300       0x5c c:/program files/microchip/xc32/v4.20/bin/bin/../../lib/gcc/pic32c/8.3.1/arm/v5te/nofp\libgcc.a(_arm_fixsfsi.o)
                0x23f22300                __aeabi_f2iz
                0x23f22300                __fixsfsi
 .text          0x23f2235c       0x54 c:/program files/microchip/xc32/v4.20/bin/bin/../../lib/gcc/pic32c/8.3.1/arm/v5te/nofp\libgcc.a(_arm_fixunssfsi.o)
                0x23f2235c                __fixunssfsi
                0x23f2235c                __aeabi_f2uiz
 .text          0x23f223b0       0x3c c:/program files/microchip/xc32/v4.20/bin/bin/../../lib/gcc/pic32c/8.3.1/arm/v5te/nofp\libgcc.a(_aeabi_uldivmod.o)
                0x23f223b0                __aeabi_uldivmod
 .text          0x23f223ec      0x12c c:/program files/microchip/xc32/v4.20/bin/bin/../../lib/gcc/pic32c/8.3.1/arm/v5te/nofp\libgcc.a(_udivmoddi4.o)
                0x23f223ec                __udivmoddi4
 .text.__dummy  0x23f22518        0x4 c:/program files/microchip/xc32/v4.20/bin/bin/../../lib/gcc/pic32c/8.3.1/../../../../pic32c/lib/arm/v5te/nofp\libc-musl.a(__libc_start_main.o)
                0x23f22518                __init_host
 .text.__libc_start_init
                0x23f2251c       0x88 c:/program files/microchip/xc32/v4.20/bin/bin/../../lib/gcc/pic32c/8.3.1/../../../../pic32c/lib/arm/v5te/nofp\libc-musl.a(__libc_start_main.o)
                0x23f2251c                __libc_init_array
 .text.__wrap_sprintf
                0x23f225a4       0x28 c:/program files/microchip/xc32/v4.20/bin/bin/../../lib/gcc/pic32c/8.3.1/../../../../pic32c/lib/arm/v5te/nofp\libc-musl.a(__sio_sprintf_doux.o)
                0x23f225a4                _dsprintf_cdnopuxX
                0x23f225a4                _sprintf_cdnopuxX
                0x23f225a4                __sprintf_di
 .text.__fmt_d  0x23f225cc      0x118 c:/program files/microchip/xc32/v4.20/bin/bin/../../lib/gcc/pic32c/8.3.1/../../../../pic32c/lib/arm/v5te/nofp\libc-musl.a(__fmt_d.o)
                0x23f225cc                __fmt_d
                0x23f225cc                __fmt_d_needed
 .text.__fmt_o  0x23f226e4       0xbc c:/program files/microchip/xc32/v4.20/bin/bin/../../lib/gcc/pic32c/8.3.1/../../../../pic32c/lib/arm/v5te/nofp\libc-musl.a(__fmt_o.o)
                0x23f226e4                __fmt_o
                0x23f226e4                __fmt_o_needed
 .text.__fmt_s  0x23f227a0       0x88 c:/program files/microchip/xc32/v4.20/bin/bin/../../lib/gcc/pic32c/8.3.1/../../../../pic32c/lib/arm/v5te/nofp\libc-musl.a(__fmt_s.o)
                0x23f227a0                __fmt_s
                0x23f227a0                __fmt_0_needed
                0x23f227a0                __fmt_s_needed
 .text.__cvt_u  0x23f22828       0xb8 c:/program files/microchip/xc32/v4.20/bin/bin/../../lib/gcc/pic32c/8.3.1/../../../../pic32c/lib/arm/v5te/nofp\libc-musl.a(__fmt_u.o)
                0x23f22828                __cvt_u
 .text.__fmt_u  0x23f228e0       0x94 c:/program files/microchip/xc32/v4.20/bin/bin/../../lib/gcc/pic32c/8.3.1/../../../../pic32c/lib/arm/v5te/nofp\libc-musl.a(__fmt_u.o)
                0x23f228e0                __fmt_u_needed
                0x23f228e0                __fmt_u
 .text.__fmt_x  0x23f22974      0x1a0 c:/program files/microchip/xc32/v4.20/bin/bin/../../lib/gcc/pic32c/8.3.1/../../../../pic32c/lib/arm/v5te/nofp\libc-musl.a(__fmt_x.o)
                0x23f22974                __fmt_x_needed
                0x23f22974                __fmt_x
 .text.__pop_int
                0x23f22b14      0x164 c:/program files/microchip/xc32/v4.20/bin/bin/../../lib/gcc/pic32c/8.3.1/../../../../pic32c/lib/arm/v5te/nofp\libc-musl.a(__pop_int.o)
                0x23f22b14                __pop_int_needed
                0x23f22b14                __pop_int
 .text.__pop_ptr
                0x23f22c78       0xec c:/program files/microchip/xc32/v4.20/bin/bin/../../lib/gcc/pic32c/8.3.1/../../../../pic32c/lib/arm/v5te/nofp\libc-musl.a(__pop_ptr.o)
                0x23f22c78                __pop_ptr
                0x23f22c78                __pop_ptr_needed
 .text.__pad    0x23f22d64       0xc0 c:/program files/microchip/xc32/v4.20/bin/bin/../../lib/gcc/pic32c/8.3.1/../../../../pic32c/lib/arm/v5te/nofp\libc-musl.a(__printf_core.o)
                0x23f22d64                __pad
 .text.__dummy_fmt4
                0x23f22e24        0x8 c:/program files/microchip/xc32/v4.20/bin/bin/../../lib/gcc/pic32c/8.3.1/../../../../pic32c/lib/arm/v5te/nofp\libc-musl.a(__printf_core.o)
                0x23f22e24                __fmt_fp
                0x23f22e24                __fmt_a
 .text.__fmt_state
                0x23f22e2c       0x74 c:/program files/microchip/xc32/v4.20/bin/bin/../../lib/gcc/pic32c/8.3.1/../../../../pic32c/lib/arm/v5te/nofp\libc-musl.a(__printf_core.o)
                0x23f22e2c                __fmt_state
 .text.__printf_core
                0x23f22ea0      0x520 c:/program files/microchip/xc32/v4.20/bin/bin/../../lib/gcc/pic32c/8.3.1/../../../../pic32c/lib/arm/v5te/nofp\libc-musl.a(__printf_core.o)
                0x23f22ea0                __printf_core
 .text.__init_stdout
                0x23f233c0       0x1c c:/program files/microchip/xc32/v4.20/bin/bin/../../lib/gcc/pic32c/8.3.1/../../../../pic32c/lib/arm/v5te/nofp\libc-musl.a(stdout.o)
                0x23f233c0                __init_stdout
 .text.atoi     0x23f233dc       0x7c c:/program files/microchip/xc32/v4.20/bin/bin/../../lib/gcc/pic32c/8.3.1/../../../../pic32c/lib/arm/v5te/nofp\libc-musl.a(atoi.o)
                0x23f233dc                atoi
 .text.memcpy   0x23f23458       0x1c c:/program files/microchip/xc32/v4.20/bin/bin/../../lib/gcc/pic32c/8.3.1/../../../../pic32c/lib/arm/v5te/nofp\libc-musl.a(memcpy.o)
                0x23f23458                memcpy
 .text.memset   0x23f23474       0x18 c:/program files/microchip/xc32/v4.20/bin/bin/../../lib/gcc/pic32c/8.3.1/../../../../pic32c/lib/arm/v5te/nofp\libc-musl.a(memset.o)
                0x23f23474                memset
 .text.strlen   0x23f2348c       0x20 c:/program files/microchip/xc32/v4.20/bin/bin/../../lib/gcc/pic32c/8.3.1/../../../../pic32c/lib/arm/v5te/nofp\libc-musl.a(strlen.o)
                0x23f2348c                strlen
 .text.tolower  0x23f234ac       0x10 c:/program files/microchip/xc32/v4.20/bin/bin/../../lib/gcc/pic32c/8.3.1/../../../../pic32c/lib/arm/v5te/nofp\libc-musl.a(tolower.o)
                0x23f234ac                tolower
 .text.toupper  0x23f234bc       0x10 c:/program files/microchip/xc32/v4.20/bin/bin/../../lib/gcc/pic32c/8.3.1/../../../../pic32c/lib/arm/v5te/nofp\libc-musl.a(toupper.o)
                0x23f234bc                toupper
 .text.__vfprintf
                0x23f234cc       0x28 c:/program files/microchip/xc32/v4.20/bin/bin/../../lib/gcc/pic32c/8.3.1/../../../../pic32c/lib/arm/v5te/nofp\libc-musl.a(__int_vfprintf.o)
                0x23f234cc                __vfprintf
 .text.__vsprintf
                0x23f234f4       0x10 c:/program files/microchip/xc32/v4.20/bin/bin/../../lib/gcc/pic32c/8.3.1/../../../../pic32c/lib/arm/v5te/nofp\libc-musl.a(__int_vsprintf.o)
                0x23f234f4                __vsprintf
 .text.__pop_float
                0x23f23504       0x44 c:/program files/microchip/xc32/v4.20/bin/bin/../../lib/gcc/pic32c/8.3.1/../../../../pic32c/lib/arm/v5te/nofp\libc-musl.a(__pop_float.o)
                0x23f23504                __pop_float_needed
                0x23f23504                __pop_float
 .text.__vsnprintf
                0x23f23548       0x84 c:/program files/microchip/xc32/v4.20/bin/bin/../../lib/gcc/pic32c/8.3.1/../../../../pic32c/lib/arm/v5te/nofp\libc-musl.a(__int_vsnprintf.o)
                0x23f23548                __vsnprintf
 .text.__dummy  0x23f235cc        0x4 c:/program files/microchip/xc32/v4.20/bin/bin/../../lib/gcc/pic32c/8.3.1/../../../../pic32c/lib/arm/v5te/nofp\libc-musl.a(__init_stdio.o)
                0x23f235cc                __init_stdin
                0x23f235cc                __init_stderr
 .text.__init_stdio
                0x23f235d0       0x14 c:/program files/microchip/xc32/v4.20/bin/bin/../../lib/gcc/pic32c/8.3.1/../../../../pic32c/lib/arm/v5te/nofp\libc-musl.a(__init_stdio.o)
                0x23f235d0                __init_stdio_needed
                0x23f235d0                __init_stdio
 .text.__fwrite_min
                0x23f235e4        0x8 c:/program files/microchip/xc32/v4.20/bin/bin/../../lib/gcc/pic32c/8.3.1/../../../../pic32c/lib/arm/v5te/nofp\libc-musl.a(__out.o)
                0x23f235e4                __stdio_write_unbuffered
                0x23f235e4                __stdio_write
 .text.__out    0x23f235ec       0x68 c:/program files/microchip/xc32/v4.20/bin/bin/../../lib/gcc/pic32c/8.3.1/../../../../pic32c/lib/arm/v5te/nofp\libc-musl.a(__out.o)
                0x23f235ec                __out
                0x23f235ec                __out_needed
 .text.__stdio_close_rw
                0x23f23654       0xa8 c:/program files/microchip/xc32/v4.20/bin/bin/../../lib/gcc/pic32c/8.3.1/../../../../pic32c/lib/arm/v5te/nofp\libc-musl.a(__stdio_close.o)
                0x23f23654                __stdio_close_rw
 .text.__stdio_seek_unbuffered
                0x23f236fc       0x2c c:/program files/microchip/xc32/v4.20/bin/bin/../../lib/gcc/pic32c/8.3.1/../../../../pic32c/lib/arm/v5te/nofp\libc-musl.a(__stdio_seek.o)
                0x23f236fc                __stdio_seek_unbuffered
                0x23f236fc                __stdio_seek_needed
 .text.__stdio_seek
                0x23f23728       0x74 c:/program files/microchip/xc32/v4.20/bin/bin/../../lib/gcc/pic32c/8.3.1/../../../../pic32c/lib/arm/v5te/nofp\libc-musl.a(__stdio_seek.o)
                0x23f23728                __stdio_seek
 .text.__get_stdout
                0x23f2379c        0xc c:/program files/microchip/xc32/v4.20/bin/bin/../../lib/gcc/pic32c/8.3.1/../../../../pic32c/lib/arm/v5te/nofp\libc-musl.a(__stdout.o)
                0x23f2379c                __get_stdout
                0x23f2379c                __init_stdout_needed
 .text.__fwrite
                0x23f237a8       0x28 c:/program files/microchip/xc32/v4.20/bin/bin/../../lib/gcc/pic32c/8.3.1/../../../../pic32c/lib/arm/v5te/nofp\libc-musl.a(__fwrite.o)
                0x23f237a8                __fwrite
                0x23f237a8                __fwrite_needed
 .text.close    0x23f237d0        0x8 c:/program files/microchip/xc32/v4.20/bin/bin/../../lib/gcc/pic32c/8.3.1/../../../../pic32c/lib/arm/v5te/nofp\libpic32c.a(close.o)
                0x23f237d0                close
 .text.lseek    0x23f237d8        0x8 c:/program files/microchip/xc32/v4.20/bin/bin/../../lib/gcc/pic32c/8.3.1/../../../../pic32c/lib/arm/v5te/nofp\libpic32c.a(lseek.o)
                0x23f237d8                lseek
 *(.rodata .rodata* .gnu.linkonce.r.*)
 .rodata.progress
                0x23f237e0       0x24 build/lcdc_rgba888_mxt_9x60_wvga/production/_ext/1959449242/drv_maxtouch.o
 .rodata.gfxColorInfoTable
                0x23f23804      0x160 build/lcdc_rgba888_mxt_9x60_wvga/production/_ext/1165331637/gfx_driver.o
                0x23f23804                gfxColorInfoTable
 .rodata.lcdcLayerZOrder
                0x23f23964        0x4 build/lcdc_rgba888_mxt_9x60_wvga/production/_ext/129784465/drv_gfx_lcdc.o
 .rodata._cosTable
                0x23f23968       0xb8 build/lcdc_rgba888_mxt_9x60_wvga/production/_ext/305146849/legato_math.o
                0x23f23968                _cosTable
 .rodata.leColorInfoTable
                0x23f23a20      0x160 build/lcdc_rgba888_mxt_9x60_wvga/production/_ext/305146849/legato_color.o
                0x23f23a20                leColorInfoTable
 .rodata.leDefaultScheme
                0x23f23b80      0x2c8 build/lcdc_rgba888_mxt_9x60_wvga/production/_ext/1618192685/legato_scheme.o
                0x23f23b80                leDefaultScheme
 .rodata.NotoMono14_data
                0x23f23e48      0x784 build/lcdc_rgba888_mxt_9x60_wvga/production/_ext/644506877/le_gen_fonts.o
                0x23f23e48                NotoMono14_data
 .rodata.NotoMono14_glyphs
                0x23f245cc      0x44c build/lcdc_rgba888_mxt_9x60_wvga/production/_ext/644506877/le_gen_fonts.o
                0x23f245cc                NotoMono14_glyphs
 .rodata.NotoSans_48_data
                0x23f24a18      0x784 build/lcdc_rgba888_mxt_9x60_wvga/production/_ext/644506877/le_gen_fonts.o
                0x23f24a18                NotoSans_48_data
 .rodata.NotoSans_48_glyphs
                0x23f2519c     0x2a58 build/lcdc_rgba888_mxt_9x60_wvga/production/_ext/644506877/le_gen_fonts.o
                0x23f2519c                NotoSans_48_glyphs
 .rodata.NotoSans_Regular_data
                0x23f27bf4      0x770 build/lcdc_rgba888_mxt_9x60_wvga/production/_ext/644506877/le_gen_fonts.o
                0x23f27bf4                NotoSans_Regular_data
 .rodata.NotoSans_Regular_glyphs
                0x23f28364     0x5910 build/lcdc_rgba888_mxt_9x60_wvga/production/_ext/644506877/le_gen_fonts.o
                0x23f28364                NotoSans_Regular_glyphs
 .rodata.Battery5_data
                0x23f2dc74     0x4594 build/lcdc_rgba888_mxt_9x60_wvga/production/_ext/1497821479/le_gen_images.o
                0x23f2dc74                Battery5_data
 .rodata.MicrochipLogo_data
                0x23f32208     0x292c build/lcdc_rgba888_mxt_9x60_wvga/production/_ext/1497821479/le_gen_images.o
                0x23f32208                MicrochipLogo_data
 .rodata.background0_data
                0x23f34b34    0x9e0d4 build/lcdc_rgba888_mxt_9x60_wvga/production/_ext/1497821479/le_gen_images.o
                0x23f34b34                background0_data
 .rodata.background_data
                0x23fd2c08   0x130408 build/lcdc_rgba888_mxt_9x60_wvga/production/_ext/1497821479/le_gen_images.o
                0x23fd2c08                background_data
 .rodata.button_off_data
                0x24103010      0xe9c build/lcdc_rgba888_mxt_9x60_wvga/production/_ext/1497821479/le_gen_images.o
                0x24103010                button_off_data
 .rodata.button_on_data
                0x24103eac      0xd7c build/lcdc_rgba888_mxt_9x60_wvga/production/_ext/1497821479/le_gen_images.o
                0x24103eac                button_on_data
 .rodata.cable0_data
                0x24104c28    0x29094 build/lcdc_rgba888_mxt_9x60_wvga/production/_ext/1497821479/le_gen_images.o
                0x24104c28                cable0_data
 .rodata.cable10_data
                0x2412dcbc    0x29094 build/lcdc_rgba888_mxt_9x60_wvga/production/_ext/1497821479/le_gen_images.o
                0x2412dcbc                cable10_data
 .rodata.cable11_data
                0x24156d50    0x29094 build/lcdc_rgba888_mxt_9x60_wvga/production/_ext/1497821479/le_gen_images.o
                0x24156d50                cable11_data
 .rodata.cable12_data
                0x2417fde4    0x1ec70 build/lcdc_rgba888_mxt_9x60_wvga/production/_ext/1497821479/le_gen_images.o
                0x2417fde4                cable12_data
 .rodata.cable13_data
                0x2419ea54    0x29094 build/lcdc_rgba888_mxt_9x60_wvga/production/_ext/1497821479/le_gen_images.o
                0x2419ea54                cable13_data
 .rodata.cable1_data
                0x241c7ae8    0x29094 build/lcdc_rgba888_mxt_9x60_wvga/production/_ext/1497821479/le_gen_images.o
                0x241c7ae8                cable1_data
 .rodata.cable2_data
                0x241f0b7c    0x29094 build/lcdc_rgba888_mxt_9x60_wvga/production/_ext/1497821479/le_gen_images.o
                0x241f0b7c                cable2_data
 .rodata.cable3_data
                0x24219c10    0x29094 build/lcdc_rgba888_mxt_9x60_wvga/production/_ext/1497821479/le_gen_images.o
                0x24219c10                cable3_data
 .rodata.cable4_data
                0x24242ca4    0x29094 build/lcdc_rgba888_mxt_9x60_wvga/production/_ext/1497821479/le_gen_images.o
                0x24242ca4                cable4_data
 .rodata.cable5_data
                0x2426bd38    0x29094 build/lcdc_rgba888_mxt_9x60_wvga/production/_ext/1497821479/le_gen_images.o
                0x2426bd38                cable5_data
 .rodata.cable6_data
                0x24294dcc    0x29094 build/lcdc_rgba888_mxt_9x60_wvga/production/_ext/1497821479/le_gen_images.o
                0x24294dcc                cable6_data
 .rodata.cable7_data
                0x242bde60    0x29094 build/lcdc_rgba888_mxt_9x60_wvga/production/_ext/1497821479/le_gen_images.o
                0x242bde60                cable7_data
 .rodata.cable8_data
                0x242e6ef4    0x29094 build/lcdc_rgba888_mxt_9x60_wvga/production/_ext/1497821479/le_gen_images.o
                0x242e6ef4                cable8_data
 .rodata.cable9_data
                0x2430ff88    0x29094 build/lcdc_rgba888_mxt_9x60_wvga/production/_ext/1497821479/le_gen_images.o
                0x2430ff88                cable9_data
 .rodata.minus_data
                0x2433901c      0xa80 build/lcdc_rgba888_mxt_9x60_wvga/production/_ext/1497821479/le_gen_images.o
                0x2433901c                minus_data
 .rodata.minusp_data
                0x24339a9c      0xa08 build/lcdc_rgba888_mxt_9x60_wvga/production/_ext/1497821479/le_gen_images.o
                0x24339a9c                minusp_data
 .rodata.plus_data
                0x2433a4a4      0xf94 build/lcdc_rgba888_mxt_9x60_wvga/production/_ext/1497821479/le_gen_images.o
                0x2433a4a4                plus_data
 .rodata.plusp_data
                0x2433b438      0xbd4 build/lcdc_rgba888_mxt_9x60_wvga/production/_ext/1497821479/le_gen_images.o
                0x2433b438                plusp_data
 .rodata.leGlobalPalette
                0x2433c00c       0x14 build/lcdc_rgba888_mxt_9x60_wvga/production/_ext/706129189/le_gen_globalpalette.o
                0x2433c00c                leGlobalPalette
 .rodata.BlackScheme
                0x2433c020      0x2c8 build/lcdc_rgba888_mxt_9x60_wvga/production/_ext/706129189/le_gen_scheme.o
                0x2433c020                BlackScheme
 .rodata.TranslucentScheme
                0x2433c2e8      0x2c8 build/lcdc_rgba888_mxt_9x60_wvga/production/_ext/706129189/le_gen_scheme.o
                0x2433c2e8                TranslucentScheme
 .rodata.WhiteScheme
                0x2433c5b0      0x2c8 build/lcdc_rgba888_mxt_9x60_wvga/production/_ext/706129189/le_gen_scheme.o
                0x2433c5b0                WhiteScheme
 .rodata.stringTable
                0x2433c878       0x18 build/lcdc_rgba888_mxt_9x60_wvga/production/_ext/706129189/le_gen_stringtable.o
                0x2433c878                stringTable
 .rodata.stringTable_data
                0x2433c890      0x110 build/lcdc_rgba888_mxt_9x60_wvga/production/_ext/706129189/le_gen_stringtable.o
                0x2433c890                stringTable_data
 .rodata.abZigzag
                0x2433c9a0       0x40 build/lcdc_rgba888_mxt_9x60_wvga/production/_ext/2086705360/legato_imagedecoder_jpeg_common.o
 .rodata.bCbCrOffset.5350
                0x2433c9e0        0x4 build/lcdc_rgba888_mxt_9x60_wvga/production/_ext/2086705360/legato_imagedecoder_jpeg_common.o
 .rodata.bOffsetX.5349
                0x2433c9e4        0x4 build/lcdc_rgba888_mxt_9x60_wvga/production/_ext/2086705360/legato_imagedecoder_jpeg_common.o
 .rodata.bOffsetY.5348
                0x2433c9e8        0x4 build/lcdc_rgba888_mxt_9x60_wvga/production/_ext/2086705360/legato_imagedecoder_jpeg_common.o
 .rodata        0x2433c9ec       0x64 build/lcdc_rgba888_mxt_9x60_wvga/production/_ext/1872343871/lodepng.o
 .rodata.ADAM7_DX
                0x2433ca50       0x1c build/lcdc_rgba888_mxt_9x60_wvga/production/_ext/1872343871/lodepng.o
 .rodata.ADAM7_DY
                0x2433ca6c       0x1c build/lcdc_rgba888_mxt_9x60_wvga/production/_ext/1872343871/lodepng.o
 .rodata.ADAM7_IX
                0x2433ca88       0x1c build/lcdc_rgba888_mxt_9x60_wvga/production/_ext/1872343871/lodepng.o
 .rodata.ADAM7_IY
                0x2433caa4       0x1c build/lcdc_rgba888_mxt_9x60_wvga/production/_ext/1872343871/lodepng.o
 .rodata.CLCL_ORDER
                0x2433cac0       0x4c build/lcdc_rgba888_mxt_9x60_wvga/production/_ext/1872343871/lodepng.o
 .rodata.DISTANCEBASE
                0x2433cb0c       0x78 build/lcdc_rgba888_mxt_9x60_wvga/production/_ext/1872343871/lodepng.o
 .rodata.DISTANCEEXTRA
                0x2433cb84       0x78 build/lcdc_rgba888_mxt_9x60_wvga/production/_ext/1872343871/lodepng.o
 .rodata.LENGTHBASE
                0x2433cbfc       0x74 build/lcdc_rgba888_mxt_9x60_wvga/production/_ext/1872343871/lodepng.o
 .rodata.LENGTHEXTRA
                0x2433cc70       0x74 build/lcdc_rgba888_mxt_9x60_wvga/production/_ext/1872343871/lodepng.o
 .rodata.lodepng_crc32_table
                0x2433cce4      0x400 build/lcdc_rgba888_mxt_9x60_wvga/production/_ext/1872343871/lodepng.o
 .rodata.calcOffset
                0x2433d0e4       0x18 build/lcdc_rgba888_mxt_9x60_wvga/production/_ext/1381099687/legato_image_utils.o
 .rodata.getDiscreteValue
                0x2433d0fc       0x2c build/lcdc_rgba888_mxt_9x60_wvga/production/_ext/1381099687/legato_image_utils.o
 .rodata.tableStringVTable
                0x2433d128       0x74 build/lcdc_rgba888_mxt_9x60_wvga/production/_ext/157682245/legato_tablestring.o
 .rodata.fixedStringVTable
                0x2433d19c       0x6c build/lcdc_rgba888_mxt_9x60_wvga/production/_ext/157682245/legato_fixedstring.o
 .rodata.buttonWidgetVTable
                0x2433d208      0x184 build/lcdc_rgba888_mxt_9x60_wvga/production/_ext/1339002025/legato_widget_button.o
 .rodata.imageWidgetVTable
                0x2433d38c      0x13c build/lcdc_rgba888_mxt_9x60_wvga/production/_ext/1197524732/legato_widget_image.o
 .rodata.labelWidgetVTable
                0x2433d4c8      0x13c build/lcdc_rgba888_mxt_9x60_wvga/production/_ext/1195110755/legato_widget_label.o
 .rodata.rectangleWidgetVTable
                0x2433d604      0x13c build/lcdc_rgba888_mxt_9x60_wvga/production/_ext/337100648/legato_widget_rectangle.o
 .rodata.widgetVTable
                0x2433d740      0x134 build/lcdc_rgba888_mxt_9x60_wvga/production/_ext/261620856/legato_widget.o
 .rodata        0x2433d874       0x28 build/lcdc_rgba888_mxt_9x60_wvga/production/_ext/4988870/plib_clk.o
 .rodata.drvI2C0InitData
                0x2433d89c       0x1c build/lcdc_rgba888_mxt_9x60_wvga/production/_ext/2052985144/initialization.o
                0x2433d89c                drvI2C0InitData
 .rodata.drvI2C0InterruptSources
                0x2433d8b8       0x14 build/lcdc_rgba888_mxt_9x60_wvga/production/_ext/2052985144/initialization.o
                0x2433d8b8                drvI2C0InterruptSources
 .rodata.drvI2C0PLibAPI
                0x2433d8cc       0x1c build/lcdc_rgba888_mxt_9x60_wvga/production/_ext/2052985144/initialization.o
                0x2433d8cc                drvI2C0PLibAPI
 .rodata.drvMAXTOUCHInitData
                0x2433d8e8       0x1c build/lcdc_rgba888_mxt_9x60_wvga/production/_ext/2052985144/initialization.o
                0x2433d8e8                drvMAXTOUCHInitData
 .rodata.sysTimeInitData
                0x2433d904        0x8 build/lcdc_rgba888_mxt_9x60_wvga/production/_ext/2052985144/initialization.o
                0x2433d904                sysTimeInitData
 .rodata.sysTimePlibAPI
                0x2433d90c       0x1c build/lcdc_rgba888_mxt_9x60_wvga/production/_ext/2052985144/initialization.o
                0x2433d90c                sysTimePlibAPI
 .rodata        0x2433d928       0x1c build/lcdc_rgba888_mxt_9x60_wvga/production/_ext/1360937237/app_screen1.o
 .rodata.gfxDriverInterface
                0x2433d944        0xc build/lcdc_rgba888_mxt_9x60_wvga/production/_ext/1121151461/gfx_canvas.o
                0x2433d944                gfxDriverInterface
 .rodata.lcdcDisplayDriver
                0x2433d950        0xc build/lcdc_rgba888_mxt_9x60_wvga/production/_ext/1121151461/gfx_canvas.o
 .rodata        0x2433d95c        0x7 c:/program files/microchip/xc32/v4.20/bin/bin/../../lib/gcc/pic32c/8.3.1/../../../../pic32c/lib/arm/v5te/nofp\libc-musl.a(__fmt_s.o)
 .rodata        0x2433d963       0x1c c:/program files/microchip/xc32/v4.20/bin/bin/../../lib/gcc/pic32c/8.3.1/../../../../pic32c/lib/arm/v5te/nofp\libc-musl.a(__printf_core.o)
 *(.ARM.extab* .gnu.linkonce.armextab.*)
                0x2433d980                . = ALIGN (0x4)
 *fill*         0x2433d97f        0x1 
 *(.init)
 .init          0x2433d980        0xc c:/program files/microchip/xc32/v4.20/bin/bin/../../lib/gcc/pic32c/8.3.1/arm/v5te/nofp/crti.o
                0x2433d980                _init
 .init          0x2433d98c        0xc c:/program files/microchip/xc32/v4.20/bin/bin/../../lib/gcc/pic32c/8.3.1/arm/v5te/nofp/crtn.o
                0x2433d998                . = ALIGN (0x4)
                [!provide]                PROVIDE (__preinit_array_start = .)
 *(.preinit_array)
                [!provide]                PROVIDE (__preinit_array_end = .)
                0x2433d998                . = ALIGN (0x4)
                0x2433d998                PROVIDE (__init_array_start = .)
 *(SORT_BY_NAME(.init_array.*))
 *(.init_array)
 .init_array    0x2433d998        0x4 c:/program files/microchip/xc32/v4.20/bin/bin/../../lib/gcc/pic32c/8.3.1/arm/v5te/nofp/crtbegin.o
                0x2433d99c                PROVIDE (__init_array_end = .)
                0x2433d99c                . = ALIGN (0x4)
 *crtbegin.o(.ctors)
 *(EXCLUDE_FILE(*crtend.o) .ctors)
 *(SORT_BY_NAME(.ctors.*))
 *crtend.o(.ctors)
                0x2433d99c                . = ALIGN (0x4)
 *(.fini)
 .fini          0x2433d99c        0xc c:/program files/microchip/xc32/v4.20/bin/bin/../../lib/gcc/pic32c/8.3.1/arm/v5te/nofp/crti.o
                0x2433d99c                _fini
 .fini          0x2433d9a8        0xc c:/program files/microchip/xc32/v4.20/bin/bin/../../lib/gcc/pic32c/8.3.1/arm/v5te/nofp/crtn.o
                0x2433d9b4                . = ALIGN (0x4)
                [!provide]                PROVIDE (__fini_array_start = .)
 *(.fini_array)
 .fini_array    0x2433d9b4        0x4 c:/program files/microchip/xc32/v4.20/bin/bin/../../lib/gcc/pic32c/8.3.1/arm/v5te/nofp/crtbegin.o
 *(SORT_BY_NAME(.fini_array.*))
                [!provide]                PROVIDE (__fini_array_end = .)
 *crtbegin.o(.dtors)
 *(EXCLUDE_FILE(*crtend.o) .dtors)
 *(SORT_BY_NAME(.dtors.*))
 *crtend.o(.dtors)
 //*(.dinit*)
                0x2433d9b8                . = ALIGN (0x4)

.dinit          0x2433d9b8     0x17b0
 *(.dinit*)
 .dinit         0x2433d9b8     0x17b0 data_init
                0x2433f168                . = ALIGN (0x4)

.data           0x2433f168      0xba4
 *(.data .data.*)
 .data.val.12591
                0x2433f168        0x4 build/lcdc_rgba888_mxt_9x60_wvga/production/_ext/1959449242/drv_maxtouch.o
 .data.color_convert_table
                0x2433f16c      0x1e4 build/lcdc_rgba888_mxt_9x60_wvga/production/_ext/305146849/legato_color_convert.o
                0x2433f16c                color_convert_table
 .data.indexGet_FnTable
                0x2433f350       0x18 build/lcdc_rgba888_mxt_9x60_wvga/production/_ext/305146849/legato_pixelbuffer.o
                0x2433f350                indexGet_FnTable
 .data.pixelGet_FnTable
                0x2433f368       0x10 build/lcdc_rgba888_mxt_9x60_wvga/production/_ext/305146849/legato_pixelbuffer.o
                0x2433f368                pixelGet_FnTable
 .data.pixelSet_FnTable
                0x2433f378       0x10 build/lcdc_rgba888_mxt_9x60_wvga/production/_ext/305146849/legato_pixelbuffer.o
                0x2433f378                pixelSet_FnTable
 .data.color_lerp_table
                0x2433f388       0x2c build/lcdc_rgba888_mxt_9x60_wvga/production/_ext/305146849/legato_color_lerp.o
                0x2433f388                color_lerp_table
 .data.NotoMono14
                0x2433f3b4       0x20 build/lcdc_rgba888_mxt_9x60_wvga/production/_ext/644506877/le_gen_fonts.o
                0x2433f3b4                NotoMono14
 .data.NotoSans_48
                0x2433f3d4       0x20 build/lcdc_rgba888_mxt_9x60_wvga/production/_ext/644506877/le_gen_fonts.o
                0x2433f3d4                NotoSans_48
 .data.NotoSans_Regular
                0x2433f3f4       0x20 build/lcdc_rgba888_mxt_9x60_wvga/production/_ext/644506877/le_gen_fonts.o
                0x2433f3f4                NotoSans_Regular
 .data.Battery5
                0x2433f414       0x3c build/lcdc_rgba888_mxt_9x60_wvga/production/_ext/1497821479/le_gen_images.o
                0x2433f414                Battery5
 .data.MicrochipLogo
                0x2433f450       0x3c build/lcdc_rgba888_mxt_9x60_wvga/production/_ext/1497821479/le_gen_images.o
                0x2433f450                MicrochipLogo
 .data.background
                0x2433f48c       0x3c build/lcdc_rgba888_mxt_9x60_wvga/production/_ext/1497821479/le_gen_images.o
                0x2433f48c                background
 .data.background0
                0x2433f4c8       0x3c build/lcdc_rgba888_mxt_9x60_wvga/production/_ext/1497821479/le_gen_images.o
                0x2433f4c8                background0
 .data.button_off
                0x2433f504       0x3c build/lcdc_rgba888_mxt_9x60_wvga/production/_ext/1497821479/le_gen_images.o
                0x2433f504                button_off
 .data.button_on
                0x2433f540       0x3c build/lcdc_rgba888_mxt_9x60_wvga/production/_ext/1497821479/le_gen_images.o
                0x2433f540                button_on
 .data.cable0   0x2433f57c       0x3c build/lcdc_rgba888_mxt_9x60_wvga/production/_ext/1497821479/le_gen_images.o
                0x2433f57c                cable0
 .data.cable1   0x2433f5b8       0x3c build/lcdc_rgba888_mxt_9x60_wvga/production/_ext/1497821479/le_gen_images.o
                0x2433f5b8                cable1
 .data.cable10  0x2433f5f4       0x3c build/lcdc_rgba888_mxt_9x60_wvga/production/_ext/1497821479/le_gen_images.o
                0x2433f5f4                cable10
 .data.cable11  0x2433f630       0x3c build/lcdc_rgba888_mxt_9x60_wvga/production/_ext/1497821479/le_gen_images.o
                0x2433f630                cable11
 .data.cable12  0x2433f66c       0x3c build/lcdc_rgba888_mxt_9x60_wvga/production/_ext/1497821479/le_gen_images.o
                0x2433f66c                cable12
 .data.cable13  0x2433f6a8       0x3c build/lcdc_rgba888_mxt_9x60_wvga/production/_ext/1497821479/le_gen_images.o
                0x2433f6a8                cable13
 .data.cable2   0x2433f6e4       0x3c build/lcdc_rgba888_mxt_9x60_wvga/production/_ext/1497821479/le_gen_images.o
                0x2433f6e4                cable2
 .data.cable3   0x2433f720       0x3c build/lcdc_rgba888_mxt_9x60_wvga/production/_ext/1497821479/le_gen_images.o
                0x2433f720                cable3
 .data.cable4   0x2433f75c       0x3c build/lcdc_rgba888_mxt_9x60_wvga/production/_ext/1497821479/le_gen_images.o
                0x2433f75c                cable4
 .data.cable5   0x2433f798       0x3c build/lcdc_rgba888_mxt_9x60_wvga/production/_ext/1497821479/le_gen_images.o
                0x2433f798                cable5
 .data.cable6   0x2433f7d4       0x3c build/lcdc_rgba888_mxt_9x60_wvga/production/_ext/1497821479/le_gen_images.o
                0x2433f7d4                cable6
 .data.cable7   0x2433f810       0x3c build/lcdc_rgba888_mxt_9x60_wvga/production/_ext/1497821479/le_gen_images.o
                0x2433f810                cable7
 .data.cable8   0x2433f84c       0x3c build/lcdc_rgba888_mxt_9x60_wvga/production/_ext/1497821479/le_gen_images.o
                0x2433f84c                cable8
 .data.cable9   0x2433f888       0x3c build/lcdc_rgba888_mxt_9x60_wvga/production/_ext/1497821479/le_gen_images.o
                0x2433f888                cable9
 .data.minus    0x2433f8c4       0x3c build/lcdc_rgba888_mxt_9x60_wvga/production/_ext/1497821479/le_gen_images.o
                0x2433f8c4                minus
 .data.minusp   0x2433f900       0x3c build/lcdc_rgba888_mxt_9x60_wvga/production/_ext/1497821479/le_gen_images.o
                0x2433f900                minusp
 .data.plus     0x2433f93c       0x3c build/lcdc_rgba888_mxt_9x60_wvga/production/_ext/1497821479/le_gen_images.o
                0x2433f93c                plus
 .data.plusp    0x2433f978       0x3c build/lcdc_rgba888_mxt_9x60_wvga/production/_ext/1497821479/le_gen_images.o
                0x2433f978                plusp
 .data.leGlobalPalette_data
                0x2433f9b4      0x200 build/lcdc_rgba888_mxt_9x60_wvga/production/_ext/706129189/le_gen_globalpalette.o
                0x2433f9b4                leGlobalPalette_data
 .data.fontList
                0x2433fbb4        0xc build/lcdc_rgba888_mxt_9x60_wvga/production/_ext/706129189/le_gen_stringtable.o
                0x2433fbb4                fontList
 .data.fixedPoolDefs
                0x2433fbc0       0x54 build/lcdc_rgba888_mxt_9x60_wvga/production/_ext/28088523/legato_memory.o
 .data.paintEvt
                0x2433fc14        0x1 build/lcdc_rgba888_mxt_9x60_wvga/production/_ext/1081070089/legato_renderer.o
 *fill*         0x2433fc15        0x3 
 .data.decodeGlyph
                0x2433fc18        0xc build/lcdc_rgba888_mxt_9x60_wvga/production/_ext/157682245/legato_stringutils.o
                0x2433fc18                decodeGlyph
 .data._moveEvent
                0x2433fc24       0x14 build/lcdc_rgba888_mxt_9x60_wvga/production/_ext/261620856/legato_widget.o
 .data._resizeEvent
                0x2433fc38       0x14 build/lcdc_rgba888_mxt_9x60_wvga/production/_ext/261620856/legato_widget.o
 .data.gSysTimeTokenCount
                0x2433fc4c        0x2 build/lcdc_rgba888_mxt_9x60_wvga/production/_ext/1812361045/sys_time.o
 *fill*         0x2433fc4e        0x2 
 .data.irqData  0x2433fc50       0x50 build/lcdc_rgba888_mxt_9x60_wvga/production/_ext/2052985144/interrupts.o
                0x2433fc50                irqData
 .data.irqDataEntryCount
                0x2433fca0        0x4 build/lcdc_rgba888_mxt_9x60_wvga/production/_ext/2052985144/interrupts.o
                0x2433fca0                irqDataEntryCount
 .data.effectsIntervalMS
                0x2433fca4        0x4 build/lcdc_rgba888_mxt_9x60_wvga/production/_ext/1121151461/gfx_canvas.o
 .data.gfxDispCtrlr
                0x2433fca8        0x4 build/lcdc_rgba888_mxt_9x60_wvga/production/_ext/1121151461/gfx_canvas.o
                0x2433fca8                gfxDispCtrlr
 .data          0x2433fcac       0x60 c:/program files/microchip/xc32/v4.20/bin/bin/../../lib/gcc/pic32c/8.3.1/../../../../pic32c/lib/arm/v5te/nofp\libc-musl.a(__stdout.o)
                0x2433fd0c                . = ALIGN (0x4)
                [!provide]                PROVIDE (_efixed = .)
                [!provide]                PROVIDE (__exidx_start = .)

.ARM.exidx      0x2433fd0c        0x8
 *(.ARM.exidx* .gnu.linkonce.armexidx.*)
 .ARM.exidx     0x2433fd0c        0x8 c:/program files/microchip/xc32/v4.20/bin/bin/../../lib/gcc/pic32c/8.3.1/arm/v5te/nofp\libgcc.a(_udivmoddi4.o)
                [!provide]                PROVIDE (__exidx_end = .)
                0x2433fd14                . = ALIGN (0x4)
                0x2433fd14                PROVIDE (_etext = .)

.relocate       0x00300000       0x3c load address 0x2433fd14
                0x00300000                . = ALIGN (0x4)
                0x00300000                PROVIDE (_srelocate = .)
 *(.vectors .vectors.*)
 .vectors       0x00300000       0x3c build/lcdc_rgba888_mxt_9x60_wvga/production/_ext/2052985144/cstartup.o
 *(.ramfunc)
                0x0030003c                . = ALIGN (0x4)
                0x0030003c                PROVIDE (_erelocate = .)

.region_cache_aligned_const
                0x2433fd14        0xc
                0x2433fd20                . = ALIGN (0x20)
 *fill*         0x2433fd14        0xc 
 *(.region_cache_aligned_const .region_cache_aligned_const.*)
                0x2433fd20                . = ALIGN (0x20)

.region_sram    0x0030003c        0x0
                0x0030003c                . = ALIGN (0x4)
 *(.region_sram .region_sram.*)

.region_ram     0x2433fd20        0x0
                0x2433fd20                . = ALIGN (0x4)
 *(.region_ram .region_ram.*)

.region_nocache
                0x20000000   0x4ce154
                0x20000000                . = ALIGN (0x4)
 *(.region_nocache .region_nocache.*)
 .region_nocache.channelDesc0
                0x20000000        0xc build/lcdc_rgba888_mxt_9x60_wvga/production/_ext/129784465/drv_gfx_lcdc.o
                0x20000000                channelDesc0
 *fill*         0x2000000c       0x34 
 .region_nocache.channelDesc1
                0x20000040        0xc build/lcdc_rgba888_mxt_9x60_wvga/production/_ext/129784465/drv_gfx_lcdc.o
                0x20000040                channelDesc1
 *fill*         0x2000004c       0x34 
 .region_nocache.channelDesc2
                0x20000080        0xc build/lcdc_rgba888_mxt_9x60_wvga/production/_ext/129784465/drv_gfx_lcdc.o
                0x20000080                channelDesc2
 *fill*         0x2000008c       0x34 
 .region_nocache._dataBuffers
                0x200000c0    0x40000 build/lcdc_rgba888_mxt_9x60_wvga/production/_ext/1081070089/legato_renderer.o
 .region_nocache.canvasfb0
                0x200400c0   0x177000 build/lcdc_rgba888_mxt_9x60_wvga/production/_ext/1121151461/gfx_canvas.o
                0x200400c0                canvasfb0
 .region_nocache.canvasfb1
                0x201b70c0   0x177000 build/lcdc_rgba888_mxt_9x60_wvga/production/_ext/1121151461/gfx_canvas.o
                0x201b70c0                canvasfb1
 .region_nocache.canvasfb2
                0x2032e0c0   0x177000 build/lcdc_rgba888_mxt_9x60_wvga/production/_ext/1121151461/gfx_canvas.o
                0x2032e0c0                canvasfb2
 .region_nocache.canvasfb3
                0x204a50c0    0x29094 build/lcdc_rgba888_mxt_9x60_wvga/production/_ext/1121151461/gfx_canvas.o
                0x204a50c0                canvasfb3

.bss            0x24340000    0x509f0
                0x24340000                . = ALIGN (0x4)
                0x24340000                PROVIDE (_szero = .)
 *(.bss .bss.*)
 .bss           0x24340000       0x1c c:/program files/microchip/xc32/v4.20/bin/bin/../../lib/gcc/pic32c/8.3.1/arm/v5te/nofp/crtbegin.o
 .bss.gDrvI2CObj
                0x2434001c       0x3c build/lcdc_rgba888_mxt_9x60_wvga/production/_ext/103208383/drv_i2c.o
 .bss.buf       0x24340058       0xff build/lcdc_rgba888_mxt_9x60_wvga/production/_ext/1959449242/drv_maxtouch.o
 *fill*         0x24340157        0x1 
 .bss.byte_offset.12754
                0x24340158        0x4 build/lcdc_rgba888_mxt_9x60_wvga/production/_ext/1959449242/drv_maxtouch.o
 .bss.index.12755
                0x2434015c        0x4 build/lcdc_rgba888_mxt_9x60_wvga/production/_ext/1959449242/drv_maxtouch.o
 .bss.resetTimer
                0x24340160        0x4 build/lcdc_rgba888_mxt_9x60_wvga/production/_ext/1959449242/drv_maxtouch.o
 .bss.sMAXTOUCHDriverInstances
                0x24340164     0x15c8 build/lcdc_rgba888_mxt_9x60_wvga/production/_ext/1959449242/drv_maxtouch.o
                0x24340164                sMAXTOUCHDriverInstances
 .bss.activeLayer
                0x2434172c        0x4 build/lcdc_rgba888_mxt_9x60_wvga/production/_ext/129784465/drv_gfx_lcdc.o
 .bss.drvLayer  0x24341730      0x168 build/lcdc_rgba888_mxt_9x60_wvga/production/_ext/129784465/drv_gfx_lcdc.o
 .bss.state     0x24341898        0x3 build/lcdc_rgba888_mxt_9x60_wvga/production/_ext/129784465/drv_gfx_lcdc.o
 *fill*         0x2434189b        0x1 
 .bss._initialized
                0x2434189c        0x4 build/lcdc_rgba888_mxt_9x60_wvga/production/_ext/1618192685/legato_state.o
                0x2434189c                _initialized
 .bss._state    0x243418a0      0x2ec build/lcdc_rgba888_mxt_9x60_wvga/production/_ext/1618192685/legato_state.o
 .bss._state    0x24341b8c       0x10 build/lcdc_rgba888_mxt_9x60_wvga/production/_ext/1618192685/legato_event.o
 .bss._state    0x24341b9c       0x24 build/lcdc_rgba888_mxt_9x60_wvga/production/_ext/1618192685/legato_input.o
 .bss.Screen0_ButtonWidget_0
                0x24341bc0        0x4 build/lcdc_rgba888_mxt_9x60_wvga/production/_ext/534613472/le_gen_screen_Screen0.o
                0x24341bc0                Screen0_ButtonWidget_0
 .bss.Screen0_ImageWidget_0
                0x24341bc4        0x4 build/lcdc_rgba888_mxt_9x60_wvga/production/_ext/534613472/le_gen_screen_Screen0.o
                0x24341bc4                Screen0_ImageWidget_0
 .bss.Screen0_ImageWidget_1
                0x24341bc8        0x4 build/lcdc_rgba888_mxt_9x60_wvga/production/_ext/534613472/le_gen_screen_Screen0.o
                0x24341bc8                Screen0_ImageWidget_1
 .bss.Screen0_LabelWidget_0
                0x24341bcc        0x4 build/lcdc_rgba888_mxt_9x60_wvga/production/_ext/534613472/le_gen_screen_Screen0.o
                0x24341bcc                Screen0_LabelWidget_0
 .bss.Screen0_PanelWidget_0
                0x24341bd0        0x4 build/lcdc_rgba888_mxt_9x60_wvga/production/_ext/534613472/le_gen_screen_Screen0.o
                0x24341bd0                Screen0_PanelWidget_0
 .bss.Screen0_RectangleWidget_0
                0x24341bd4        0x4 build/lcdc_rgba888_mxt_9x60_wvga/production/_ext/534613472/le_gen_screen_Screen0.o
                0x24341bd4                Screen0_RectangleWidget_0
 .bss.initialized
                0x24341bd8        0x1 build/lcdc_rgba888_mxt_9x60_wvga/production/_ext/534613472/le_gen_screen_Screen0.o
 *fill*         0x24341bd9        0x3 
 .bss.root0     0x24341bdc        0x4 build/lcdc_rgba888_mxt_9x60_wvga/production/_ext/534613472/le_gen_screen_Screen0.o
 .bss.root1     0x24341be0        0x4 build/lcdc_rgba888_mxt_9x60_wvga/production/_ext/534613472/le_gen_screen_Screen0.o
 .bss.root2     0x24341be4        0x4 build/lcdc_rgba888_mxt_9x60_wvga/production/_ext/534613472/le_gen_screen_Screen0.o
 .bss.showing   0x24341be8        0x1 build/lcdc_rgba888_mxt_9x60_wvga/production/_ext/534613472/le_gen_screen_Screen0.o
 *fill*         0x24341be9        0x3 
 .bss.Screen1_ButtonWidget_minus
                0x24341bec        0x4 build/lcdc_rgba888_mxt_9x60_wvga/production/_ext/534613472/le_gen_screen_Screen1.o
                0x24341bec                Screen1_ButtonWidget_minus
 .bss.Screen1_ButtonWidget_plus
                0x24341bf0        0x4 build/lcdc_rgba888_mxt_9x60_wvga/production/_ext/534613472/le_gen_screen_Screen1.o
                0x24341bf0                Screen1_ButtonWidget_plus
 .bss.Screen1_ImageWidget_0
                0x24341bf4        0x4 build/lcdc_rgba888_mxt_9x60_wvga/production/_ext/534613472/le_gen_screen_Screen1.o
                0x24341bf4                Screen1_ImageWidget_0
 .bss.Screen1_ImageWidget_1
                0x24341bf8        0x4 build/lcdc_rgba888_mxt_9x60_wvga/production/_ext/534613472/le_gen_screen_Screen1.o
                0x24341bf8                Screen1_ImageWidget_1
 .bss.Screen1_ImageWidget_2
                0x24341bfc        0x4 build/lcdc_rgba888_mxt_9x60_wvga/production/_ext/534613472/le_gen_screen_Screen1.o
                0x24341bfc                Screen1_ImageWidget_2
 .bss.Screen1_LabelWidget_0
                0x24341c00        0x4 build/lcdc_rgba888_mxt_9x60_wvga/production/_ext/534613472/le_gen_screen_Screen1.o
                0x24341c00                Screen1_LabelWidget_0
 .bss.Screen1_LabelWidget_1
                0x24341c04        0x4 build/lcdc_rgba888_mxt_9x60_wvga/production/_ext/534613472/le_gen_screen_Screen1.o
                0x24341c04                Screen1_LabelWidget_1
 .bss.Screen1_LabelWidget_10
                0x24341c08        0x4 build/lcdc_rgba888_mxt_9x60_wvga/production/_ext/534613472/le_gen_screen_Screen1.o
                0x24341c08                Screen1_LabelWidget_10
 .bss.Screen1_LabelWidget_11
                0x24341c0c        0x4 build/lcdc_rgba888_mxt_9x60_wvga/production/_ext/534613472/le_gen_screen_Screen1.o
                0x24341c0c                Screen1_LabelWidget_11
 .bss.Screen1_LabelWidget_12
                0x24341c10        0x4 build/lcdc_rgba888_mxt_9x60_wvga/production/_ext/534613472/le_gen_screen_Screen1.o
                0x24341c10                Screen1_LabelWidget_12
 .bss.Screen1_LabelWidget_13
                0x24341c14        0x4 build/lcdc_rgba888_mxt_9x60_wvga/production/_ext/534613472/le_gen_screen_Screen1.o
                0x24341c14                Screen1_LabelWidget_13
 .bss.Screen1_LabelWidget_2
                0x24341c18        0x4 build/lcdc_rgba888_mxt_9x60_wvga/production/_ext/534613472/le_gen_screen_Screen1.o
                0x24341c18                Screen1_LabelWidget_2
 .bss.Screen1_LabelWidget_3
                0x24341c1c        0x4 build/lcdc_rgba888_mxt_9x60_wvga/production/_ext/534613472/le_gen_screen_Screen1.o
                0x24341c1c                Screen1_LabelWidget_3
 .bss.Screen1_LabelWidget_4
                0x24341c20        0x4 build/lcdc_rgba888_mxt_9x60_wvga/production/_ext/534613472/le_gen_screen_Screen1.o
                0x24341c20                Screen1_LabelWidget_4
 .bss.Screen1_LabelWidget_5
                0x24341c24        0x4 build/lcdc_rgba888_mxt_9x60_wvga/production/_ext/534613472/le_gen_screen_Screen1.o
                0x24341c24                Screen1_LabelWidget_5
 .bss.Screen1_LabelWidget_6
                0x24341c28        0x4 build/lcdc_rgba888_mxt_9x60_wvga/production/_ext/534613472/le_gen_screen_Screen1.o
                0x24341c28                Screen1_LabelWidget_6
 .bss.Screen1_LabelWidget_7
                0x24341c2c        0x4 build/lcdc_rgba888_mxt_9x60_wvga/production/_ext/534613472/le_gen_screen_Screen1.o
                0x24341c2c                Screen1_LabelWidget_7
 .bss.Screen1_LabelWidget_8
                0x24341c30        0x4 build/lcdc_rgba888_mxt_9x60_wvga/production/_ext/534613472/le_gen_screen_Screen1.o
                0x24341c30                Screen1_LabelWidget_8
 .bss.Screen1_LabelWidget_9
                0x24341c34        0x4 build/lcdc_rgba888_mxt_9x60_wvga/production/_ext/534613472/le_gen_screen_Screen1.o
                0x24341c34                Screen1_LabelWidget_9
 .bss.Screen1_PanelWidget_0
                0x24341c38        0x4 build/lcdc_rgba888_mxt_9x60_wvga/production/_ext/534613472/le_gen_screen_Screen1.o
                0x24341c38                Screen1_PanelWidget_0
 .bss.Screen1_RectangleWidget_0
                0x24341c3c        0x4 build/lcdc_rgba888_mxt_9x60_wvga/production/_ext/534613472/le_gen_screen_Screen1.o
                0x24341c3c                Screen1_RectangleWidget_0
 .bss.Screen1_RectangleWidget_1
                0x24341c40        0x4 build/lcdc_rgba888_mxt_9x60_wvga/production/_ext/534613472/le_gen_screen_Screen1.o
                0x24341c40                Screen1_RectangleWidget_1
 .bss.Screen1_RectangleWidget_2
                0x24341c44        0x4 build/lcdc_rgba888_mxt_9x60_wvga/production/_ext/534613472/le_gen_screen_Screen1.o
                0x24341c44                Screen1_RectangleWidget_2
 .bss.Screen1_RectangleWidget_3
                0x24341c48        0x4 build/lcdc_rgba888_mxt_9x60_wvga/production/_ext/534613472/le_gen_screen_Screen1.o
                0x24341c48                Screen1_RectangleWidget_3
 .bss.Screen1_RectangleWidget_4
                0x24341c4c        0x4 build/lcdc_rgba888_mxt_9x60_wvga/production/_ext/534613472/le_gen_screen_Screen1.o
                0x24341c4c                Screen1_RectangleWidget_4
 .bss.Screen1_rtc_label
                0x24341c50        0x4 build/lcdc_rgba888_mxt_9x60_wvga/production/_ext/534613472/le_gen_screen_Screen1.o
                0x24341c50                Screen1_rtc_label
 .bss.initialized
                0x24341c54        0x1 build/lcdc_rgba888_mxt_9x60_wvga/production/_ext/534613472/le_gen_screen_Screen1.o
 *fill*         0x24341c55        0x3 
 .bss.root0     0x24341c58        0x4 build/lcdc_rgba888_mxt_9x60_wvga/production/_ext/534613472/le_gen_screen_Screen1.o
 .bss.root1     0x24341c5c        0x4 build/lcdc_rgba888_mxt_9x60_wvga/production/_ext/534613472/le_gen_screen_Screen1.o
 .bss.root2     0x24341c60        0x4 build/lcdc_rgba888_mxt_9x60_wvga/production/_ext/534613472/le_gen_screen_Screen1.o
 .bss.showing   0x24341c64        0x1 build/lcdc_rgba888_mxt_9x60_wvga/production/_ext/534613472/le_gen_screen_Screen1.o
 *fill*         0x24341c65        0x3 
 .bss.changingToScreen
                0x24341c68        0x4 build/lcdc_rgba888_mxt_9x60_wvga/production/_ext/706129189/le_gen_init.o
 .bss.currentScreen
                0x24341c6c        0x4 build/lcdc_rgba888_mxt_9x60_wvga/production/_ext/706129189/le_gen_init.o
 .bss.string_Easy
                0x24341c70       0x1c build/lcdc_rgba888_mxt_9x60_wvga/production/_ext/706129189/le_gen_stringtable.o
                0x24341c70                string_Easy
 .bss.string_Fast
                0x24341c8c       0x1c build/lcdc_rgba888_mxt_9x60_wvga/production/_ext/706129189/le_gen_stringtable.o
                0x24341c8c                string_Fast
 .bss.string_Notice
                0x24341ca8       0x1c build/lcdc_rgba888_mxt_9x60_wvga/production/_ext/706129189/le_gen_stringtable.o
                0x24341ca8                string_Notice
 .bss.string_Smart
                0x24341cc4       0x1c build/lcdc_rgba888_mxt_9x60_wvga/production/_ext/706129189/le_gen_stringtable.o
                0x24341cc4                string_Smart
 .bss.string_ctime
                0x24341ce0       0x1c build/lcdc_rgba888_mxt_9x60_wvga/production/_ext/706129189/le_gen_stringtable.o
                0x24341ce0                string_ctime
 .bss.string_ctime_label
                0x24341cfc       0x1c build/lcdc_rgba888_mxt_9x60_wvga/production/_ext/706129189/le_gen_stringtable.o
                0x24341cfc                string_ctime_label
 .bss.string_ctime_unit
                0x24341d18       0x1c build/lcdc_rgba888_mxt_9x60_wvga/production/_ext/706129189/le_gen_stringtable.o
                0x24341d18                string_ctime_unit
 .bss.string_denergy_label
                0x24341d34       0x1c build/lcdc_rgba888_mxt_9x60_wvga/production/_ext/706129189/le_gen_stringtable.o
                0x24341d34                string_denergy_label
 .bss.string_energy
                0x24341d50       0x1c build/lcdc_rgba888_mxt_9x60_wvga/production/_ext/706129189/le_gen_stringtable.o
                0x24341d50                string_energy
 .bss.string_energy_unit
                0x24341d6c       0x1c build/lcdc_rgba888_mxt_9x60_wvga/production/_ext/706129189/le_gen_stringtable.o
                0x24341d6c                string_energy_unit
 .bss.string_evcharger
                0x24341d88       0x1c build/lcdc_rgba888_mxt_9x60_wvga/production/_ext/706129189/le_gen_stringtable.o
                0x24341d88                string_evcharger
 .bss.string_op_label
                0x24341da4       0x1c build/lcdc_rgba888_mxt_9x60_wvga/production/_ext/706129189/le_gen_stringtable.o
                0x24341da4                string_op_label
 .bss.string_pwr
                0x24341dc0       0x1c build/lcdc_rgba888_mxt_9x60_wvga/production/_ext/706129189/le_gen_stringtable.o
                0x24341dc0                string_pwr
 .bss.string_pwr_unit
                0x24341ddc       0x1c build/lcdc_rgba888_mxt_9x60_wvga/production/_ext/706129189/le_gen_stringtable.o
                0x24341ddc                string_pwr_unit
 .bss.string_remaining_charge
                0x24341df8       0x1c build/lcdc_rgba888_mxt_9x60_wvga/production/_ext/706129189/le_gen_stringtable.o
                0x24341df8                string_remaining_charge
 .bss.string_rtc
                0x24341e14       0x1c build/lcdc_rgba888_mxt_9x60_wvga/production/_ext/706129189/le_gen_stringtable.o
                0x24341e14                string_rtc
 .bss.string_rtime
                0x24341e30       0x1c build/lcdc_rgba888_mxt_9x60_wvga/production/_ext/706129189/le_gen_stringtable.o
                0x24341e30                string_rtime
 .bss.string_rtime_unit
                0x24341e4c       0x1c build/lcdc_rgba888_mxt_9x60_wvga/production/_ext/706129189/le_gen_stringtable.o
                0x24341e4c                string_rtime_unit
 .bss.string_time_label
                0x24341e68       0x1c build/lcdc_rgba888_mxt_9x60_wvga/production/_ext/706129189/le_gen_stringtable.o
                0x24341e68                string_time_label
 .bss.gfxGPUInterface
                0x24341e84       0x1c build/lcdc_rgba888_mxt_9x60_wvga/production/_ext/706129189/le_gen_harmony.o
 .bss.inputListener
                0x24341ea0       0x34 build/lcdc_rgba888_mxt_9x60_wvga/production/_ext/706129189/le_gen_harmony.o
                0x24341ea0                inputListener
 .bss.legatoState
                0x24341ed4        0x1 build/lcdc_rgba888_mxt_9x60_wvga/production/_ext/706129189/le_gen_harmony.o
 *fill*         0x24341ed5        0x3 
 .bss.JPEG_JpegDecoder.7401
                0x24341ed8      0xa10 build/lcdc_rgba888_mxt_9x60_wvga/production/_ext/2086705360/legato_imagedecoder_jpeg.o
 .bss.JPEG_JpegDecoder.7418
                0x243428e8      0xa10 build/lcdc_rgba888_mxt_9x60_wvga/production/_ext/2086705360/legato_imagedecoder_jpeg.o
 *fill*         0x243432f8        0x8 
 .bss.decoder   0x24343300       0x2c build/lcdc_rgba888_mxt_9x60_wvga/production/_ext/2086705360/legato_imagedecoder_jpeg.o
 .bss.whblocks.7397
                0x2434332c        0x2 build/lcdc_rgba888_mxt_9x60_wvga/production/_ext/2086705360/legato_imagedecoder_jpeg.o
 .bss.whblocks.7414
                0x2434332e        0x2 build/lcdc_rgba888_mxt_9x60_wvga/production/_ext/2086705360/legato_imagedecoder_jpeg.o
 .bss.wi.7399   0x24343330        0x2 build/lcdc_rgba888_mxt_9x60_wvga/production/_ext/2086705360/legato_imagedecoder_jpeg.o
 .bss.wi.7416   0x24343332        0x2 build/lcdc_rgba888_mxt_9x60_wvga/production/_ext/2086705360/legato_imagedecoder_jpeg.o
 .bss.wj.7400   0x24343334        0x2 build/lcdc_rgba888_mxt_9x60_wvga/production/_ext/2086705360/legato_imagedecoder_jpeg.o
 .bss.wj.7417   0x24343336        0x2 build/lcdc_rgba888_mxt_9x60_wvga/production/_ext/2086705360/legato_imagedecoder_jpeg.o
 .bss.wvblocks.7398
                0x24343338        0x2 build/lcdc_rgba888_mxt_9x60_wvga/production/_ext/2086705360/legato_imagedecoder_jpeg.o
 .bss.wvblocks.7415
                0x2434333a        0x2 build/lcdc_rgba888_mxt_9x60_wvga/production/_ext/2086705360/legato_imagedecoder_jpeg.o
 .bss.bBlock.5347
                0x2434333c        0x1 build/lcdc_rgba888_mxt_9x60_wvga/production/_ext/2086705360/legato_imagedecoder_jpeg_common.o
 *fill*         0x2434333d        0x3 
 .bss.psCb.5342
                0x24343340        0x4 build/lcdc_rgba888_mxt_9x60_wvga/production/_ext/2086705360/legato_imagedecoder_jpeg_common.o
 .bss.psCr.5343
                0x24343344        0x4 build/lcdc_rgba888_mxt_9x60_wvga/production/_ext/2086705360/legato_imagedecoder_jpeg_common.o
 .bss.psY.5341  0x24343348        0x4 build/lcdc_rgba888_mxt_9x60_wvga/production/_ext/2086705360/legato_imagedecoder_jpeg_common.o
 .bss.s2.5345   0x2434334c        0x4 build/lcdc_rgba888_mxt_9x60_wvga/production/_ext/2086705360/legato_imagedecoder_jpeg_common.o
 .bss.s3.5346   0x24343350        0x4 build/lcdc_rgba888_mxt_9x60_wvga/production/_ext/2086705360/legato_imagedecoder_jpeg_common.o
 .bss.shiftX.5354
                0x24343354        0x1 build/lcdc_rgba888_mxt_9x60_wvga/production/_ext/2086705360/legato_imagedecoder_jpeg_common.o
 .bss.shiftY.5355
                0x24343355        0x1 build/lcdc_rgba888_mxt_9x60_wvga/production/_ext/2086705360/legato_imagedecoder_jpeg_common.o
 .bss.wX.5334   0x24343356        0x2 build/lcdc_rgba888_mxt_9x60_wvga/production/_ext/2086705360/legato_imagedecoder_jpeg_common.o
 .bss.wX2.5336  0x24343358        0x2 build/lcdc_rgba888_mxt_9x60_wvga/production/_ext/2086705360/legato_imagedecoder_jpeg_common.o
 .bss.wXPos.5351
                0x2434335a        0x2 build/lcdc_rgba888_mxt_9x60_wvga/production/_ext/2086705360/legato_imagedecoder_jpeg_common.o
 .bss.wY.5335   0x2434335c        0x2 build/lcdc_rgba888_mxt_9x60_wvga/production/_ext/2086705360/legato_imagedecoder_jpeg_common.o
 .bss.wYPos.5352
                0x2434335e        0x2 build/lcdc_rgba888_mxt_9x60_wvga/production/_ext/2086705360/legato_imagedecoder_jpeg_common.o
 .bss.wYPos2.5353
                0x24343360        0x2 build/lcdc_rgba888_mxt_9x60_wvga/production/_ext/2086705360/legato_imagedecoder_jpeg_common.o
 *fill*         0x24343362       0x1e 
 .bss.internalReadStage
                0x24343380        0xc build/lcdc_rgba888_mxt_9x60_wvga/production/_ext/2086794059/legato_imagedecoder_mono_read_internal.o
 *fill*         0x2434338c       0x14 
 .bss._decoder  0x243433a0       0x2c build/lcdc_rgba888_mxt_9x60_wvga/production/_ext/2086794059/legato_imagedecoder_mono.o
 *fill*         0x243433cc       0x14 
 .bss._state    0x243433e0       0xc8 build/lcdc_rgba888_mxt_9x60_wvga/production/_ext/2086794059/legato_imagedecoder_mono.o
 .bss.frameBufferWriteStage
                0x243434a8        0xc build/lcdc_rgba888_mxt_9x60_wvga/production/_ext/2086794059/legato_imagedecoder_mono.o
 .bss.imageWriteStage
                0x243434b4        0xc build/lcdc_rgba888_mxt_9x60_wvga/production/_ext/2086794059/legato_imagedecoder_mono.o
 .bss.setupStage
                0x243434c0        0xc build/lcdc_rgba888_mxt_9x60_wvga/production/_ext/2086794059/legato_imagedecoder_mono.o
 *fill*         0x243434cc       0x14 
 .bss.decodedImage
                0x243434e0       0x3c build/lcdc_rgba888_mxt_9x60_wvga/production/_ext/1872343871/legato_imagedecoder_png.o
 *fill*         0x2434351c        0x4 
 .bss.decoder   0x24343520       0x2c build/lcdc_rgba888_mxt_9x60_wvga/production/_ext/1872343871/legato_imagedecoder_png.o
 .bss.setupStage
                0x2434354c        0xc build/lcdc_rgba888_mxt_9x60_wvga/production/_ext/1872342336/legato_imagedecoder_raw_setup.o
 .bss.postReadStage
                0x24343558        0xc build/lcdc_rgba888_mxt_9x60_wvga/production/_ext/1872342336/legato_imagedecoder_raw_scale.o
 .bss.scaledBilinearPostReadStage
                0x24343564        0xc build/lcdc_rgba888_mxt_9x60_wvga/production/_ext/1872342336/legato_imagedecoder_raw_scale.o
 .bss.scaledBilinearPreReadStage
                0x24343570       0x1c build/lcdc_rgba888_mxt_9x60_wvga/production/_ext/1872342336/legato_imagedecoder_raw_scale.o
 .bss.scaledNearestNeighborPreReadStage
                0x2434358c       0x14 build/lcdc_rgba888_mxt_9x60_wvga/production/_ext/1872342336/legato_imagedecoder_raw_scale.o
 .bss._decoder  0x243435a0       0x2c build/lcdc_rgba888_mxt_9x60_wvga/production/_ext/1872342336/legato_imagedecoder_raw.o
 *fill*         0x243435cc       0x14 
 .bss._state    0x243435e0       0xf4 build/lcdc_rgba888_mxt_9x60_wvga/production/_ext/1872342336/legato_imagedecoder_raw.o
 *fill*         0x243436d4        0xc 
 .bss.internalReadStage
                0x243436e0       0x20 build/lcdc_rgba888_mxt_9x60_wvga/production/_ext/1872342336/legato_imagedecoder_raw_read_internal.o
 .bss.frameBufferWriteStage
                0x24343700        0xc build/lcdc_rgba888_mxt_9x60_wvga/production/_ext/1872342336/legato_imagedecoder_raw_write.o
 .bss.imageWriteStage
                0x2434370c        0xc build/lcdc_rgba888_mxt_9x60_wvga/production/_ext/1872342336/legato_imagedecoder_raw_write.o
 *fill*         0x24343718        0x8 
 .bss.blendStage
                0x24343720        0xc build/lcdc_rgba888_mxt_9x60_wvga/production/_ext/1872342336/legato_imagedecoder_raw_blend.o
 .bss.maskStage
                0x2434372c        0xc build/lcdc_rgba888_mxt_9x60_wvga/production/_ext/1872342336/legato_imagedecoder_raw_mask.o
                0x2434372c                maskStage
 *fill*         0x24343738        0x8 
 .bss.convertStage
                0x24343740       0x10 build/lcdc_rgba888_mxt_9x60_wvga/production/_ext/1872342336/legato_imagedecoder_raw_convert.o
 .bss.lePoint_Zero
                0x24343750        0x8 build/lcdc_rgba888_mxt_9x60_wvga/production/_ext/1872342336/legato_imagedecoder_raw_rotate.o
 .bss.rotateBilinearPostReadStage
                0x24343758        0xc build/lcdc_rgba888_mxt_9x60_wvga/production/_ext/1872342336/legato_imagedecoder_raw_rotate.o
 .bss.rotateBilinearPreReadStage
                0x24343764       0x14 build/lcdc_rgba888_mxt_9x60_wvga/production/_ext/1872342336/legato_imagedecoder_raw_rotate.o
 .bss.rotateNearestNeighborPreReadStage
                0x24343778        0xc build/lcdc_rgba888_mxt_9x60_wvga/production/_ext/1872342336/legato_imagedecoder_raw_rotate.o
 .bss.imageRenderPostLookupStage
                0x24343784        0xc build/lcdc_rgba888_mxt_9x60_wvga/production/_ext/1872342336/legato_imagedecoder_raw_palette_internal.o
 *fill*         0x24343790       0x10 
 .bss.paletteStage
                0x243437a0       0x14 build/lcdc_rgba888_mxt_9x60_wvga/production/_ext/1872342336/legato_imagedecoder_raw_palette_internal.o
 .bss.decoders  0x243437b4       0x28 build/lcdc_rgba888_mxt_9x60_wvga/production/_ext/1381099687/legato_image.o
 *fill*         0x243437dc        0x4 
 .bss.fixedHeap128
                0x243437e0     0x1000 build/lcdc_rgba888_mxt_9x60_wvga/production/_ext/28088523/legato_memory.o
 .bss.fixedHeap16
                0x243447e0     0x12c0 build/lcdc_rgba888_mxt_9x60_wvga/production/_ext/28088523/legato_memory.o
 .bss.fixedHeap196
                0x24345aa0     0x24c0 build/lcdc_rgba888_mxt_9x60_wvga/production/_ext/28088523/legato_memory.o
 .bss.fixedHeap256
                0x24347f60     0x1800 build/lcdc_rgba888_mxt_9x60_wvga/production/_ext/28088523/legato_memory.o
 .bss.fixedHeap32
                0x24349760      0xc00 build/lcdc_rgba888_mxt_9x60_wvga/production/_ext/28088523/legato_memory.o
 .bss.fixedHeap64
                0x2434a360     0x1800 build/lcdc_rgba888_mxt_9x60_wvga/production/_ext/28088523/legato_memory.o
 .bss.fixedHeaps
                0x2434bb60       0xe0 build/lcdc_rgba888_mxt_9x60_wvga/production/_ext/28088523/legato_memory.o
 .bss.variableHeap
                0x2434bc40       0x24 build/lcdc_rgba888_mxt_9x60_wvga/production/_ext/28088523/legato_memory.o
 *fill*         0x2434bc64       0x1c 
 .bss.variableHeapData
                0x2434bc80    0x40000 build/lcdc_rgba888_mxt_9x60_wvga/production/_ext/28088523/legato_memory.o
 .bss._rendererState
                0x2438bc80       0x48 build/lcdc_rgba888_mxt_9x60_wvga/production/_ext/1081070089/legato_renderer.o
                0x2438bc80                _rendererState
 *fill*         0x2438bcc8       0x18 
 .bss._scratchBuffers
                0x2438bce0       0x3c build/lcdc_rgba888_mxt_9x60_wvga/production/_ext/1081070089/legato_renderer.o
 .bss._state    0x2438bd1c        0x4 build/lcdc_rgba888_mxt_9x60_wvga/production/_ext/1081070089/legato_renderer.o
 .bss.maxScratchPixels
                0x2438bd20        0x4 build/lcdc_rgba888_mxt_9x60_wvga/production/_ext/1081070089/legato_renderer.o
 .bss._alphaColorMode
                0x2438bd24        0x1 build/lcdc_rgba888_mxt_9x60_wvga/production/_ext/1081070089/legato_draw.o
 .bss._currentMode
                0x2438bd25        0x1 build/lcdc_rgba888_mxt_9x60_wvga/production/_ext/1081070089/legato_draw.o
 *fill*         0x2438bd26        0x2 
 .bss._drawFunction
                0x2438bd28       0x10 build/lcdc_rgba888_mxt_9x60_wvga/production/_ext/1081070089/legato_draw.o
 .bss.paintState
                0x2438bd38        0x4 build/lcdc_rgba888_mxt_9x60_wvga/production/_ext/1339002025/legato_widget_button_skin_classic.o
 .bss.leRect_Zero
                0x2438bd3c        0x8 build/lcdc_rgba888_mxt_9x60_wvga/production/_ext/1197524732/legato_widget_image_skin_classic.o
 .bss.paintState
                0x2438bd44        0x4 build/lcdc_rgba888_mxt_9x60_wvga/production/_ext/1197524732/legato_widget_image_skin_classic.o
 .bss.leRect_Zero
                0x2438bd48        0x8 build/lcdc_rgba888_mxt_9x60_wvga/production/_ext/1195110755/legato_widget_label_skin_classic.o
 .bss.paintState
                0x2438bd50        0x4 build/lcdc_rgba888_mxt_9x60_wvga/production/_ext/1195110755/legato_widget_label_skin_classic.o
 .bss.paintState
                0x2438bd54        0x4 build/lcdc_rgba888_mxt_9x60_wvga/production/_ext/337100648/legato_widget_rectangle_skin_classic.o
 .bss.paintState
                0x2438bd58        0x4 build/lcdc_rgba888_mxt_9x60_wvga/production/_ext/261620856/legato_widget_skin_classic.o
 .bss.flexcom6TwiObj
                0x2438bd5c       0x28 build/lcdc_rgba888_mxt_9x60_wvga/production/_ext/813772974/plib_flexcom6_twi_master.o
 .bss.LCDC_IRQ_CallbackObj
                0x2438bd84        0x8 build/lcdc_rgba888_mxt_9x60_wvga/production/_ext/154914322/plib_lcdc.o
                0x2438bd84                LCDC_IRQ_CallbackObj
 *fill*         0x2438bd8c      0x274 
 .bss.trns_tbl  0x2438c000     0x4000 build/lcdc_rgba888_mxt_9x60_wvga/production/_ext/4998521/plib_mmu.o
 .bss.TC0_CH0_CallbackObj
                0x24390000        0x8 build/lcdc_rgba888_mxt_9x60_wvga/production/_ext/1247087435/plib_tc0.o
                0x24390000                TC0_CH0_CallbackObj
 .bss.TC0_CH2_CallbackObj
                0x24390008        0x8 build/lcdc_rgba888_mxt_9x60_wvga/production/_ext/1247087435/plib_tc0.o
                0x24390008                TC0_CH2_CallbackObj
 .bss.eventCount
                0x24390010        0x4 build/lcdc_rgba888_mxt_9x60_wvga/production/_ext/1414187873/sys_input.o
                0x24390010                eventCount
 .bss.generalEvents
                0x24390014      0x200 build/lcdc_rgba888_mxt_9x60_wvga/production/_ext/1414187873/sys_input.o
                0x24390014                generalEvents
 .bss.listenerFlags
                0x24390214        0x2 build/lcdc_rgba888_mxt_9x60_wvga/production/_ext/1414187873/sys_input.o
                0x24390214                listenerFlags
 *fill*         0x24390216        0x2 
 .bss.listeners
                0x24390218       0x68 build/lcdc_rgba888_mxt_9x60_wvga/production/_ext/1414187873/sys_input.o
                0x24390218                listeners
 .bss.gSystemCounterObj
                0x24390280       0x40 build/lcdc_rgba888_mxt_9x60_wvga/production/_ext/1812361045/sys_time.o
 .bss.timers    0x243902c0       0xa0 build/lcdc_rgba888_mxt_9x60_wvga/production/_ext/1812361045/sys_time.o
 .bss.drvI2C0ClientObjPool
                0x24390360       0x18 build/lcdc_rgba888_mxt_9x60_wvga/production/_ext/2052985144/initialization.o
 .bss.drvI2C0TransferObj
                0x24390378       0x58 build/lcdc_rgba888_mxt_9x60_wvga/production/_ext/2052985144/initialization.o
 .bss.sysObj    0x243903d0        0xc build/lcdc_rgba888_mxt_9x60_wvga/production/_ext/2052985144/initialization.o
                0x243903d0                sysObj
 .bss.spuriousEventCount
                0x243903dc        0x4 build/lcdc_rgba888_mxt_9x60_wvga/production/_ext/2052985144/interrupts.o
                0x243903dc                spuriousEventCount
 .bss.appData   0x243903e0        0x1 build/lcdc_rgba888_mxt_9x60_wvga/production/_ext/1360937237/app.o
                0x243903e0                appData
 *fill*         0x243903e1        0x3 
 .bss.rtc       0x243903e4        0x8 build/lcdc_rgba888_mxt_9x60_wvga/production/_ext/5003525/plib_rtc.o
 .bss.anim_cnt  0x243903ec        0x1 build/lcdc_rgba888_mxt_9x60_wvga/production/_ext/1360937237/app_screen1.o
 *fill*         0x243903ed        0x3 
 .bss.currentTime
                0x243903f0       0x2c build/lcdc_rgba888_mxt_9x60_wvga/production/_ext/1360937237/app_screen1.o
                0x243903f0                currentTime
 .bss.imgAnim   0x2439041c      0x348 build/lcdc_rgba888_mxt_9x60_wvga/production/_ext/1360937237/app_screen1.o
                0x2439041c                imgAnim
 .bss.lastminute
                0x24390764        0x4 build/lcdc_rgba888_mxt_9x60_wvga/production/_ext/1360937237/app_screen1.o
                0x24390764                lastminute
 .bss.p_legatoTimeBuff
                0x24390768       0x24 build/lcdc_rgba888_mxt_9x60_wvga/production/_ext/1360937237/app_screen1.o
 .bss.p_timecharbuff
                0x2439078c       0x12 build/lcdc_rgba888_mxt_9x60_wvga/production/_ext/1360937237/app_screen1.o
 *fill*         0x2439079e        0x2 
 .bss.p_timestring
                0x243907a0       0x24 build/lcdc_rgba888_mxt_9x60_wvga/production/_ext/1360937237/app_screen1.o
                0x243907a0                p_timestring
 .bss.prev_tick
                0x243907c4        0x4 build/lcdc_rgba888_mxt_9x60_wvga/production/_ext/1360937237/app_screen1.o
 .bss.tick      0x243907c8        0x4 build/lcdc_rgba888_mxt_9x60_wvga/production/_ext/1360937237/app_screen1.o
 .bss.activeCanvasID
                0x243907cc        0x4 build/lcdc_rgba888_mxt_9x60_wvga/production/_ext/1121151461/gfx_canvas.o
 .bss.baseCanvasID
                0x243907d0        0x4 build/lcdc_rgba888_mxt_9x60_wvga/production/_ext/1121151461/gfx_canvas.o
 .bss.canvas    0x243907d4      0x1a0 build/lcdc_rgba888_mxt_9x60_wvga/production/_ext/1121151461/gfx_canvas.o
                0x243907d4                canvas
 .bss.displayHeight
                0x24390974        0x4 build/lcdc_rgba888_mxt_9x60_wvga/production/_ext/1121151461/gfx_canvas.o
 .bss.displayWidth
                0x24390978        0x4 build/lcdc_rgba888_mxt_9x60_wvga/production/_ext/1121151461/gfx_canvas.o
 .bss.effectsTick
                0x2439097c        0x4 build/lcdc_rgba888_mxt_9x60_wvga/production/_ext/1121151461/gfx_canvas.o
 .bss.effectsTimer
                0x24390980        0x4 build/lcdc_rgba888_mxt_9x60_wvga/production/_ext/1121151461/gfx_canvas.o
 .bss.gfxcState
                0x24390984        0x1 build/lcdc_rgba888_mxt_9x60_wvga/production/_ext/1121151461/gfx_canvas.o
 *fill*         0x24390985        0x3 
 .bss.oldEffectsTick
                0x24390988        0x4 build/lcdc_rgba888_mxt_9x60_wvga/production/_ext/1121151461/gfx_canvas.o
 .bss           0x2439098c        0x4 c:/program files/microchip/xc32/v4.20/bin/bin/../../lib/gcc/pic32c/8.3.1/../../../../pic32c/lib/arm/v5te/nofp\libpic32c.a(data_init_0_1.o)
 .bss           0x24390990       0x50 c:/program files/microchip/xc32/v4.20/bin/bin/../../lib/gcc/pic32c/8.3.1/../../../../pic32c/lib/arm/v5te/nofp\libc-musl.a(libc.o)
                0x24390990                __progname_full
                0x24390990                program_invocation_name
                0x24390994                program_invocation_short_name
                0x24390994                __progname
                0x24390998                __sysinfo
                0x2439099c                __hwcap
                0x243909a0                __libc
 .bss           0x243909e0        0x8 c:/program files/microchip/xc32/v4.20/bin/bin/../../lib/gcc/pic32c/8.3.1/../../../../pic32c/lib/arm/v5te/nofp\libc-musl.a(stdout.o)
                0x243909e4                __stdout_used
 .bss           0x243909e8        0x4 c:/program files/microchip/xc32/v4.20/bin/bin/../../lib/gcc/pic32c/8.3.1/../../../../pic32c/lib/arm/v5te/nofp\libc-musl.a(__environ.o)
                0x243909e8                __environ
                0x243909e8                environ
                0x243909e8                ___environ
                0x243909e8                _environ
 .bss           0x243909ec        0x4 c:/program files/microchip/xc32/v4.20/bin/bin/../../lib/gcc/pic32c/8.3.1/../../../../pic32c/lib/arm/v5te/nofp\libc-musl.a(__errno_location.o)
                0x243909ec                __errno_val
 *(COMMON)
                0x243909f0                . = ALIGN (0x4)
                0x243909f0                PROVIDE (_ezero = .)

.region_cache_aligned
                0x243909f0       0x10
                0x24390a00                . = ALIGN (0x20)
 *fill*         0x243909f0       0x10 
 *(.region_cache_aligned .region_cache_aligned.*)
                0x24390a00                . = ALIGN (0x20)

.stacks         0x24390a00     0x2140
                0x24390a60                . = (. + IRQ_STACK_SIZE)
 *fill*         0x24390a00       0x60 
                0x24390a60                . = ALIGN (0x8)
                0x24390a60                _irqstack = .
                0x24390ac0                . = (. + FIQ_STACK_SIZE)
 *fill*         0x24390a60       0x60 
                0x24390ac0                . = ALIGN (0x8)
                0x24390ac0                _fiqstack = .
                0x24390b00                . = (. + ABT_STACK_SIZE)
 *fill*         0x24390ac0       0x40 
                0x24390b00                . = ALIGN (0x8)
                0x24390b00                _abtstack = .
                0x24390b40                . = (. + UND_STACK_SIZE)
 *fill*         0x24390b00       0x40 
                0x24390b40                . = ALIGN (0x8)
                0x24390b40                _undstack = .
                0x24391b40                . = (. + SVC_STACK_SIZE)
 *fill*         0x24390b40     0x1000 
                0x24391b40                . = ALIGN (0x8)
                0x24391b40                _svcstack = .
                0x24392b40                . = (. + C_STACK_SIZE)
 *fill*         0x24391b40     0x1000 
                0x24392b40                . = ALIGN (0x8)
                0x24392b40                _cstack = .
                0x24392b40                _end = .
                0x24392b40                _ramcode_lma = _end

.ramcode        0x0030003c        0x0 load address 0x24392b40
                0x0030003c                _sramcode = .
 *(.ramcode_section .ramcode_section.*)
                0x0030003c                _eramcode = .
                0x24392b40                _ramdata_lma = ((_end + _eramcode) - _sramcode)

.ramdata        0x0030003c        0x0 load address 0x24392b40
                0x0030003c                _sramdata = .
 *(.ramdata_section .ramdata_section.*)
                0x0030003c                _eramdata = .
                0x00000200                _min_heap_size = 0x200
START GROUP
LOAD c:/program files/microchip/xc32/v4.20/bin/bin/../../lib/gcc/pic32c/8.3.1/../../../../pic32c/lib/arm/v5te/nofp\libpic32c.a
LOAD c:/program files/microchip/xc32/v4.20/bin/bin/../../lib/gcc/pic32c/8.3.1/arm/v5te/nofp\libgcc.a
LOAD c:/program files/microchip/xc32/v4.20/bin/bin/../../lib/gcc/pic32c/8.3.1/../../../../pic32c/lib/arm/v5te/nofp\libm-musl.a
LOAD c:/program files/microchip/xc32/v4.20/bin/bin/../../lib/gcc/pic32c/8.3.1/../../../../pic32c/lib/arm/v5te/nofp\libc-musl.a
LOAD c:/program files/microchip/xc32/v4.20/bin/bin/../../lib/gcc/pic32c/8.3.1/../../../../pic32c/lib/arm/v5te/nofp\libm-musl.a
END GROUP
LOAD c:/program files/microchip/xc32/v4.20/bin/bin/../../lib/gcc/pic32c/8.3.1/arm/v5te/nofp/crtend.o
LOAD c:/program files/microchip/xc32/v4.20/bin/bin/../../lib/gcc/pic32c/8.3.1/arm/v5te/nofp/crtn.o
OUTPUT(dist/lcdc_rgba888_mxt_9x60_wvga/production/evcharger_9x60_cu_tm5000.X.production.elf elf32-littlearm)
LOAD stack
LOAD data_init

.ARM.attributes
                0x00000000       0x2a
 .ARM.attributes
                0x00000000       0x1d c:/program files/microchip/xc32/v4.20/bin/bin/../../lib/gcc/pic32c/8.3.1/arm/v5te/nofp/crti.o
 .ARM.attributes
                0x0000001d       0x2b c:/program files/microchip/xc32/v4.20/bin/bin/../../lib/gcc/pic32c/8.3.1/arm/v5te/nofp/crtbegin.o
 .ARM.attributes
                0x00000048       0x2c build/lcdc_rgba888_mxt_9x60_wvga/production/_ext/236556520/bsp.o
 .ARM.attributes
                0x00000074       0x2c build/lcdc_rgba888_mxt_9x60_wvga/production/_ext/103208383/drv_i2c.o
 .ARM.attributes
                0x000000a0       0x2c build/lcdc_rgba888_mxt_9x60_wvga/production/_ext/1959449242/drv_maxtouch.o
 .ARM.attributes
                0x000000cc       0x2c build/lcdc_rgba888_mxt_9x60_wvga/production/_ext/1165331637/gfx_driver.o
 .ARM.attributes
                0x000000f8       0x2c build/lcdc_rgba888_mxt_9x60_wvga/production/_ext/129784465/drv_gfx_lcdc.o
 .ARM.attributes
                0x00000124       0x2c build/lcdc_rgba888_mxt_9x60_wvga/production/_ext/305146849/legato_math.o
 .ARM.attributes
                0x00000150       0x2c build/lcdc_rgba888_mxt_9x60_wvga/production/_ext/305146849/legato_color_blend.o
 .ARM.attributes
                0x0000017c       0x2c build/lcdc_rgba888_mxt_9x60_wvga/production/_ext/305146849/legato_color_convert.o
 .ARM.attributes
                0x000001a8       0x2c build/lcdc_rgba888_mxt_9x60_wvga/production/_ext/305146849/legato_rect.o
 .ARM.attributes
                0x000001d4       0x2c build/lcdc_rgba888_mxt_9x60_wvga/production/_ext/305146849/legato_utils.o
 .ARM.attributes
                0x00000200       0x2c build/lcdc_rgba888_mxt_9x60_wvga/production/_ext/305146849/legato_pixelbuffer.o
 .ARM.attributes
                0x0000022c       0x2c build/lcdc_rgba888_mxt_9x60_wvga/production/_ext/305146849/legato_color_lerp.o
 .ARM.attributes
                0x00000258       0x2c build/lcdc_rgba888_mxt_9x60_wvga/production/_ext/305146849/legato_color.o
 .ARM.attributes
                0x00000284       0x2c build/lcdc_rgba888_mxt_9x60_wvga/production/_ext/1618192685/legato_state.o
 .ARM.attributes
                0x000002b0       0x2c build/lcdc_rgba888_mxt_9x60_wvga/production/_ext/1618192685/legato_scheme.o
 .ARM.attributes
                0x000002dc       0x2c build/lcdc_rgba888_mxt_9x60_wvga/production/_ext/1618192685/legato_event.o
 .ARM.attributes
                0x00000308       0x2c build/lcdc_rgba888_mxt_9x60_wvga/production/_ext/1618192685/legato_input.o
 .ARM.attributes
                0x00000334       0x2c build/lcdc_rgba888_mxt_9x60_wvga/production/_ext/109670485/legato_rectarray.o
 .ARM.attributes
                0x00000360       0x2c build/lcdc_rgba888_mxt_9x60_wvga/production/_ext/109670485/legato_array.o
 .ARM.attributes
                0x0000038c       0x2c build/lcdc_rgba888_mxt_9x60_wvga/production/_ext/109670485/legato_list.o
 .ARM.attributes
                0x000003b8       0x2c build/lcdc_rgba888_mxt_9x60_wvga/production/_ext/1618103421/legato_font.o
 .ARM.attributes
                0x000003e4       0x32 build/lcdc_rgba888_mxt_9x60_wvga/production/_ext/644506877/le_gen_fonts.o
 .ARM.attributes
                0x00000416       0x32 build/lcdc_rgba888_mxt_9x60_wvga/production/_ext/1497821479/le_gen_images.o
 .ARM.attributes
                0x00000448       0x2c build/lcdc_rgba888_mxt_9x60_wvga/production/_ext/534613472/le_gen_screen_Screen0.o
 .ARM.attributes
                0x00000474       0x2c build/lcdc_rgba888_mxt_9x60_wvga/production/_ext/534613472/le_gen_screen_Screen1.o
 .ARM.attributes
                0x000004a0       0x2c build/lcdc_rgba888_mxt_9x60_wvga/production/_ext/706129189/le_gen_init.o
 .ARM.attributes
                0x000004cc       0x32 build/lcdc_rgba888_mxt_9x60_wvga/production/_ext/706129189/le_gen_globalpalette.o
 .ARM.attributes
                0x000004fe       0x32 build/lcdc_rgba888_mxt_9x60_wvga/production/_ext/706129189/le_gen_scheme.o
 .ARM.attributes
                0x00000530       0x2c build/lcdc_rgba888_mxt_9x60_wvga/production/_ext/706129189/le_gen_stringtable.o
 .ARM.attributes
                0x0000055c       0x2c build/lcdc_rgba888_mxt_9x60_wvga/production/_ext/706129189/le_gen_harmony.o
 .ARM.attributes
                0x00000588       0x2c build/lcdc_rgba888_mxt_9x60_wvga/production/_ext/2086705360/legato_imagedecoder_jpeg.o
 .ARM.attributes
                0x000005b4       0x2c build/lcdc_rgba888_mxt_9x60_wvga/production/_ext/2086705360/legato_imagedecoder_jpeg_common.o
 .ARM.attributes
                0x000005e0       0x2c build/lcdc_rgba888_mxt_9x60_wvga/production/_ext/2086705360/jidctint.o
 .ARM.attributes
                0x0000060c       0x2c build/lcdc_rgba888_mxt_9x60_wvga/production/_ext/2086794059/legato_imagedecoder_mono_read_internal.o
 .ARM.attributes
                0x00000638       0x2c build/lcdc_rgba888_mxt_9x60_wvga/production/_ext/2086794059/legato_imagedecoder_mono.o
 .ARM.attributes
                0x00000664       0x2c build/lcdc_rgba888_mxt_9x60_wvga/production/_ext/1872343871/lodepng.o
 .ARM.attributes
                0x00000690       0x2c build/lcdc_rgba888_mxt_9x60_wvga/production/_ext/1872343871/legato_imagedecoder_png.o
 .ARM.attributes
                0x000006bc       0x2c build/lcdc_rgba888_mxt_9x60_wvga/production/_ext/1872342336/legato_imagedecoder_raw_setup.o
 .ARM.attributes
                0x000006e8       0x2c build/lcdc_rgba888_mxt_9x60_wvga/production/_ext/1872342336/legato_imagedecoder_raw_scale.o
 .ARM.attributes
                0x00000714       0x2c build/lcdc_rgba888_mxt_9x60_wvga/production/_ext/1872342336/legato_imagedecoder_raw.o
 .ARM.attributes
                0x00000740       0x2c build/lcdc_rgba888_mxt_9x60_wvga/production/_ext/1872342336/legato_imagedecoder_raw_read_internal.o
 .ARM.attributes
                0x0000076c       0x2c build/lcdc_rgba888_mxt_9x60_wvga/production/_ext/1872342336/legato_imagedecoder_raw_write.o
 .ARM.attributes
                0x00000798       0x2c build/lcdc_rgba888_mxt_9x60_wvga/production/_ext/1872342336/legato_imagedecoder_raw_blend.o
 .ARM.attributes
                0x000007c4       0x2c build/lcdc_rgba888_mxt_9x60_wvga/production/_ext/1872342336/legato_imagedecoder_raw_mask.o
 .ARM.attributes
                0x000007f0       0x2c build/lcdc_rgba888_mxt_9x60_wvga/production/_ext/1872342336/legato_imagedecoder_raw_convert.o
 .ARM.attributes
                0x0000081c       0x2c build/lcdc_rgba888_mxt_9x60_wvga/production/_ext/1872342336/legato_imagedecoder_raw_rotate.o
 .ARM.attributes
                0x00000848       0x2c build/lcdc_rgba888_mxt_9x60_wvga/production/_ext/1872342336/legato_imagedecoder_raw_palette_internal.o
 .ARM.attributes
                0x00000874       0x2c build/lcdc_rgba888_mxt_9x60_wvga/production/_ext/1381099687/legato_image_utils.o
 .ARM.attributes
                0x000008a0       0x2c build/lcdc_rgba888_mxt_9x60_wvga/production/_ext/1381099687/legato_image.o
 .ARM.attributes
                0x000008cc       0x2c build/lcdc_rgba888_mxt_9x60_wvga/production/_ext/28088523/legato_fixedheap.o
 .ARM.attributes
                0x000008f8       0x2c build/lcdc_rgba888_mxt_9x60_wvga/production/_ext/28088523/legato_memory.o
 .ARM.attributes
                0x00000924       0x2c build/lcdc_rgba888_mxt_9x60_wvga/production/_ext/28088523/legato_variableheap.o
 .ARM.attributes
                0x00000950       0x2c build/lcdc_rgba888_mxt_9x60_wvga/production/_ext/1081070089/legato_draw_rect.o
 .ARM.attributes
                0x0000097c       0x2c build/lcdc_rgba888_mxt_9x60_wvga/production/_ext/1081070089/legato_draw_line.o
 .ARM.attributes
                0x000009a8       0x2c build/lcdc_rgba888_mxt_9x60_wvga/production/_ext/1081070089/legato_renderer.o
 .ARM.attributes
                0x000009d4       0x2c build/lcdc_rgba888_mxt_9x60_wvga/production/_ext/1081070089/legato_draw.o
 .ARM.attributes
                0x00000a00       0x2c build/lcdc_rgba888_mxt_9x60_wvga/production/_ext/1081070089/legato_draw_arc.o
 .ARM.attributes
                0x00000a2c       0x2c build/lcdc_rgba888_mxt_9x60_wvga/production/_ext/1081070089/legato_gpu.o
 .ARM.attributes
                0x00000a58       0x2c build/lcdc_rgba888_mxt_9x60_wvga/production/_ext/157682245/legato_string_renderer.o
 .ARM.attributes
                0x00000a84       0x2c build/lcdc_rgba888_mxt_9x60_wvga/production/_ext/157682245/legato_stringutils.o
 .ARM.attributes
                0x00000ab0       0x2c build/lcdc_rgba888_mxt_9x60_wvga/production/_ext/157682245/legato_tablestring.o
 .ARM.attributes
                0x00000adc       0x2c build/lcdc_rgba888_mxt_9x60_wvga/production/_ext/157682245/legato_string.o
 .ARM.attributes
                0x00000b08       0x2c build/lcdc_rgba888_mxt_9x60_wvga/production/_ext/157682245/legato_fixedstring.o
 .ARM.attributes
                0x00000b34       0x2c build/lcdc_rgba888_mxt_9x60_wvga/production/_ext/157682245/legato_stringtable.o
 .ARM.attributes
                0x00000b60       0x2c build/lcdc_rgba888_mxt_9x60_wvga/production/_ext/1339002025/legato_widget_button.o
 .ARM.attributes
                0x00000b8c       0x2c build/lcdc_rgba888_mxt_9x60_wvga/production/_ext/1339002025/legato_widget_button_skin_classic.o
 .ARM.attributes
                0x00000bb8       0x2c build/lcdc_rgba888_mxt_9x60_wvga/production/_ext/1197524732/legato_widget_image_skin_classic.o
 .ARM.attributes
                0x00000be4       0x2c build/lcdc_rgba888_mxt_9x60_wvga/production/_ext/1197524732/legato_widget_image.o
 .ARM.attributes
                0x00000c10       0x2c build/lcdc_rgba888_mxt_9x60_wvga/production/_ext/1195110755/legato_widget_label.o
 .ARM.attributes
                0x00000c3c       0x2c build/lcdc_rgba888_mxt_9x60_wvga/production/_ext/1195110755/legato_widget_label_skin_classic.o
 .ARM.attributes
                0x00000c68       0x2c build/lcdc_rgba888_mxt_9x60_wvga/production/_ext/337100648/legato_widget_rectangle.o
 .ARM.attributes
                0x00000c94       0x2c build/lcdc_rgba888_mxt_9x60_wvga/production/_ext/337100648/legato_widget_rectangle_skin_classic.o
 .ARM.attributes
                0x00000cc0       0x2c build/lcdc_rgba888_mxt_9x60_wvga/production/_ext/261620856/legato_widget_skin_classic.o
 .ARM.attributes
                0x00000cec       0x2c build/lcdc_rgba888_mxt_9x60_wvga/production/_ext/261620856/legato_widget.o
 .ARM.attributes
                0x00000d18       0x2c build/lcdc_rgba888_mxt_9x60_wvga/production/_ext/261620856/legato_widget_skin_classic_common.o
 .ARM.attributes
                0x00000d44       0x2c build/lcdc_rgba888_mxt_9x60_wvga/production/_ext/4986847/plib_aic.o
 .ARM.attributes
                0x00000d70       0x2c build/lcdc_rgba888_mxt_9x60_wvga/production/_ext/4988870/plib_clk.o
 .ARM.attributes
                0x00000d9c       0x2c build/lcdc_rgba888_mxt_9x60_wvga/production/_ext/813772974/plib_flexcom6_twi_master.o
 .ARM.attributes
                0x00000dc8       0x2c build/lcdc_rgba888_mxt_9x60_wvga/production/_ext/154914322/plib_lcdc.o
 .ARM.attributes
                0x00000df4       0x2c build/lcdc_rgba888_mxt_9x60_wvga/production/_ext/4998521/plib_mmu.o
 .ARM.attributes
                0x00000e20       0x2c build/lcdc_rgba888_mxt_9x60_wvga/production/_ext/5001274/plib_pio.o
 .ARM.attributes
                0x00000e4c       0x2c build/lcdc_rgba888_mxt_9x60_wvga/production/_ext/1247087435/plib_tc0.o
 .ARM.attributes
                0x00000e78       0x2c build/lcdc_rgba888_mxt_9x60_wvga/production/_ext/286729486/xc32_monitor.o
 .ARM.attributes
                0x00000ea4       0x2c build/lcdc_rgba888_mxt_9x60_wvga/production/_ext/1414187873/sys_input.o
 .ARM.attributes
                0x00000ed0       0x2c build/lcdc_rgba888_mxt_9x60_wvga/production/_ext/1826491803/sys_int.o
 .ARM.attributes
                0x00000efc       0x2c build/lcdc_rgba888_mxt_9x60_wvga/production/_ext/1812361045/sys_time.o
 .ARM.attributes
                0x00000f28       0x2c build/lcdc_rgba888_mxt_9x60_wvga/production/_ext/2052985144/initialization.o
 .ARM.attributes
                0x00000f54       0x1c build/lcdc_rgba888_mxt_9x60_wvga/production/_ext/2052985144/cstartup.o
 .ARM.attributes
                0x00000f70       0x2c build/lcdc_rgba888_mxt_9x60_wvga/production/_ext/2052985144/fault_handlers.o
 .ARM.attributes
                0x00000f9c       0x2c build/lcdc_rgba888_mxt_9x60_wvga/production/_ext/2052985144/interrupts.o
 .ARM.attributes
                0x00000fc8       0x2c build/lcdc_rgba888_mxt_9x60_wvga/production/_ext/2052985144/tasks.o
 .ARM.attributes
                0x00000ff4       0x2c build/lcdc_rgba888_mxt_9x60_wvga/production/_ext/1360937237/app.o
 .ARM.attributes
                0x00001020       0x2c build/lcdc_rgba888_mxt_9x60_wvga/production/_ext/1360937237/main.o
 .ARM.attributes
                0x0000104c       0x2c build/lcdc_rgba888_mxt_9x60_wvga/production/_ext/1360937237/app_screen0.o
 .ARM.attributes
                0x00001078       0x2c build/lcdc_rgba888_mxt_9x60_wvga/production/_ext/5003525/plib_rtc.o
 .ARM.attributes
                0x000010a4       0x2c build/lcdc_rgba888_mxt_9x60_wvga/production/_ext/1360937237/app_screen1.o
 .ARM.attributes
                0x000010d0       0x2c build/lcdc_rgba888_mxt_9x60_wvga/production/_ext/1121151461/gfx_canvas_api.o
 .ARM.attributes
                0x000010fc       0x2c build/lcdc_rgba888_mxt_9x60_wvga/production/_ext/1121151461/gfx_canvas.o
 .ARM.attributes
                0x00001128       0x2b c:/program files/microchip/xc32/v4.20/bin/bin/../../lib/gcc/pic32c/8.3.1/../../../../pic32c/lib/arm/v5te/nofp\libpic32c.a(data_init_wrapper.o)
 .ARM.attributes
                0x00001153       0x2b c:/program files/microchip/xc32/v4.20/bin/bin/../../lib/gcc/pic32c/8.3.1/../../../../pic32c/lib/arm/v5te/nofp\libpic32c.a(data_init_0_1.o)
 .ARM.attributes
                0x0000117e       0x1d c:/program files/microchip/xc32/v4.20/bin/bin/../../lib/gcc/pic32c/8.3.1/arm/v5te/nofp\libgcc.a(_udivsi3.o)
 .ARM.attributes
                0x0000119b       0x1d c:/program files/microchip/xc32/v4.20/bin/bin/../../lib/gcc/pic32c/8.3.1/arm/v5te/nofp\libgcc.a(_divsi3.o)
 .ARM.attributes
                0x000011b8       0x1d c:/program files/microchip/xc32/v4.20/bin/bin/../../lib/gcc/pic32c/8.3.1/arm/v5te/nofp\libgcc.a(_dvmd_tls.o)
 .ARM.attributes
                0x000011d5       0x1d c:/program files/microchip/xc32/v4.20/bin/bin/../../lib/gcc/pic32c/8.3.1/arm/v5te/nofp\libgcc.a(_arm_addsubsf3.o)
 .ARM.attributes
                0x000011f2       0x1d c:/program files/microchip/xc32/v4.20/bin/bin/../../lib/gcc/pic32c/8.3.1/arm/v5te/nofp\libgcc.a(_arm_muldivsf3.o)
 .ARM.attributes
                0x0000120f       0x1d c:/program files/microchip/xc32/v4.20/bin/bin/../../lib/gcc/pic32c/8.3.1/arm/v5te/nofp\libgcc.a(_arm_cmpsf2.o)
 .ARM.attributes
                0x0000122c       0x1d c:/program files/microchip/xc32/v4.20/bin/bin/../../lib/gcc/pic32c/8.3.1/arm/v5te/nofp\libgcc.a(_arm_fixsfsi.o)
 .ARM.attributes
                0x00001249       0x1d c:/program files/microchip/xc32/v4.20/bin/bin/../../lib/gcc/pic32c/8.3.1/arm/v5te/nofp\libgcc.a(_arm_fixunssfsi.o)
 .ARM.attributes
                0x00001266       0x1d c:/program files/microchip/xc32/v4.20/bin/bin/../../lib/gcc/pic32c/8.3.1/arm/v5te/nofp\libgcc.a(_aeabi_uldivmod.o)
 .ARM.attributes
                0x00001283       0x2b c:/program files/microchip/xc32/v4.20/bin/bin/../../lib/gcc/pic32c/8.3.1/arm/v5te/nofp\libgcc.a(_udivmoddi4.o)
 .ARM.attributes
                0x000012ae       0x2d c:/program files/microchip/xc32/v4.20/bin/bin/../../lib/gcc/pic32c/8.3.1/../../../../pic32c/lib/arm/v5te/nofp\libc-musl.a(__libc_start_main.o)
 .ARM.attributes
                0x000012db       0x2d c:/program files/microchip/xc32/v4.20/bin/bin/../../lib/gcc/pic32c/8.3.1/../../../../pic32c/lib/arm/v5te/nofp\libc-musl.a(libc.o)
 .ARM.attributes
                0x00001308       0x2d c:/program files/microchip/xc32/v4.20/bin/bin/../../lib/gcc/pic32c/8.3.1/../../../../pic32c/lib/arm/v5te/nofp\libc-musl.a(__sio_sprintf_doux.o)
 .ARM.attributes
                0x00001335       0x2d c:/program files/microchip/xc32/v4.20/bin/bin/../../lib/gcc/pic32c/8.3.1/../../../../pic32c/lib/arm/v5te/nofp\libc-musl.a(__fmt_d.o)
 .ARM.attributes
                0x00001362       0x2d c:/program files/microchip/xc32/v4.20/bin/bin/../../lib/gcc/pic32c/8.3.1/../../../../pic32c/lib/arm/v5te/nofp\libc-musl.a(__fmt_o.o)
 .ARM.attributes
                0x0000138f       0x2d c:/program files/microchip/xc32/v4.20/bin/bin/../../lib/gcc/pic32c/8.3.1/../../../../pic32c/lib/arm/v5te/nofp\libc-musl.a(__fmt_s.o)
 .ARM.attributes
                0x000013bc       0x2d c:/program files/microchip/xc32/v4.20/bin/bin/../../lib/gcc/pic32c/8.3.1/../../../../pic32c/lib/arm/v5te/nofp\libc-musl.a(__fmt_u.o)
 .ARM.attributes
                0x000013e9       0x2d c:/program files/microchip/xc32/v4.20/bin/bin/../../lib/gcc/pic32c/8.3.1/../../../../pic32c/lib/arm/v5te/nofp\libc-musl.a(__fmt_x.o)
 .ARM.attributes
                0x00001416       0x2d c:/program files/microchip/xc32/v4.20/bin/bin/../../lib/gcc/pic32c/8.3.1/../../../../pic32c/lib/arm/v5te/nofp\libc-musl.a(__pop_int.o)
 .ARM.attributes
                0x00001443       0x2d c:/program files/microchip/xc32/v4.20/bin/bin/../../lib/gcc/pic32c/8.3.1/../../../../pic32c/lib/arm/v5te/nofp\libc-musl.a(__pop_ptr.o)
 .ARM.attributes
                0x00001470       0x2d c:/program files/microchip/xc32/v4.20/bin/bin/../../lib/gcc/pic32c/8.3.1/../../../../pic32c/lib/arm/v5te/nofp\libc-musl.a(__printf_core.o)
 .ARM.attributes
                0x0000149d       0x2d c:/program files/microchip/xc32/v4.20/bin/bin/../../lib/gcc/pic32c/8.3.1/../../../../pic32c/lib/arm/v5te/nofp\libc-musl.a(stdout.o)
 .ARM.attributes
                0x000014ca       0x2d c:/program files/microchip/xc32/v4.20/bin/bin/../../lib/gcc/pic32c/8.3.1/../../../../pic32c/lib/arm/v5te/nofp\libc-musl.a(atoi.o)
 .ARM.attributes
                0x000014f7       0x2d c:/program files/microchip/xc32/v4.20/bin/bin/../../lib/gcc/pic32c/8.3.1/../../../../pic32c/lib/arm/v5te/nofp\libc-musl.a(memcpy.o)
 .ARM.attributes
                0x00001524       0x2d c:/program files/microchip/xc32/v4.20/bin/bin/../../lib/gcc/pic32c/8.3.1/../../../../pic32c/lib/arm/v5te/nofp\libc-musl.a(memset.o)
 .ARM.attributes
                0x00001551       0x2d c:/program files/microchip/xc32/v4.20/bin/bin/../../lib/gcc/pic32c/8.3.1/../../../../pic32c/lib/arm/v5te/nofp\libc-musl.a(strlen.o)
 .ARM.attributes
                0x0000157e       0x2d c:/program files/microchip/xc32/v4.20/bin/bin/../../lib/gcc/pic32c/8.3.1/../../../../pic32c/lib/arm/v5te/nofp\libc-musl.a(tolower.o)
 .ARM.attributes
                0x000015ab       0x2d c:/program files/microchip/xc32/v4.20/bin/bin/../../lib/gcc/pic32c/8.3.1/../../../../pic32c/lib/arm/v5te/nofp\libc-musl.a(toupper.o)
 .ARM.attributes
                0x000015d8       0x2d c:/program files/microchip/xc32/v4.20/bin/bin/../../lib/gcc/pic32c/8.3.1/../../../../pic32c/lib/arm/v5te/nofp\libc-musl.a(__environ.o)
 .ARM.attributes
                0x00001605       0x2d c:/program files/microchip/xc32/v4.20/bin/bin/../../lib/gcc/pic32c/8.3.1/../../../../pic32c/lib/arm/v5te/nofp\libc-musl.a(__errno_location.o)
 .ARM.attributes
                0x00001632       0x2d c:/program files/microchip/xc32/v4.20/bin/bin/../../lib/gcc/pic32c/8.3.1/../../../../pic32c/lib/arm/v5te/nofp\libc-musl.a(__int_vfprintf.o)
 .ARM.attributes
                0x0000165f       0x2d c:/program files/microchip/xc32/v4.20/bin/bin/../../lib/gcc/pic32c/8.3.1/../../../../pic32c/lib/arm/v5te/nofp\libc-musl.a(__int_vsprintf.o)
 .ARM.attributes
                0x0000168c       0x2d c:/program files/microchip/xc32/v4.20/bin/bin/../../lib/gcc/pic32c/8.3.1/../../../../pic32c/lib/arm/v5te/nofp\libc-musl.a(__pop_float.o)
 .ARM.attributes
                0x000016b9       0x2d c:/program files/microchip/xc32/v4.20/bin/bin/../../lib/gcc/pic32c/8.3.1/../../../../pic32c/lib/arm/v5te/nofp\libc-musl.a(__int_vsnprintf.o)
 .ARM.attributes
                0x000016e6       0x2d c:/program files/microchip/xc32/v4.20/bin/bin/../../lib/gcc/pic32c/8.3.1/../../../../pic32c/lib/arm/v5te/nofp\libc-musl.a(__init_stdio.o)
 .ARM.attributes
                0x00001713       0x2d c:/program files/microchip/xc32/v4.20/bin/bin/../../lib/gcc/pic32c/8.3.1/../../../../pic32c/lib/arm/v5te/nofp\libc-musl.a(__out.o)
 .ARM.attributes
                0x00001740       0x2d c:/program files/microchip/xc32/v4.20/bin/bin/../../lib/gcc/pic32c/8.3.1/../../../../pic32c/lib/arm/v5te/nofp\libc-musl.a(__stdio_close.o)
 .ARM.attributes
                0x0000176d       0x2d c:/program files/microchip/xc32/v4.20/bin/bin/../../lib/gcc/pic32c/8.3.1/../../../../pic32c/lib/arm/v5te/nofp\libc-musl.a(__stdio_seek.o)
 .ARM.attributes
                0x0000179a       0x2d c:/program files/microchip/xc32/v4.20/bin/bin/../../lib/gcc/pic32c/8.3.1/../../../../pic32c/lib/arm/v5te/nofp\libc-musl.a(__stdout.o)
 .ARM.attributes
                0x000017c7       0x2d c:/program files/microchip/xc32/v4.20/bin/bin/../../lib/gcc/pic32c/8.3.1/../../../../pic32c/lib/arm/v5te/nofp\libc-musl.a(__fwrite.o)
 .ARM.attributes
                0x000017f4       0x2b c:/program files/microchip/xc32/v4.20/bin/bin/../../lib/gcc/pic32c/8.3.1/../../../../pic32c/lib/arm/v5te/nofp\libpic32c.a(close.o)
 .ARM.attributes
                0x0000181f       0x2b c:/program files/microchip/xc32/v4.20/bin/bin/../../lib/gcc/pic32c/8.3.1/../../../../pic32c/lib/arm/v5te/nofp\libpic32c.a(lseek.o)
 .ARM.attributes
                0x0000184a       0x1d c:/program files/microchip/xc32/v4.20/bin/bin/../../lib/gcc/pic32c/8.3.1/arm/v5te/nofp/crtn.o

.comment        0x00000000       0x2b
 .comment       0x00000000       0x2b c:/program files/microchip/xc32/v4.20/bin/bin/../../lib/gcc/pic32c/8.3.1/arm/v5te/nofp/crtbegin.o
                                 0x2c (size before relaxing)
 .comment       0x0000002b       0x2c build/lcdc_rgba888_mxt_9x60_wvga/production/_ext/236556520/bsp.o
 .comment       0x0000002b       0x2c build/lcdc_rgba888_mxt_9x60_wvga/production/_ext/103208383/drv_i2c.o
 .comment       0x0000002b       0x2c build/lcdc_rgba888_mxt_9x60_wvga/production/_ext/1959449242/drv_maxtouch.o
 .comment       0x0000002b       0x2c build/lcdc_rgba888_mxt_9x60_wvga/production/_ext/1165331637/gfx_driver.o
 .comment       0x0000002b       0x2c build/lcdc_rgba888_mxt_9x60_wvga/production/_ext/129784465/drv_gfx_lcdc.o
 .comment       0x0000002b       0x2c build/lcdc_rgba888_mxt_9x60_wvga/production/_ext/305146849/legato_math.o
 .comment       0x0000002b       0x2c build/lcdc_rgba888_mxt_9x60_wvga/production/_ext/305146849/legato_color_blend.o
 .comment       0x0000002b       0x2c build/lcdc_rgba888_mxt_9x60_wvga/production/_ext/305146849/legato_color_convert.o
 .comment       0x0000002b       0x2c build/lcdc_rgba888_mxt_9x60_wvga/production/_ext/305146849/legato_rect.o
 .comment       0x0000002b       0x2c build/lcdc_rgba888_mxt_9x60_wvga/production/_ext/305146849/legato_utils.o
 .comment       0x0000002b       0x2c build/lcdc_rgba888_mxt_9x60_wvga/production/_ext/305146849/legato_pixelbuffer.o
 .comment       0x0000002b       0x2c build/lcdc_rgba888_mxt_9x60_wvga/production/_ext/305146849/legato_color_lerp.o
 .comment       0x0000002b       0x2c build/lcdc_rgba888_mxt_9x60_wvga/production/_ext/305146849/legato_color.o
 .comment       0x0000002b       0x2c build/lcdc_rgba888_mxt_9x60_wvga/production/_ext/1618192685/legato_state.o
 .comment       0x0000002b       0x2c build/lcdc_rgba888_mxt_9x60_wvga/production/_ext/1618192685/legato_scheme.o
 .comment       0x0000002b       0x2c build/lcdc_rgba888_mxt_9x60_wvga/production/_ext/1618192685/legato_event.o
 .comment       0x0000002b       0x2c build/lcdc_rgba888_mxt_9x60_wvga/production/_ext/1618192685/legato_input.o
 .comment       0x0000002b       0x2c build/lcdc_rgba888_mxt_9x60_wvga/production/_ext/109670485/legato_rectarray.o
 .comment       0x0000002b       0x2c build/lcdc_rgba888_mxt_9x60_wvga/production/_ext/109670485/legato_array.o
 .comment       0x0000002b       0x2c build/lcdc_rgba888_mxt_9x60_wvga/production/_ext/109670485/legato_list.o
 .comment       0x0000002b       0x2c build/lcdc_rgba888_mxt_9x60_wvga/production/_ext/1618103421/legato_font.o
 .comment       0x0000002b       0x2c build/lcdc_rgba888_mxt_9x60_wvga/production/_ext/644506877/le_gen_fonts.o
 .comment       0x0000002b       0x2c build/lcdc_rgba888_mxt_9x60_wvga/production/_ext/1497821479/le_gen_images.o
 .comment       0x0000002b       0x2c build/lcdc_rgba888_mxt_9x60_wvga/production/_ext/534613472/le_gen_screen_Screen0.o
 .comment       0x0000002b       0x2c build/lcdc_rgba888_mxt_9x60_wvga/production/_ext/534613472/le_gen_screen_Screen1.o
 .comment       0x0000002b       0x2c build/lcdc_rgba888_mxt_9x60_wvga/production/_ext/706129189/le_gen_init.o
 .comment       0x0000002b       0x2c build/lcdc_rgba888_mxt_9x60_wvga/production/_ext/706129189/le_gen_globalpalette.o
 .comment       0x0000002b       0x2c build/lcdc_rgba888_mxt_9x60_wvga/production/_ext/706129189/le_gen_scheme.o
 .comment       0x0000002b       0x2c build/lcdc_rgba888_mxt_9x60_wvga/production/_ext/706129189/le_gen_stringtable.o
 .comment       0x0000002b       0x2c build/lcdc_rgba888_mxt_9x60_wvga/production/_ext/706129189/le_gen_harmony.o
 .comment       0x0000002b       0x2c build/lcdc_rgba888_mxt_9x60_wvga/production/_ext/2086705360/legato_imagedecoder_jpeg.o
 .comment       0x0000002b       0x2c build/lcdc_rgba888_mxt_9x60_wvga/production/_ext/2086705360/legato_imagedecoder_jpeg_common.o
 .comment       0x0000002b       0x2c build/lcdc_rgba888_mxt_9x60_wvga/production/_ext/2086705360/jidctint.o
 .comment       0x0000002b       0x2c build/lcdc_rgba888_mxt_9x60_wvga/production/_ext/2086794059/legato_imagedecoder_mono_read_internal.o
 .comment       0x0000002b       0x2c build/lcdc_rgba888_mxt_9x60_wvga/production/_ext/2086794059/legato_imagedecoder_mono.o
 .comment       0x0000002b       0x2c build/lcdc_rgba888_mxt_9x60_wvga/production/_ext/1872343871/lodepng.o
 .comment       0x0000002b       0x2c build/lcdc_rgba888_mxt_9x60_wvga/production/_ext/1872343871/legato_imagedecoder_png.o
 .comment       0x0000002b       0x2c build/lcdc_rgba888_mxt_9x60_wvga/production/_ext/1872342336/legato_imagedecoder_raw_setup.o
 .comment       0x0000002b       0x2c build/lcdc_rgba888_mxt_9x60_wvga/production/_ext/1872342336/legato_imagedecoder_raw_scale.o
 .comment       0x0000002b       0x2c build/lcdc_rgba888_mxt_9x60_wvga/production/_ext/1872342336/legato_imagedecoder_raw.o
 .comment       0x0000002b       0x2c build/lcdc_rgba888_mxt_9x60_wvga/production/_ext/1872342336/legato_imagedecoder_raw_read_internal.o
 .comment       0x0000002b       0x2c build/lcdc_rgba888_mxt_9x60_wvga/production/_ext/1872342336/legato_imagedecoder_raw_write.o
 .comment       0x0000002b       0x2c build/lcdc_rgba888_mxt_9x60_wvga/production/_ext/1872342336/legato_imagedecoder_raw_blend.o
 .comment       0x0000002b       0x2c build/lcdc_rgba888_mxt_9x60_wvga/production/_ext/1872342336/legato_imagedecoder_raw_mask.o
 .comment       0x0000002b       0x2c build/lcdc_rgba888_mxt_9x60_wvga/production/_ext/1872342336/legato_imagedecoder_raw_convert.o
 .comment       0x0000002b       0x2c build/lcdc_rgba888_mxt_9x60_wvga/production/_ext/1872342336/legato_imagedecoder_raw_rotate.o
 .comment       0x0000002b       0x2c build/lcdc_rgba888_mxt_9x60_wvga/production/_ext/1872342336/legato_imagedecoder_raw_palette_internal.o
 .comment       0x0000002b       0x2c build/lcdc_rgba888_mxt_9x60_wvga/production/_ext/1381099687/legato_image_utils.o
 .comment       0x0000002b       0x2c build/lcdc_rgba888_mxt_9x60_wvga/production/_ext/1381099687/legato_image.o
 .comment       0x0000002b       0x2c build/lcdc_rgba888_mxt_9x60_wvga/production/_ext/28088523/legato_fixedheap.o
 .comment       0x0000002b       0x2c build/lcdc_rgba888_mxt_9x60_wvga/production/_ext/28088523/legato_memory.o
 .comment       0x0000002b       0x2c build/lcdc_rgba888_mxt_9x60_wvga/production/_ext/28088523/legato_variableheap.o
 .comment       0x0000002b       0x2c build/lcdc_rgba888_mxt_9x60_wvga/production/_ext/1081070089/legato_draw_rect.o
 .comment       0x0000002b       0x2c build/lcdc_rgba888_mxt_9x60_wvga/production/_ext/1081070089/legato_draw_line.o
 .comment       0x0000002b       0x2c build/lcdc_rgba888_mxt_9x60_wvga/production/_ext/1081070089/legato_renderer.o
 .comment       0x0000002b       0x2c build/lcdc_rgba888_mxt_9x60_wvga/production/_ext/1081070089/legato_draw.o
 .comment       0x0000002b       0x2c build/lcdc_rgba888_mxt_9x60_wvga/production/_ext/1081070089/legato_draw_arc.o
 .comment       0x0000002b       0x2c build/lcdc_rgba888_mxt_9x60_wvga/production/_ext/1081070089/legato_gpu.o
 .comment       0x0000002b       0x2c build/lcdc_rgba888_mxt_9x60_wvga/production/_ext/157682245/legato_string_renderer.o
 .comment       0x0000002b       0x2c build/lcdc_rgba888_mxt_9x60_wvga/production/_ext/157682245/legato_stringutils.o
 .comment       0x0000002b       0x2c build/lcdc_rgba888_mxt_9x60_wvga/production/_ext/157682245/legato_tablestring.o
 .comment       0x0000002b       0x2c build/lcdc_rgba888_mxt_9x60_wvga/production/_ext/157682245/legato_string.o
 .comment       0x0000002b       0x2c build/lcdc_rgba888_mxt_9x60_wvga/production/_ext/157682245/legato_fixedstring.o
 .comment       0x0000002b       0x2c build/lcdc_rgba888_mxt_9x60_wvga/production/_ext/157682245/legato_stringtable.o
 .comment       0x0000002b       0x2c build/lcdc_rgba888_mxt_9x60_wvga/production/_ext/1339002025/legato_widget_button.o
 .comment       0x0000002b       0x2c build/lcdc_rgba888_mxt_9x60_wvga/production/_ext/1339002025/legato_widget_button_skin_classic.o
 .comment       0x0000002b       0x2c build/lcdc_rgba888_mxt_9x60_wvga/production/_ext/1197524732/legato_widget_image_skin_classic.o
 .comment       0x0000002b       0x2c build/lcdc_rgba888_mxt_9x60_wvga/production/_ext/1197524732/legato_widget_image.o
 .comment       0x0000002b       0x2c build/lcdc_rgba888_mxt_9x60_wvga/production/_ext/1195110755/legato_widget_label.o
 .comment       0x0000002b       0x2c build/lcdc_rgba888_mxt_9x60_wvga/production/_ext/1195110755/legato_widget_label_skin_classic.o
 .comment       0x0000002b       0x2c build/lcdc_rgba888_mxt_9x60_wvga/production/_ext/337100648/legato_widget_rectangle.o
 .comment       0x0000002b       0x2c build/lcdc_rgba888_mxt_9x60_wvga/production/_ext/337100648/legato_widget_rectangle_skin_classic.o
 .comment       0x0000002b       0x2c build/lcdc_rgba888_mxt_9x60_wvga/production/_ext/261620856/legato_widget_skin_classic.o
 .comment       0x0000002b       0x2c build/lcdc_rgba888_mxt_9x60_wvga/production/_ext/261620856/legato_widget.o
 .comment       0x0000002b       0x2c build/lcdc_rgba888_mxt_9x60_wvga/production/_ext/261620856/legato_widget_skin_classic_common.o
 .comment       0x0000002b       0x2c build/lcdc_rgba888_mxt_9x60_wvga/production/_ext/4986847/plib_aic.o
 .comment       0x0000002b       0x2c build/lcdc_rgba888_mxt_9x60_wvga/production/_ext/4988870/plib_clk.o
 .comment       0x0000002b       0x2c build/lcdc_rgba888_mxt_9x60_wvga/production/_ext/813772974/plib_flexcom6_twi_master.o
 .comment       0x0000002b       0x2c build/lcdc_rgba888_mxt_9x60_wvga/production/_ext/154914322/plib_lcdc.o
 .comment       0x0000002b       0x2c build/lcdc_rgba888_mxt_9x60_wvga/production/_ext/4998521/plib_mmu.o
 .comment       0x0000002b       0x2c build/lcdc_rgba888_mxt_9x60_wvga/production/_ext/5001274/plib_pio.o
 .comment       0x0000002b       0x2c build/lcdc_rgba888_mxt_9x60_wvga/production/_ext/1247087435/plib_tc0.o
 .comment       0x0000002b       0x2c build/lcdc_rgba888_mxt_9x60_wvga/production/_ext/286729486/xc32_monitor.o
 .comment       0x0000002b       0x2c build/lcdc_rgba888_mxt_9x60_wvga/production/_ext/1414187873/sys_input.o
 .comment       0x0000002b       0x2c build/lcdc_rgba888_mxt_9x60_wvga/production/_ext/1826491803/sys_int.o
 .comment       0x0000002b       0x2c build/lcdc_rgba888_mxt_9x60_wvga/production/_ext/1812361045/sys_time.o
 .comment       0x0000002b       0x2c build/lcdc_rgba888_mxt_9x60_wvga/production/_ext/2052985144/initialization.o
 .comment       0x0000002b       0x2c build/lcdc_rgba888_mxt_9x60_wvga/production/_ext/2052985144/fault_handlers.o
 .comment       0x0000002b       0x2c build/lcdc_rgba888_mxt_9x60_wvga/production/_ext/2052985144/interrupts.o
 .comment       0x0000002b       0x2c build/lcdc_rgba888_mxt_9x60_wvga/production/_ext/2052985144/tasks.o
 .comment       0x0000002b       0x2c build/lcdc_rgba888_mxt_9x60_wvga/production/_ext/1360937237/app.o
 .comment       0x0000002b       0x2c build/lcdc_rgba888_mxt_9x60_wvga/production/_ext/1360937237/main.o
 .comment       0x0000002b       0x2c build/lcdc_rgba888_mxt_9x60_wvga/production/_ext/1360937237/app_screen0.o
 .comment       0x0000002b       0x2c build/lcdc_rgba888_mxt_9x60_wvga/production/_ext/5003525/plib_rtc.o
 .comment       0x0000002b       0x2c build/lcdc_rgba888_mxt_9x60_wvga/production/_ext/1360937237/app_screen1.o
 .comment       0x0000002b       0x2c build/lcdc_rgba888_mxt_9x60_wvga/production/_ext/1121151461/gfx_canvas_api.o
 .comment       0x0000002b       0x2c build/lcdc_rgba888_mxt_9x60_wvga/production/_ext/1121151461/gfx_canvas.o
 .comment       0x0000002b       0x2c c:/program files/microchip/xc32/v4.20/bin/bin/../../lib/gcc/pic32c/8.3.1/../../../../pic32c/lib/arm/v5te/nofp\libpic32c.a(data_init_wrapper.o)
 .comment       0x0000002b       0x2c c:/program files/microchip/xc32/v4.20/bin/bin/../../lib/gcc/pic32c/8.3.1/../../../../pic32c/lib/arm/v5te/nofp\libpic32c.a(data_init_0_1.o)
 .comment       0x0000002b       0x2c c:/program files/microchip/xc32/v4.20/bin/bin/../../lib/gcc/pic32c/8.3.1/arm/v5te/nofp\libgcc.a(_udivmoddi4.o)
 .comment       0x0000002b       0x2c c:/program files/microchip/xc32/v4.20/bin/bin/../../lib/gcc/pic32c/8.3.1/../../../../pic32c/lib/arm/v5te/nofp\libc-musl.a(__libc_start_main.o)
 .comment       0x0000002b       0x2c c:/program files/microchip/xc32/v4.20/bin/bin/../../lib/gcc/pic32c/8.3.1/../../../../pic32c/lib/arm/v5te/nofp\libc-musl.a(libc.o)
 .comment       0x0000002b       0x2c c:/program files/microchip/xc32/v4.20/bin/bin/../../lib/gcc/pic32c/8.3.1/../../../../pic32c/lib/arm/v5te/nofp\libc-musl.a(__sio_sprintf_doux.o)
 .comment       0x0000002b       0x2c c:/program files/microchip/xc32/v4.20/bin/bin/../../lib/gcc/pic32c/8.3.1/../../../../pic32c/lib/arm/v5te/nofp\libc-musl.a(__fmt_d.o)
 .comment       0x0000002b       0x2c c:/program files/microchip/xc32/v4.20/bin/bin/../../lib/gcc/pic32c/8.3.1/../../../../pic32c/lib/arm/v5te/nofp\libc-musl.a(__fmt_o.o)
 .comment       0x0000002b       0x2c c:/program files/microchip/xc32/v4.20/bin/bin/../../lib/gcc/pic32c/8.3.1/../../../../pic32c/lib/arm/v5te/nofp\libc-musl.a(__fmt_s.o)
 .comment       0x0000002b       0x2c c:/program files/microchip/xc32/v4.20/bin/bin/../../lib/gcc/pic32c/8.3.1/../../../../pic32c/lib/arm/v5te/nofp\libc-musl.a(__fmt_u.o)
 .comment       0x0000002b       0x2c c:/program files/microchip/xc32/v4.20/bin/bin/../../lib/gcc/pic32c/8.3.1/../../../../pic32c/lib/arm/v5te/nofp\libc-musl.a(__fmt_x.o)
 .comment       0x0000002b       0x2c c:/program files/microchip/xc32/v4.20/bin/bin/../../lib/gcc/pic32c/8.3.1/../../../../pic32c/lib/arm/v5te/nofp\libc-musl.a(__pop_int.o)
 .comment       0x0000002b       0x2c c:/program files/microchip/xc32/v4.20/bin/bin/../../lib/gcc/pic32c/8.3.1/../../../../pic32c/lib/arm/v5te/nofp\libc-musl.a(__pop_ptr.o)
 .comment       0x0000002b       0x2c c:/program files/microchip/xc32/v4.20/bin/bin/../../lib/gcc/pic32c/8.3.1/../../../../pic32c/lib/arm/v5te/nofp\libc-musl.a(__printf_core.o)
 .comment       0x0000002b       0x2c c:/program files/microchip/xc32/v4.20/bin/bin/../../lib/gcc/pic32c/8.3.1/../../../../pic32c/lib/arm/v5te/nofp\libc-musl.a(stdout.o)
 .comment       0x0000002b       0x2c c:/program files/microchip/xc32/v4.20/bin/bin/../../lib/gcc/pic32c/8.3.1/../../../../pic32c/lib/arm/v5te/nofp\libc-musl.a(atoi.o)
 .comment       0x0000002b       0x2c c:/program files/microchip/xc32/v4.20/bin/bin/../../lib/gcc/pic32c/8.3.1/../../../../pic32c/lib/arm/v5te/nofp\libc-musl.a(memcpy.o)
 .comment       0x0000002b       0x2c c:/program files/microchip/xc32/v4.20/bin/bin/../../lib/gcc/pic32c/8.3.1/../../../../pic32c/lib/arm/v5te/nofp\libc-musl.a(memset.o)
 .comment       0x0000002b       0x2c c:/program files/microchip/xc32/v4.20/bin/bin/../../lib/gcc/pic32c/8.3.1/../../../../pic32c/lib/arm/v5te/nofp\libc-musl.a(strlen.o)
 .comment       0x0000002b       0x2c c:/program files/microchip/xc32/v4.20/bin/bin/../../lib/gcc/pic32c/8.3.1/../../../../pic32c/lib/arm/v5te/nofp\libc-musl.a(tolower.o)
 .comment       0x0000002b       0x2c c:/program files/microchip/xc32/v4.20/bin/bin/../../lib/gcc/pic32c/8.3.1/../../../../pic32c/lib/arm/v5te/nofp\libc-musl.a(toupper.o)
 .comment       0x0000002b       0x2c c:/program files/microchip/xc32/v4.20/bin/bin/../../lib/gcc/pic32c/8.3.1/../../../../pic32c/lib/arm/v5te/nofp\libc-musl.a(__environ.o)
 .comment       0x0000002b       0x2c c:/program files/microchip/xc32/v4.20/bin/bin/../../lib/gcc/pic32c/8.3.1/../../../../pic32c/lib/arm/v5te/nofp\libc-musl.a(__errno_location.o)
 .comment       0x0000002b       0x2c c:/program files/microchip/xc32/v4.20/bin/bin/../../lib/gcc/pic32c/8.3.1/../../../../pic32c/lib/arm/v5te/nofp\libc-musl.a(__int_vfprintf.o)
 .comment       0x0000002b       0x2c c:/program files/microchip/xc32/v4.20/bin/bin/../../lib/gcc/pic32c/8.3.1/../../../../pic32c/lib/arm/v5te/nofp\libc-musl.a(__int_vsprintf.o)
 .comment       0x0000002b       0x2c c:/program files/microchip/xc32/v4.20/bin/bin/../../lib/gcc/pic32c/8.3.1/../../../../pic32c/lib/arm/v5te/nofp\libc-musl.a(__pop_float.o)
 .comment       0x0000002b       0x2c c:/program files/microchip/xc32/v4.20/bin/bin/../../lib/gcc/pic32c/8.3.1/../../../../pic32c/lib/arm/v5te/nofp\libc-musl.a(__int_vsnprintf.o)
 .comment       0x0000002b       0x2c c:/program files/microchip/xc32/v4.20/bin/bin/../../lib/gcc/pic32c/8.3.1/../../../../pic32c/lib/arm/v5te/nofp\libc-musl.a(__init_stdio.o)
 .comment       0x0000002b       0x2c c:/program files/microchip/xc32/v4.20/bin/bin/../../lib/gcc/pic32c/8.3.1/../../../../pic32c/lib/arm/v5te/nofp\libc-musl.a(__out.o)
 .comment       0x0000002b       0x2c c:/program files/microchip/xc32/v4.20/bin/bin/../../lib/gcc/pic32c/8.3.1/../../../../pic32c/lib/arm/v5te/nofp\libc-musl.a(__stdio_close.o)
 .comment       0x0000002b       0x2c c:/program files/microchip/xc32/v4.20/bin/bin/../../lib/gcc/pic32c/8.3.1/../../../../pic32c/lib/arm/v5te/nofp\libc-musl.a(__stdio_seek.o)
 .comment       0x0000002b       0x2c c:/program files/microchip/xc32/v4.20/bin/bin/../../lib/gcc/pic32c/8.3.1/../../../../pic32c/lib/arm/v5te/nofp\libc-musl.a(__stdout.o)
 .comment       0x0000002b       0x2c c:/program files/microchip/xc32/v4.20/bin/bin/../../lib/gcc/pic32c/8.3.1/../../../../pic32c/lib/arm/v5te/nofp\libc-musl.a(__fwrite.o)
 .comment       0x0000002b       0x2c c:/program files/microchip/xc32/v4.20/bin/bin/../../lib/gcc/pic32c/8.3.1/../../../../pic32c/lib/arm/v5te/nofp\libpic32c.a(close.o)
 .comment       0x0000002b       0x2c c:/program files/microchip/xc32/v4.20/bin/bin/../../lib/gcc/pic32c/8.3.1/../../../../pic32c/lib/arm/v5te/nofp\libpic32c.a(lseek.o)

.debug_info     0x00000000    0xdace2
 .debug_info    0x00000000      0x959 build/lcdc_rgba888_mxt_9x60_wvga/production/_ext/236556520/bsp.o
 .debug_info    0x00000959     0x2c05 build/lcdc_rgba888_mxt_9x60_wvga/production/_ext/103208383/drv_i2c.o
 .debug_info    0x0000355e     0x6180 build/lcdc_rgba888_mxt_9x60_wvga/production/_ext/1959449242/drv_maxtouch.o
 .debug_info    0x000096de     0x2ccb build/lcdc_rgba888_mxt_9x60_wvga/production/_ext/1165331637/gfx_driver.o
 .debug_info    0x0000c3a9     0x327c build/lcdc_rgba888_mxt_9x60_wvga/production/_ext/129784465/drv_gfx_lcdc.o
 .debug_info    0x0000f625     0x19d4 build/lcdc_rgba888_mxt_9x60_wvga/production/_ext/305146849/legato_math.o
 .debug_info    0x00010ff9      0x8d6 build/lcdc_rgba888_mxt_9x60_wvga/production/_ext/305146849/legato_color_blend.o
 .debug_info    0x000118cf     0x2068 build/lcdc_rgba888_mxt_9x60_wvga/production/_ext/305146849/legato_color_convert.o
 .debug_info    0x00013937      0xa78 build/lcdc_rgba888_mxt_9x60_wvga/production/_ext/305146849/legato_rect.o
 .debug_info    0x000143af     0x317c build/lcdc_rgba888_mxt_9x60_wvga/production/_ext/305146849/legato_utils.o
 .debug_info    0x0001752b     0x1969 build/lcdc_rgba888_mxt_9x60_wvga/production/_ext/305146849/legato_pixelbuffer.o
 .debug_info    0x00018e94      0xfd9 build/lcdc_rgba888_mxt_9x60_wvga/production/_ext/305146849/legato_color_lerp.o
 .debug_info    0x00019e6d      0xa71 build/lcdc_rgba888_mxt_9x60_wvga/production/_ext/305146849/legato_color.o
 .debug_info    0x0001a8de     0x51e9 build/lcdc_rgba888_mxt_9x60_wvga/production/_ext/1618192685/legato_state.o
 .debug_info    0x0001fac7     0x142e build/lcdc_rgba888_mxt_9x60_wvga/production/_ext/1618192685/legato_scheme.o
 .debug_info    0x00020ef5     0x2383 build/lcdc_rgba888_mxt_9x60_wvga/production/_ext/1618192685/legato_event.o
 .debug_info    0x00023278     0x448d build/lcdc_rgba888_mxt_9x60_wvga/production/_ext/1618192685/legato_input.o
 .debug_info    0x00027705     0x14a1 build/lcdc_rgba888_mxt_9x60_wvga/production/_ext/109670485/legato_rectarray.o
 .debug_info    0x00028ba6      0xba6 build/lcdc_rgba888_mxt_9x60_wvga/production/_ext/109670485/legato_array.o
 .debug_info    0x0002974c      0xc62 build/lcdc_rgba888_mxt_9x60_wvga/production/_ext/109670485/legato_list.o
 .debug_info    0x0002a3ae     0x214f build/lcdc_rgba888_mxt_9x60_wvga/production/_ext/1618103421/legato_font.o
 .debug_info    0x0002c4fd     0x104d build/lcdc_rgba888_mxt_9x60_wvga/production/_ext/644506877/le_gen_fonts.o
 .debug_info    0x0002d54a     0x1de6 build/lcdc_rgba888_mxt_9x60_wvga/production/_ext/1497821479/le_gen_images.o
 .debug_info    0x0002f330     0x636d build/lcdc_rgba888_mxt_9x60_wvga/production/_ext/534613472/le_gen_screen_Screen0.o
 .debug_info    0x0003569d     0x6e79 build/lcdc_rgba888_mxt_9x60_wvga/production/_ext/534613472/le_gen_screen_Screen1.o
 .debug_info    0x0003c516     0x1189 build/lcdc_rgba888_mxt_9x60_wvga/production/_ext/706129189/le_gen_init.o
 .debug_info    0x0003d69f      0xf56 build/lcdc_rgba888_mxt_9x60_wvga/production/_ext/706129189/le_gen_globalpalette.o
 .debug_info    0x0003e5f5     0x11d0 build/lcdc_rgba888_mxt_9x60_wvga/production/_ext/706129189/le_gen_scheme.o
 .debug_info    0x0003f7c5     0x2070 build/lcdc_rgba888_mxt_9x60_wvga/production/_ext/706129189/le_gen_stringtable.o
 .debug_info    0x00041835     0x28a0 build/lcdc_rgba888_mxt_9x60_wvga/production/_ext/706129189/le_gen_harmony.o
 .debug_info    0x000440d5     0x23ff build/lcdc_rgba888_mxt_9x60_wvga/production/_ext/2086705360/legato_imagedecoder_jpeg.o
 .debug_info    0x000464d4     0x22d0 build/lcdc_rgba888_mxt_9x60_wvga/production/_ext/2086705360/legato_imagedecoder_jpeg_common.o
 .debug_info    0x000487a4      0x664 build/lcdc_rgba888_mxt_9x60_wvga/production/_ext/2086705360/jidctint.o
 .debug_info    0x00048e08      0xd81 build/lcdc_rgba888_mxt_9x60_wvga/production/_ext/2086794059/legato_imagedecoder_mono_read_internal.o
 .debug_info    0x00049b89     0x2107 build/lcdc_rgba888_mxt_9x60_wvga/production/_ext/2086794059/legato_imagedecoder_mono.o
 .debug_info    0x0004bc90     0x8db7 build/lcdc_rgba888_mxt_9x60_wvga/production/_ext/1872343871/lodepng.o
 .debug_info    0x00054a47     0x1a3f build/lcdc_rgba888_mxt_9x60_wvga/production/_ext/1872343871/legato_imagedecoder_png.o
 .debug_info    0x00056486     0x1053 build/lcdc_rgba888_mxt_9x60_wvga/production/_ext/1872342336/legato_imagedecoder_raw_setup.o
 .debug_info    0x000574d9     0x13e9 build/lcdc_rgba888_mxt_9x60_wvga/production/_ext/1872342336/legato_imagedecoder_raw_scale.o
 .debug_info    0x000588c2     0x31cc build/lcdc_rgba888_mxt_9x60_wvga/production/_ext/1872342336/legato_imagedecoder_raw.o
 .debug_info    0x0005ba8e     0x1c21 build/lcdc_rgba888_mxt_9x60_wvga/production/_ext/1872342336/legato_imagedecoder_raw_read_internal.o
 .debug_info    0x0005d6af     0x1891 build/lcdc_rgba888_mxt_9x60_wvga/production/_ext/1872342336/legato_imagedecoder_raw_write.o
 .debug_info    0x0005ef40     0x1921 build/lcdc_rgba888_mxt_9x60_wvga/production/_ext/1872342336/legato_imagedecoder_raw_blend.o
 .debug_info    0x00060861      0xf6c build/lcdc_rgba888_mxt_9x60_wvga/production/_ext/1872342336/legato_imagedecoder_raw_mask.o
 .debug_info    0x000617cd     0x177a build/lcdc_rgba888_mxt_9x60_wvga/production/_ext/1872342336/legato_imagedecoder_raw_convert.o
 .debug_info    0x00062f47     0x12c5 build/lcdc_rgba888_mxt_9x60_wvga/production/_ext/1872342336/legato_imagedecoder_raw_rotate.o
 .debug_info    0x0006420c     0x1a6d build/lcdc_rgba888_mxt_9x60_wvga/production/_ext/1872342336/legato_imagedecoder_raw_palette_internal.o
 .debug_info    0x00065c79      0xb8e build/lcdc_rgba888_mxt_9x60_wvga/production/_ext/1381099687/legato_image_utils.o
 .debug_info    0x00066807     0x20bc build/lcdc_rgba888_mxt_9x60_wvga/production/_ext/1381099687/legato_image.o
 .debug_info    0x000688c3      0x8ff build/lcdc_rgba888_mxt_9x60_wvga/production/_ext/28088523/legato_fixedheap.o
 .debug_info    0x000691c2     0x133e build/lcdc_rgba888_mxt_9x60_wvga/production/_ext/28088523/legato_memory.o
 .debug_info    0x0006a500     0x1fe7 build/lcdc_rgba888_mxt_9x60_wvga/production/_ext/28088523/legato_variableheap.o
 .debug_info    0x0006c4e7     0x1204 build/lcdc_rgba888_mxt_9x60_wvga/production/_ext/1081070089/legato_draw_rect.o
 .debug_info    0x0006d6eb     0x143c build/lcdc_rgba888_mxt_9x60_wvga/production/_ext/1081070089/legato_draw_line.o
 .debug_info    0x0006eb27     0x5b79 build/lcdc_rgba888_mxt_9x60_wvga/production/_ext/1081070089/legato_renderer.o
 .debug_info    0x000746a0     0x1d7b build/lcdc_rgba888_mxt_9x60_wvga/production/_ext/1081070089/legato_draw.o
 .debug_info    0x0007641b     0x1f0f build/lcdc_rgba888_mxt_9x60_wvga/production/_ext/1081070089/legato_draw_arc.o
 .debug_info    0x0007832a     0x18f8 build/lcdc_rgba888_mxt_9x60_wvga/production/_ext/1081070089/legato_gpu.o
 .debug_info    0x00079c22     0x1a2d build/lcdc_rgba888_mxt_9x60_wvga/production/_ext/157682245/legato_string_renderer.o
 .debug_info    0x0007b64f     0x1958 build/lcdc_rgba888_mxt_9x60_wvga/production/_ext/157682245/legato_stringutils.o
 .debug_info    0x0007cfa7     0x25ff build/lcdc_rgba888_mxt_9x60_wvga/production/_ext/157682245/legato_tablestring.o
 .debug_info    0x0007f5a6     0x229e build/lcdc_rgba888_mxt_9x60_wvga/production/_ext/157682245/legato_string.o
 .debug_info    0x00081844     0x1aa4 build/lcdc_rgba888_mxt_9x60_wvga/production/_ext/157682245/legato_fixedstring.o
 .debug_info    0x000832e8     0x14b8 build/lcdc_rgba888_mxt_9x60_wvga/production/_ext/157682245/legato_stringtable.o
 .debug_info    0x000847a0     0x47c3 build/lcdc_rgba888_mxt_9x60_wvga/production/_ext/1339002025/legato_widget_button.o
 .debug_info    0x00088f63     0x46f1 build/lcdc_rgba888_mxt_9x60_wvga/production/_ext/1339002025/legato_widget_button_skin_classic.o
 .debug_info    0x0008d654     0x33e1 build/lcdc_rgba888_mxt_9x60_wvga/production/_ext/1197524732/legato_widget_image_skin_classic.o
 .debug_info    0x00090a35     0x336d build/lcdc_rgba888_mxt_9x60_wvga/production/_ext/1197524732/legato_widget_image.o
 .debug_info    0x00093da2     0x3831 build/lcdc_rgba888_mxt_9x60_wvga/production/_ext/1195110755/legato_widget_label.o
 .debug_info    0x000975d3     0x3c00 build/lcdc_rgba888_mxt_9x60_wvga/production/_ext/1195110755/legato_widget_label_skin_classic.o
 .debug_info    0x0009b1d3     0x27a4 build/lcdc_rgba888_mxt_9x60_wvga/production/_ext/337100648/legato_widget_rectangle.o
 .debug_info    0x0009d977     0x3376 build/lcdc_rgba888_mxt_9x60_wvga/production/_ext/337100648/legato_widget_rectangle_skin_classic.o
 .debug_info    0x000a0ced     0x2a74 build/lcdc_rgba888_mxt_9x60_wvga/production/_ext/261620856/legato_widget_skin_classic.o
 .debug_info    0x000a3761     0x4fca build/lcdc_rgba888_mxt_9x60_wvga/production/_ext/261620856/legato_widget.o
 .debug_info    0x000a872b     0x3ccb build/lcdc_rgba888_mxt_9x60_wvga/production/_ext/261620856/legato_widget_skin_classic_common.o
 .debug_info    0x000ac3f6     0x186a build/lcdc_rgba888_mxt_9x60_wvga/production/_ext/4986847/plib_aic.o
 .debug_info    0x000adc60      0x89f build/lcdc_rgba888_mxt_9x60_wvga/production/_ext/4988870/plib_clk.o
 .debug_info    0x000ae4ff     0x169f build/lcdc_rgba888_mxt_9x60_wvga/production/_ext/813772974/plib_flexcom6_twi_master.o
 .debug_info    0x000afb9e     0x3f2c build/lcdc_rgba888_mxt_9x60_wvga/production/_ext/154914322/plib_lcdc.o
 .debug_info    0x000b3aca      0xe1b build/lcdc_rgba888_mxt_9x60_wvga/production/_ext/4998521/plib_mmu.o
 .debug_info    0x000b48e5      0xbba build/lcdc_rgba888_mxt_9x60_wvga/production/_ext/5001274/plib_pio.o
 .debug_info    0x000b549f      0xb4d build/lcdc_rgba888_mxt_9x60_wvga/production/_ext/1247087435/plib_tc0.o
 .debug_info    0x000b5fec      0x327 build/lcdc_rgba888_mxt_9x60_wvga/production/_ext/286729486/xc32_monitor.o
 .debug_info    0x000b6313     0x1ee3 build/lcdc_rgba888_mxt_9x60_wvga/production/_ext/1414187873/sys_input.o
 .debug_info    0x000b81f6     0x113e build/lcdc_rgba888_mxt_9x60_wvga/production/_ext/1826491803/sys_int.o
 .debug_info    0x000b9334     0x29e6 build/lcdc_rgba888_mxt_9x60_wvga/production/_ext/1812361045/sys_time.o
 .debug_info    0x000bbd1a     0x2a94 build/lcdc_rgba888_mxt_9x60_wvga/production/_ext/2052985144/initialization.o
 .debug_info    0x000be7ae       0x22 build/lcdc_rgba888_mxt_9x60_wvga/production/_ext/2052985144/cstartup.o
 .debug_info    0x000be7d0      0x2e5 build/lcdc_rgba888_mxt_9x60_wvga/production/_ext/2052985144/fault_handlers.o
 .debug_info    0x000beab5     0x162c build/lcdc_rgba888_mxt_9x60_wvga/production/_ext/2052985144/interrupts.o
 .debug_info    0x000c00e1     0x127b build/lcdc_rgba888_mxt_9x60_wvga/production/_ext/2052985144/tasks.o
 .debug_info    0x000c135c     0x13e0 build/lcdc_rgba888_mxt_9x60_wvga/production/_ext/1360937237/app.o
 .debug_info    0x000c273c     0x116b build/lcdc_rgba888_mxt_9x60_wvga/production/_ext/1360937237/main.o
 .debug_info    0x000c38a7     0x408b build/lcdc_rgba888_mxt_9x60_wvga/production/_ext/1360937237/app_screen0.o
 .debug_info    0x000c7932      0xf1f build/lcdc_rgba888_mxt_9x60_wvga/production/_ext/5003525/plib_rtc.o
 .debug_info    0x000c8851     0x4258 build/lcdc_rgba888_mxt_9x60_wvga/production/_ext/1360937237/app_screen1.o
 .debug_info    0x000ccaa9     0x1891 build/lcdc_rgba888_mxt_9x60_wvga/production/_ext/1121151461/gfx_canvas_api.o
 .debug_info    0x000ce33a     0x2bf7 build/lcdc_rgba888_mxt_9x60_wvga/production/_ext/1121151461/gfx_canvas.o
 .debug_info    0x000d0f31      0x28e c:/program files/microchip/xc32/v4.20/bin/bin/../../lib/gcc/pic32c/8.3.1/../../../../pic32c/lib/arm/v5te/nofp\libpic32c.a(data_init_wrapper.o)
 .debug_info    0x000d11bf      0x291 c:/program files/microchip/xc32/v4.20/bin/bin/../../lib/gcc/pic32c/8.3.1/../../../../pic32c/lib/arm/v5te/nofp\libpic32c.a(data_init_0_1.o)
 .debug_info    0x000d1450       0x26 c:/program files/microchip/xc32/v4.20/bin/bin/../../lib/gcc/pic32c/8.3.1/arm/v5te/nofp\libgcc.a(_udivsi3.o)
 .debug_info    0x000d1476       0x26 c:/program files/microchip/xc32/v4.20/bin/bin/../../lib/gcc/pic32c/8.3.1/arm/v5te/nofp\libgcc.a(_divsi3.o)
 .debug_info    0x000d149c       0x26 c:/program files/microchip/xc32/v4.20/bin/bin/../../lib/gcc/pic32c/8.3.1/arm/v5te/nofp\libgcc.a(_dvmd_tls.o)
 .debug_info    0x000d14c2       0x26 c:/program files/microchip/xc32/v4.20/bin/bin/../../lib/gcc/pic32c/8.3.1/arm/v5te/nofp\libgcc.a(_arm_addsubsf3.o)
 .debug_info    0x000d14e8       0x26 c:/program files/microchip/xc32/v4.20/bin/bin/../../lib/gcc/pic32c/8.3.1/arm/v5te/nofp\libgcc.a(_arm_muldivsf3.o)
 .debug_info    0x000d150e       0x26 c:/program files/microchip/xc32/v4.20/bin/bin/../../lib/gcc/pic32c/8.3.1/arm/v5te/nofp\libgcc.a(_arm_cmpsf2.o)
 .debug_info    0x000d1534       0x26 c:/program files/microchip/xc32/v4.20/bin/bin/../../lib/gcc/pic32c/8.3.1/arm/v5te/nofp\libgcc.a(_arm_fixsfsi.o)
 .debug_info    0x000d155a       0x26 c:/program files/microchip/xc32/v4.20/bin/bin/../../lib/gcc/pic32c/8.3.1/arm/v5te/nofp\libgcc.a(_arm_fixunssfsi.o)
 .debug_info    0x000d1580       0x26 c:/program files/microchip/xc32/v4.20/bin/bin/../../lib/gcc/pic32c/8.3.1/arm/v5te/nofp\libgcc.a(_aeabi_uldivmod.o)
 .debug_info    0x000d15a6      0x3ee c:/program files/microchip/xc32/v4.20/bin/bin/../../lib/gcc/pic32c/8.3.1/arm/v5te/nofp\libgcc.a(_udivmoddi4.o)
 .debug_info    0x000d1994      0x60f c:/program files/microchip/xc32/v4.20/bin/bin/../../lib/gcc/pic32c/8.3.1/../../../../pic32c/lib/arm/v5te/nofp\libc-musl.a(__libc_start_main.o)
 .debug_info    0x000d1fa3      0x521 c:/program files/microchip/xc32/v4.20/bin/bin/../../lib/gcc/pic32c/8.3.1/../../../../pic32c/lib/arm/v5te/nofp\libc-musl.a(libc.o)
 .debug_info    0x000d24c4      0x46c c:/program files/microchip/xc32/v4.20/bin/bin/../../lib/gcc/pic32c/8.3.1/../../../../pic32c/lib/arm/v5te/nofp\libc-musl.a(__sio_sprintf_doux.o)
 .debug_info    0x000d2930      0x5ae c:/program files/microchip/xc32/v4.20/bin/bin/../../lib/gcc/pic32c/8.3.1/../../../../pic32c/lib/arm/v5te/nofp\libc-musl.a(__fmt_d.o)
 .debug_info    0x000d2ede      0x57f c:/program files/microchip/xc32/v4.20/bin/bin/../../lib/gcc/pic32c/8.3.1/../../../../pic32c/lib/arm/v5te/nofp\libc-musl.a(__fmt_o.o)
 .debug_info    0x000d345d      0x5c0 c:/program files/microchip/xc32/v4.20/bin/bin/../../lib/gcc/pic32c/8.3.1/../../../../pic32c/lib/arm/v5te/nofp\libc-musl.a(__fmt_s.o)
 .debug_info    0x000d3a1d      0x642 c:/program files/microchip/xc32/v4.20/bin/bin/../../lib/gcc/pic32c/8.3.1/../../../../pic32c/lib/arm/v5te/nofp\libc-musl.a(__fmt_u.o)
 .debug_info    0x000d405f      0x5eb c:/program files/microchip/xc32/v4.20/bin/bin/../../lib/gcc/pic32c/8.3.1/../../../../pic32c/lib/arm/v5te/nofp\libc-musl.a(__fmt_x.o)
 .debug_info    0x000d464a      0x3ec c:/program files/microchip/xc32/v4.20/bin/bin/../../lib/gcc/pic32c/8.3.1/../../../../pic32c/lib/arm/v5te/nofp\libc-musl.a(__pop_int.o)
 .debug_info    0x000d4a36      0x3f2 c:/program files/microchip/xc32/v4.20/bin/bin/../../lib/gcc/pic32c/8.3.1/../../../../pic32c/lib/arm/v5te/nofp\libc-musl.a(__pop_ptr.o)
 .debug_info    0x000d4e28      0xcfa c:/program files/microchip/xc32/v4.20/bin/bin/../../lib/gcc/pic32c/8.3.1/../../../../pic32c/lib/arm/v5te/nofp\libc-musl.a(__printf_core.o)
 .debug_info    0x000d5b22      0x46f c:/program files/microchip/xc32/v4.20/bin/bin/../../lib/gcc/pic32c/8.3.1/../../../../pic32c/lib/arm/v5te/nofp\libc-musl.a(stdout.o)
 .debug_info    0x000d5f91      0x2e7 c:/program files/microchip/xc32/v4.20/bin/bin/../../lib/gcc/pic32c/8.3.1/../../../../pic32c/lib/arm/v5te/nofp\libc-musl.a(atoi.o)
 .debug_info    0x000d6278      0x2dc c:/program files/microchip/xc32/v4.20/bin/bin/../../lib/gcc/pic32c/8.3.1/../../../../pic32c/lib/arm/v5te/nofp\libc-musl.a(memcpy.o)
 .debug_info    0x000d6554      0x2a1 c:/program files/microchip/xc32/v4.20/bin/bin/../../lib/gcc/pic32c/8.3.1/../../../../pic32c/lib/arm/v5te/nofp\libc-musl.a(memset.o)
 .debug_info    0x000d67f5      0x292 c:/program files/microchip/xc32/v4.20/bin/bin/../../lib/gcc/pic32c/8.3.1/../../../../pic32c/lib/arm/v5te/nofp\libc-musl.a(strlen.o)
 .debug_info    0x000d6a87      0x33f c:/program files/microchip/xc32/v4.20/bin/bin/../../lib/gcc/pic32c/8.3.1/../../../../pic32c/lib/arm/v5te/nofp\libc-musl.a(tolower.o)
 .debug_info    0x000d6dc6      0x33f c:/program files/microchip/xc32/v4.20/bin/bin/../../lib/gcc/pic32c/8.3.1/../../../../pic32c/lib/arm/v5te/nofp\libc-musl.a(toupper.o)
 .debug_info    0x000d7105      0x29b c:/program files/microchip/xc32/v4.20/bin/bin/../../lib/gcc/pic32c/8.3.1/../../../../pic32c/lib/arm/v5te/nofp\libc-musl.a(__environ.o)
 .debug_info    0x000d73a0      0x25f c:/program files/microchip/xc32/v4.20/bin/bin/../../lib/gcc/pic32c/8.3.1/../../../../pic32c/lib/arm/v5te/nofp\libc-musl.a(__errno_location.o)
 .debug_info    0x000d75ff      0x465 c:/program files/microchip/xc32/v4.20/bin/bin/../../lib/gcc/pic32c/8.3.1/../../../../pic32c/lib/arm/v5te/nofp\libc-musl.a(__int_vfprintf.o)
 .debug_info    0x000d7a64      0x390 c:/program files/microchip/xc32/v4.20/bin/bin/../../lib/gcc/pic32c/8.3.1/../../../../pic32c/lib/arm/v5te/nofp\libc-musl.a(__int_vsprintf.o)
 .debug_info    0x000d7df4      0x3c9 c:/program files/microchip/xc32/v4.20/bin/bin/../../lib/gcc/pic32c/8.3.1/../../../../pic32c/lib/arm/v5te/nofp\libc-musl.a(__pop_float.o)
 .debug_info    0x000d81bd      0x493 c:/program files/microchip/xc32/v4.20/bin/bin/../../lib/gcc/pic32c/8.3.1/../../../../pic32c/lib/arm/v5te/nofp\libc-musl.a(__int_vsnprintf.o)
 .debug_info    0x000d8650      0x318 c:/program files/microchip/xc32/v4.20/bin/bin/../../lib/gcc/pic32c/8.3.1/../../../../pic32c/lib/arm/v5te/nofp\libc-musl.a(__init_stdio.o)
 .debug_info    0x000d8968      0x51c c:/program files/microchip/xc32/v4.20/bin/bin/../../lib/gcc/pic32c/8.3.1/../../../../pic32c/lib/arm/v5te/nofp\libc-musl.a(__out.o)
 .debug_info    0x000d8e84      0x6a4 c:/program files/microchip/xc32/v4.20/bin/bin/../../lib/gcc/pic32c/8.3.1/../../../../pic32c/lib/arm/v5te/nofp\libc-musl.a(__stdio_close.o)
 .debug_info    0x000d9528      0x760 c:/program files/microchip/xc32/v4.20/bin/bin/../../lib/gcc/pic32c/8.3.1/../../../../pic32c/lib/arm/v5te/nofp\libc-musl.a(__stdio_seek.o)
 .debug_info    0x000d9c88      0x650 c:/program files/microchip/xc32/v4.20/bin/bin/../../lib/gcc/pic32c/8.3.1/../../../../pic32c/lib/arm/v5te/nofp\libc-musl.a(__stdout.o)
 .debug_info    0x000da2d8      0x532 c:/program files/microchip/xc32/v4.20/bin/bin/../../lib/gcc/pic32c/8.3.1/../../../../pic32c/lib/arm/v5te/nofp\libc-musl.a(__fwrite.o)
 .debug_info    0x000da80a      0x26c c:/program files/microchip/xc32/v4.20/bin/bin/../../lib/gcc/pic32c/8.3.1/../../../../pic32c/lib/arm/v5te/nofp\libpic32c.a(close.o)
 .debug_info    0x000daa76      0x26c c:/program files/microchip/xc32/v4.20/bin/bin/../../lib/gcc/pic32c/8.3.1/../../../../pic32c/lib/arm/v5te/nofp\libpic32c.a(lseek.o)

.debug_abbrev   0x00000000    0x14868
 .debug_abbrev  0x00000000       0x99 build/lcdc_rgba888_mxt_9x60_wvga/production/_ext/236556520/bsp.o
 .debug_abbrev  0x00000099      0x53e build/lcdc_rgba888_mxt_9x60_wvga/production/_ext/103208383/drv_i2c.o
 .debug_abbrev  0x000005d7      0x634 build/lcdc_rgba888_mxt_9x60_wvga/production/_ext/1959449242/drv_maxtouch.o
 .debug_abbrev  0x00000c0b      0x491 build/lcdc_rgba888_mxt_9x60_wvga/production/_ext/1165331637/gfx_driver.o
 .debug_abbrev  0x0000109c      0x4d2 build/lcdc_rgba888_mxt_9x60_wvga/production/_ext/129784465/drv_gfx_lcdc.o
 .debug_abbrev  0x0000156e      0x3c2 build/lcdc_rgba888_mxt_9x60_wvga/production/_ext/305146849/legato_math.o
 .debug_abbrev  0x00001930      0x184 build/lcdc_rgba888_mxt_9x60_wvga/production/_ext/305146849/legato_color_blend.o
 .debug_abbrev  0x00001ab4      0x2f3 build/lcdc_rgba888_mxt_9x60_wvga/production/_ext/305146849/legato_color_convert.o
 .debug_abbrev  0x00001da7      0x25d build/lcdc_rgba888_mxt_9x60_wvga/production/_ext/305146849/legato_rect.o
 .debug_abbrev  0x00002004      0x400 build/lcdc_rgba888_mxt_9x60_wvga/production/_ext/305146849/legato_utils.o
 .debug_abbrev  0x00002404      0x385 build/lcdc_rgba888_mxt_9x60_wvga/production/_ext/305146849/legato_pixelbuffer.o
 .debug_abbrev  0x00002789      0x231 build/lcdc_rgba888_mxt_9x60_wvga/production/_ext/305146849/legato_color_lerp.o
 .debug_abbrev  0x000029ba      0x1dc build/lcdc_rgba888_mxt_9x60_wvga/production/_ext/305146849/legato_color.o
 .debug_abbrev  0x00002b96      0x510 build/lcdc_rgba888_mxt_9x60_wvga/production/_ext/1618192685/legato_state.o
 .debug_abbrev  0x000030a6      0x2bf build/lcdc_rgba888_mxt_9x60_wvga/production/_ext/1618192685/legato_scheme.o
 .debug_abbrev  0x00003365      0x38a build/lcdc_rgba888_mxt_9x60_wvga/production/_ext/1618192685/legato_event.o
 .debug_abbrev  0x000036ef      0x3cd build/lcdc_rgba888_mxt_9x60_wvga/production/_ext/1618192685/legato_input.o
 .debug_abbrev  0x00003abc      0x2cc build/lcdc_rgba888_mxt_9x60_wvga/production/_ext/109670485/legato_rectarray.o
 .debug_abbrev  0x00003d88      0x247 build/lcdc_rgba888_mxt_9x60_wvga/production/_ext/109670485/legato_array.o
 .debug_abbrev  0x00003fcf      0x275 build/lcdc_rgba888_mxt_9x60_wvga/production/_ext/109670485/legato_list.o
 .debug_abbrev  0x00004244      0x397 build/lcdc_rgba888_mxt_9x60_wvga/production/_ext/1618103421/legato_font.o
 .debug_abbrev  0x000045db      0x1d5 build/lcdc_rgba888_mxt_9x60_wvga/production/_ext/644506877/le_gen_fonts.o
 .debug_abbrev  0x000047b0      0x231 build/lcdc_rgba888_mxt_9x60_wvga/production/_ext/1497821479/le_gen_images.o
 .debug_abbrev  0x000049e1      0x39f build/lcdc_rgba888_mxt_9x60_wvga/production/_ext/534613472/le_gen_screen_Screen0.o
 .debug_abbrev  0x00004d80      0x3b2 build/lcdc_rgba888_mxt_9x60_wvga/production/_ext/534613472/le_gen_screen_Screen1.o
 .debug_abbrev  0x00005132      0x27b build/lcdc_rgba888_mxt_9x60_wvga/production/_ext/706129189/le_gen_init.o
 .debug_abbrev  0x000053ad      0x1c2 build/lcdc_rgba888_mxt_9x60_wvga/production/_ext/706129189/le_gen_globalpalette.o
 .debug_abbrev  0x0000556f      0x1f4 build/lcdc_rgba888_mxt_9x60_wvga/production/_ext/706129189/le_gen_scheme.o
 .debug_abbrev  0x00005763      0x241 build/lcdc_rgba888_mxt_9x60_wvga/production/_ext/706129189/le_gen_stringtable.o
 .debug_abbrev  0x000059a4      0x2aa build/lcdc_rgba888_mxt_9x60_wvga/production/_ext/706129189/le_gen_harmony.o
 .debug_abbrev  0x00005c4e      0x3cc build/lcdc_rgba888_mxt_9x60_wvga/production/_ext/2086705360/legato_imagedecoder_jpeg.o
 .debug_abbrev  0x0000601a      0x494 build/lcdc_rgba888_mxt_9x60_wvga/production/_ext/2086705360/legato_imagedecoder_jpeg_common.o
 .debug_abbrev  0x000064ae      0x132 build/lcdc_rgba888_mxt_9x60_wvga/production/_ext/2086705360/jidctint.o
 .debug_abbrev  0x000065e0      0x223 build/lcdc_rgba888_mxt_9x60_wvga/production/_ext/2086794059/legato_imagedecoder_mono_read_internal.o
 .debug_abbrev  0x00006803      0x426 build/lcdc_rgba888_mxt_9x60_wvga/production/_ext/2086794059/legato_imagedecoder_mono.o
 .debug_abbrev  0x00006c29      0x64e build/lcdc_rgba888_mxt_9x60_wvga/production/_ext/1872343871/lodepng.o
 .debug_abbrev  0x00007277      0x335 build/lcdc_rgba888_mxt_9x60_wvga/production/_ext/1872343871/legato_imagedecoder_png.o
 .debug_abbrev  0x000075ac      0x242 build/lcdc_rgba888_mxt_9x60_wvga/production/_ext/1872342336/legato_imagedecoder_raw_setup.o
 .debug_abbrev  0x000077ee      0x261 build/lcdc_rgba888_mxt_9x60_wvga/production/_ext/1872342336/legato_imagedecoder_raw_scale.o
 .debug_abbrev  0x00007a4f      0x498 build/lcdc_rgba888_mxt_9x60_wvga/production/_ext/1872342336/legato_imagedecoder_raw.o
 .debug_abbrev  0x00007ee7      0x2e1 build/lcdc_rgba888_mxt_9x60_wvga/production/_ext/1872342336/legato_imagedecoder_raw_read_internal.o
 .debug_abbrev  0x000081c8      0x263 build/lcdc_rgba888_mxt_9x60_wvga/production/_ext/1872342336/legato_imagedecoder_raw_write.o
 .debug_abbrev  0x0000842b      0x2a1 build/lcdc_rgba888_mxt_9x60_wvga/production/_ext/1872342336/legato_imagedecoder_raw_blend.o
 .debug_abbrev  0x000086cc      0x1ed build/lcdc_rgba888_mxt_9x60_wvga/production/_ext/1872342336/legato_imagedecoder_raw_mask.o
 .debug_abbrev  0x000088b9      0x266 build/lcdc_rgba888_mxt_9x60_wvga/production/_ext/1872342336/legato_imagedecoder_raw_convert.o
 .debug_abbrev  0x00008b1f      0x25f build/lcdc_rgba888_mxt_9x60_wvga/production/_ext/1872342336/legato_imagedecoder_raw_rotate.o
 .debug_abbrev  0x00008d7e      0x2d4 build/lcdc_rgba888_mxt_9x60_wvga/production/_ext/1872342336/legato_imagedecoder_raw_palette_internal.o
 .debug_abbrev  0x00009052      0x1c4 build/lcdc_rgba888_mxt_9x60_wvga/production/_ext/1381099687/legato_image_utils.o
 .debug_abbrev  0x00009216      0x3d7 build/lcdc_rgba888_mxt_9x60_wvga/production/_ext/1381099687/legato_image.o
 .debug_abbrev  0x000095ed      0x220 build/lcdc_rgba888_mxt_9x60_wvga/production/_ext/28088523/legato_fixedheap.o
 .debug_abbrev  0x0000980d      0x384 build/lcdc_rgba888_mxt_9x60_wvga/production/_ext/28088523/legato_memory.o
 .debug_abbrev  0x00009b91      0x42d build/lcdc_rgba888_mxt_9x60_wvga/production/_ext/28088523/legato_variableheap.o
 .debug_abbrev  0x00009fbe      0x243 build/lcdc_rgba888_mxt_9x60_wvga/production/_ext/1081070089/legato_draw_rect.o
 .debug_abbrev  0x0000a201      0x246 build/lcdc_rgba888_mxt_9x60_wvga/production/_ext/1081070089/legato_draw_line.o
 .debug_abbrev  0x0000a447      0x68d build/lcdc_rgba888_mxt_9x60_wvga/production/_ext/1081070089/legato_renderer.o
 .debug_abbrev  0x0000aad4      0x323 build/lcdc_rgba888_mxt_9x60_wvga/production/_ext/1081070089/legato_draw.o
 .debug_abbrev  0x0000adf7      0x397 build/lcdc_rgba888_mxt_9x60_wvga/production/_ext/1081070089/legato_draw_arc.o
 .debug_abbrev  0x0000b18e      0x334 build/lcdc_rgba888_mxt_9x60_wvga/production/_ext/1081070089/legato_gpu.o
 .debug_abbrev  0x0000b4c2      0x386 build/lcdc_rgba888_mxt_9x60_wvga/production/_ext/157682245/legato_string_renderer.o
 .debug_abbrev  0x0000b848      0x393 build/lcdc_rgba888_mxt_9x60_wvga/production/_ext/157682245/legato_stringutils.o
 .debug_abbrev  0x0000bbdb      0x385 build/lcdc_rgba888_mxt_9x60_wvga/production/_ext/157682245/legato_tablestring.o
 .debug_abbrev  0x0000bf60      0x38e build/lcdc_rgba888_mxt_9x60_wvga/production/_ext/157682245/legato_string.o
 .debug_abbrev  0x0000c2ee      0x2e4 build/lcdc_rgba888_mxt_9x60_wvga/production/_ext/157682245/legato_fixedstring.o
 .debug_abbrev  0x0000c5d2      0x288 build/lcdc_rgba888_mxt_9x60_wvga/production/_ext/157682245/legato_stringtable.o
 .debug_abbrev  0x0000c85a      0x479 build/lcdc_rgba888_mxt_9x60_wvga/production/_ext/1339002025/legato_widget_button.o
 .debug_abbrev  0x0000ccd3      0x3f9 build/lcdc_rgba888_mxt_9x60_wvga/production/_ext/1339002025/legato_widget_button_skin_classic.o
 .debug_abbrev  0x0000d0cc      0x30f build/lcdc_rgba888_mxt_9x60_wvga/production/_ext/1197524732/legato_widget_image_skin_classic.o
 .debug_abbrev  0x0000d3db      0x35c build/lcdc_rgba888_mxt_9x60_wvga/production/_ext/1197524732/legato_widget_image.o
 .debug_abbrev  0x0000d737      0x367 build/lcdc_rgba888_mxt_9x60_wvga/production/_ext/1195110755/legato_widget_label.o
 .debug_abbrev  0x0000da9e      0x36d build/lcdc_rgba888_mxt_9x60_wvga/production/_ext/1195110755/legato_widget_label_skin_classic.o
 .debug_abbrev  0x0000de0b      0x324 build/lcdc_rgba888_mxt_9x60_wvga/production/_ext/337100648/legato_widget_rectangle.o
 .debug_abbrev  0x0000e12f      0x2ef build/lcdc_rgba888_mxt_9x60_wvga/production/_ext/337100648/legato_widget_rectangle_skin_classic.o
 .debug_abbrev  0x0000e41e      0x2db build/lcdc_rgba888_mxt_9x60_wvga/production/_ext/261620856/legato_widget_skin_classic.o
 .debug_abbrev  0x0000e6f9      0x4cf build/lcdc_rgba888_mxt_9x60_wvga/production/_ext/261620856/legato_widget.o
 .debug_abbrev  0x0000ebc8      0x39b build/lcdc_rgba888_mxt_9x60_wvga/production/_ext/261620856/legato_widget_skin_classic_common.o
 .debug_abbrev  0x0000ef63      0x300 build/lcdc_rgba888_mxt_9x60_wvga/production/_ext/4986847/plib_aic.o
 .debug_abbrev  0x0000f263      0x151 build/lcdc_rgba888_mxt_9x60_wvga/production/_ext/4988870/plib_clk.o
 .debug_abbrev  0x0000f3b4      0x328 build/lcdc_rgba888_mxt_9x60_wvga/production/_ext/813772974/plib_flexcom6_twi_master.o
 .debug_abbrev  0x0000f6dc      0x381 build/lcdc_rgba888_mxt_9x60_wvga/production/_ext/154914322/plib_lcdc.o
 .debug_abbrev  0x0000fa5d      0x242 build/lcdc_rgba888_mxt_9x60_wvga/production/_ext/4998521/plib_mmu.o
 .debug_abbrev  0x0000fc9f      0x139 build/lcdc_rgba888_mxt_9x60_wvga/production/_ext/5001274/plib_pio.o
 .debug_abbrev  0x0000fdd8      0x1dd build/lcdc_rgba888_mxt_9x60_wvga/production/_ext/1247087435/plib_tc0.o
 .debug_abbrev  0x0000ffb5       0x96 build/lcdc_rgba888_mxt_9x60_wvga/production/_ext/286729486/xc32_monitor.o
 .debug_abbrev  0x0001004b      0x235 build/lcdc_rgba888_mxt_9x60_wvga/production/_ext/1414187873/sys_input.o
 .debug_abbrev  0x00010280      0x290 build/lcdc_rgba888_mxt_9x60_wvga/production/_ext/1826491803/sys_int.o
 .debug_abbrev  0x00010510      0x58b build/lcdc_rgba888_mxt_9x60_wvga/production/_ext/1812361045/sys_time.o
 .debug_abbrev  0x00010a9b      0x32a build/lcdc_rgba888_mxt_9x60_wvga/production/_ext/2052985144/initialization.o
 .debug_abbrev  0x00010dc5       0x12 build/lcdc_rgba888_mxt_9x60_wvga/production/_ext/2052985144/cstartup.o
 .debug_abbrev  0x00010dd7       0x33 build/lcdc_rgba888_mxt_9x60_wvga/production/_ext/2052985144/fault_handlers.o
 .debug_abbrev  0x00010e0a      0x253 build/lcdc_rgba888_mxt_9x60_wvga/production/_ext/2052985144/interrupts.o
 .debug_abbrev  0x0001105d      0x208 build/lcdc_rgba888_mxt_9x60_wvga/production/_ext/2052985144/tasks.o
 .debug_abbrev  0x00011265      0x25b build/lcdc_rgba888_mxt_9x60_wvga/production/_ext/1360937237/app.o
 .debug_abbrev  0x000114c0      0x1ed build/lcdc_rgba888_mxt_9x60_wvga/production/_ext/1360937237/main.o
 .debug_abbrev  0x000116ad      0x2cf build/lcdc_rgba888_mxt_9x60_wvga/production/_ext/1360937237/app_screen0.o
 .debug_abbrev  0x0001197c      0x27a build/lcdc_rgba888_mxt_9x60_wvga/production/_ext/5003525/plib_rtc.o
 .debug_abbrev  0x00011bf6      0x349 build/lcdc_rgba888_mxt_9x60_wvga/production/_ext/1360937237/app_screen1.o
 .debug_abbrev  0x00011f3f      0x3a7 build/lcdc_rgba888_mxt_9x60_wvga/production/_ext/1121151461/gfx_canvas_api.o
 .debug_abbrev  0x000122e6      0x5e0 build/lcdc_rgba888_mxt_9x60_wvga/production/_ext/1121151461/gfx_canvas.o
 .debug_abbrev  0x000128c6       0x2b c:/program files/microchip/xc32/v4.20/bin/bin/../../lib/gcc/pic32c/8.3.1/../../../../pic32c/lib/arm/v5te/nofp\libpic32c.a(data_init_wrapper.o)
 .debug_abbrev  0x000128f1       0x2e c:/program files/microchip/xc32/v4.20/bin/bin/../../lib/gcc/pic32c/8.3.1/../../../../pic32c/lib/arm/v5te/nofp\libpic32c.a(data_init_0_1.o)
 .debug_abbrev  0x0001291f       0x14 c:/program files/microchip/xc32/v4.20/bin/bin/../../lib/gcc/pic32c/8.3.1/arm/v5te/nofp\libgcc.a(_udivsi3.o)
 .debug_abbrev  0x00012933       0x14 c:/program files/microchip/xc32/v4.20/bin/bin/../../lib/gcc/pic32c/8.3.1/arm/v5te/nofp\libgcc.a(_divsi3.o)
 .debug_abbrev  0x00012947       0x14 c:/program files/microchip/xc32/v4.20/bin/bin/../../lib/gcc/pic32c/8.3.1/arm/v5te/nofp\libgcc.a(_dvmd_tls.o)
 .debug_abbrev  0x0001295b       0x14 c:/program files/microchip/xc32/v4.20/bin/bin/../../lib/gcc/pic32c/8.3.1/arm/v5te/nofp\libgcc.a(_arm_addsubsf3.o)
 .debug_abbrev  0x0001296f       0x14 c:/program files/microchip/xc32/v4.20/bin/bin/../../lib/gcc/pic32c/8.3.1/arm/v5te/nofp\libgcc.a(_arm_muldivsf3.o)
 .debug_abbrev  0x00012983       0x14 c:/program files/microchip/xc32/v4.20/bin/bin/../../lib/gcc/pic32c/8.3.1/arm/v5te/nofp\libgcc.a(_arm_cmpsf2.o)
 .debug_abbrev  0x00012997       0x14 c:/program files/microchip/xc32/v4.20/bin/bin/../../lib/gcc/pic32c/8.3.1/arm/v5te/nofp\libgcc.a(_arm_fixsfsi.o)
 .debug_abbrev  0x000129ab       0x14 c:/program files/microchip/xc32/v4.20/bin/bin/../../lib/gcc/pic32c/8.3.1/arm/v5te/nofp\libgcc.a(_arm_fixunssfsi.o)
 .debug_abbrev  0x000129bf       0x14 c:/program files/microchip/xc32/v4.20/bin/bin/../../lib/gcc/pic32c/8.3.1/arm/v5te/nofp\libgcc.a(_aeabi_uldivmod.o)
 .debug_abbrev  0x000129d3       0x8e c:/program files/microchip/xc32/v4.20/bin/bin/../../lib/gcc/pic32c/8.3.1/arm/v5te/nofp\libgcc.a(_udivmoddi4.o)
 .debug_abbrev  0x00012a61      0x117 c:/program files/microchip/xc32/v4.20/bin/bin/../../lib/gcc/pic32c/8.3.1/../../../../pic32c/lib/arm/v5te/nofp\libc-musl.a(__libc_start_main.o)
 .debug_abbrev  0x00012b78       0xb8 c:/program files/microchip/xc32/v4.20/bin/bin/../../lib/gcc/pic32c/8.3.1/../../../../pic32c/lib/arm/v5te/nofp\libc-musl.a(libc.o)
 .debug_abbrev  0x00012c30      0x12e c:/program files/microchip/xc32/v4.20/bin/bin/../../lib/gcc/pic32c/8.3.1/../../../../pic32c/lib/arm/v5te/nofp\libc-musl.a(__sio_sprintf_doux.o)
 .debug_abbrev  0x00012d5e      0x120 c:/program files/microchip/xc32/v4.20/bin/bin/../../lib/gcc/pic32c/8.3.1/../../../../pic32c/lib/arm/v5te/nofp\libc-musl.a(__fmt_d.o)
 .debug_abbrev  0x00012e7e      0x120 c:/program files/microchip/xc32/v4.20/bin/bin/../../lib/gcc/pic32c/8.3.1/../../../../pic32c/lib/arm/v5te/nofp\libc-musl.a(__fmt_o.o)
 .debug_abbrev  0x00012f9e      0x11d c:/program files/microchip/xc32/v4.20/bin/bin/../../lib/gcc/pic32c/8.3.1/../../../../pic32c/lib/arm/v5te/nofp\libc-musl.a(__fmt_s.o)
 .debug_abbrev  0x000130bb      0x174 c:/program files/microchip/xc32/v4.20/bin/bin/../../lib/gcc/pic32c/8.3.1/../../../../pic32c/lib/arm/v5te/nofp\libc-musl.a(__fmt_u.o)
 .debug_abbrev  0x0001322f      0x10f c:/program files/microchip/xc32/v4.20/bin/bin/../../lib/gcc/pic32c/8.3.1/../../../../pic32c/lib/arm/v5te/nofp\libc-musl.a(__fmt_x.o)
 .debug_abbrev  0x0001333e       0xbd c:/program files/microchip/xc32/v4.20/bin/bin/../../lib/gcc/pic32c/8.3.1/../../../../pic32c/lib/arm/v5te/nofp\libc-musl.a(__pop_int.o)
 .debug_abbrev  0x000133fb       0xce c:/program files/microchip/xc32/v4.20/bin/bin/../../lib/gcc/pic32c/8.3.1/../../../../pic32c/lib/arm/v5te/nofp\libc-musl.a(__pop_ptr.o)
 .debug_abbrev  0x000134c9      0x2c5 c:/program files/microchip/xc32/v4.20/bin/bin/../../lib/gcc/pic32c/8.3.1/../../../../pic32c/lib/arm/v5te/nofp\libc-musl.a(__printf_core.o)
 .debug_abbrev  0x0001378e      0x135 c:/program files/microchip/xc32/v4.20/bin/bin/../../lib/gcc/pic32c/8.3.1/../../../../pic32c/lib/arm/v5te/nofp\libc-musl.a(stdout.o)
 .debug_abbrev  0x000138c3       0xbb c:/program files/microchip/xc32/v4.20/bin/bin/../../lib/gcc/pic32c/8.3.1/../../../../pic32c/lib/arm/v5te/nofp\libc-musl.a(atoi.o)
 .debug_abbrev  0x0001397e       0x9c c:/program files/microchip/xc32/v4.20/bin/bin/../../lib/gcc/pic32c/8.3.1/../../../../pic32c/lib/arm/v5te/nofp\libc-musl.a(memcpy.o)
 .debug_abbrev  0x00013a1a       0x97 c:/program files/microchip/xc32/v4.20/bin/bin/../../lib/gcc/pic32c/8.3.1/../../../../pic32c/lib/arm/v5te/nofp\libc-musl.a(memset.o)
 .debug_abbrev  0x00013ab1       0x86 c:/program files/microchip/xc32/v4.20/bin/bin/../../lib/gcc/pic32c/8.3.1/../../../../pic32c/lib/arm/v5te/nofp\libc-musl.a(strlen.o)
 .debug_abbrev  0x00013b37       0xfd c:/program files/microchip/xc32/v4.20/bin/bin/../../lib/gcc/pic32c/8.3.1/../../../../pic32c/lib/arm/v5te/nofp\libc-musl.a(tolower.o)
 .debug_abbrev  0x00013c34       0xfd c:/program files/microchip/xc32/v4.20/bin/bin/../../lib/gcc/pic32c/8.3.1/../../../../pic32c/lib/arm/v5te/nofp\libc-musl.a(toupper.o)
 .debug_abbrev  0x00013d31       0x57 c:/program files/microchip/xc32/v4.20/bin/bin/../../lib/gcc/pic32c/8.3.1/../../../../pic32c/lib/arm/v5te/nofp\libc-musl.a(__environ.o)
 .debug_abbrev  0x00013d88       0x2e c:/program files/microchip/xc32/v4.20/bin/bin/../../lib/gcc/pic32c/8.3.1/../../../../pic32c/lib/arm/v5te/nofp\libc-musl.a(__errno_location.o)
 .debug_abbrev  0x00013db6      0x111 c:/program files/microchip/xc32/v4.20/bin/bin/../../lib/gcc/pic32c/8.3.1/../../../../pic32c/lib/arm/v5te/nofp\libc-musl.a(__int_vfprintf.o)
 .debug_abbrev  0x00013ec7       0xc3 c:/program files/microchip/xc32/v4.20/bin/bin/../../lib/gcc/pic32c/8.3.1/../../../../pic32c/lib/arm/v5te/nofp\libc-musl.a(__int_vsprintf.o)
 .debug_abbrev  0x00013f8a       0xbd c:/program files/microchip/xc32/v4.20/bin/bin/../../lib/gcc/pic32c/8.3.1/../../../../pic32c/lib/arm/v5te/nofp\libc-musl.a(__pop_float.o)
 .debug_abbrev  0x00014047      0x127 c:/program files/microchip/xc32/v4.20/bin/bin/../../lib/gcc/pic32c/8.3.1/../../../../pic32c/lib/arm/v5te/nofp\libc-musl.a(__int_vsnprintf.o)
 .debug_abbrev  0x0001416e       0x5a c:/program files/microchip/xc32/v4.20/bin/bin/../../lib/gcc/pic32c/8.3.1/../../../../pic32c/lib/arm/v5te/nofp\libc-musl.a(__init_stdio.o)
 .debug_abbrev  0x000141c8      0x16c c:/program files/microchip/xc32/v4.20/bin/bin/../../lib/gcc/pic32c/8.3.1/../../../../pic32c/lib/arm/v5te/nofp\libc-musl.a(__out.o)
 .debug_abbrev  0x00014334      0x122 c:/program files/microchip/xc32/v4.20/bin/bin/../../lib/gcc/pic32c/8.3.1/../../../../pic32c/lib/arm/v5te/nofp\libc-musl.a(__stdio_close.o)
 .debug_abbrev  0x00014456      0x143 c:/program files/microchip/xc32/v4.20/bin/bin/../../lib/gcc/pic32c/8.3.1/../../../../pic32c/lib/arm/v5te/nofp\libc-musl.a(__stdio_seek.o)
 .debug_abbrev  0x00014599      0x154 c:/program files/microchip/xc32/v4.20/bin/bin/../../lib/gcc/pic32c/8.3.1/../../../../pic32c/lib/arm/v5te/nofp\libc-musl.a(__stdout.o)
 .debug_abbrev  0x000146ed      0x11f c:/program files/microchip/xc32/v4.20/bin/bin/../../lib/gcc/pic32c/8.3.1/../../../../pic32c/lib/arm/v5te/nofp\libc-musl.a(__fwrite.o)
 .debug_abbrev  0x0001480c       0x2e c:/program files/microchip/xc32/v4.20/bin/bin/../../lib/gcc/pic32c/8.3.1/../../../../pic32c/lib/arm/v5te/nofp\libpic32c.a(close.o)
 .debug_abbrev  0x0001483a       0x2e c:/program files/microchip/xc32/v4.20/bin/bin/../../lib/gcc/pic32c/8.3.1/../../../../pic32c/lib/arm/v5te/nofp\libpic32c.a(lseek.o)

.debug_aranges  0x00000000     0x3660
 .debug_aranges
                0x00000000       0x20 build/lcdc_rgba888_mxt_9x60_wvga/production/_ext/236556520/bsp.o
 .debug_aranges
                0x00000020       0xc0 build/lcdc_rgba888_mxt_9x60_wvga/production/_ext/103208383/drv_i2c.o
 .debug_aranges
                0x000000e0       0xe0 build/lcdc_rgba888_mxt_9x60_wvga/production/_ext/1959449242/drv_maxtouch.o
 .debug_aranges
                0x000001c0      0x230 build/lcdc_rgba888_mxt_9x60_wvga/production/_ext/1165331637/gfx_driver.o
 .debug_aranges
                0x000003f0       0x58 build/lcdc_rgba888_mxt_9x60_wvga/production/_ext/129784465/drv_gfx_lcdc.o
 .debug_aranges
                0x00000448      0x138 build/lcdc_rgba888_mxt_9x60_wvga/production/_ext/305146849/legato_math.o
 .debug_aranges
                0x00000580       0x28 build/lcdc_rgba888_mxt_9x60_wvga/production/_ext/305146849/legato_color_blend.o
 .debug_aranges
                0x000005a8      0x168 build/lcdc_rgba888_mxt_9x60_wvga/production/_ext/305146849/legato_color_convert.o
 .debug_aranges
                0x00000710       0x70 build/lcdc_rgba888_mxt_9x60_wvga/production/_ext/305146849/legato_rect.o
 .debug_aranges
                0x00000780       0x90 build/lcdc_rgba888_mxt_9x60_wvga/production/_ext/305146849/legato_utils.o
 .debug_aranges
                0x00000810       0xd8 build/lcdc_rgba888_mxt_9x60_wvga/production/_ext/305146849/legato_pixelbuffer.o
 .debug_aranges
                0x000008e8       0x60 build/lcdc_rgba888_mxt_9x60_wvga/production/_ext/305146849/legato_color_lerp.o
 .debug_aranges
                0x00000948       0x40 build/lcdc_rgba888_mxt_9x60_wvga/production/_ext/305146849/legato_color.o
 .debug_aranges
                0x00000988      0x148 build/lcdc_rgba888_mxt_9x60_wvga/production/_ext/1618192685/legato_state.o
 .debug_aranges
                0x00000ad0       0x30 build/lcdc_rgba888_mxt_9x60_wvga/production/_ext/1618192685/legato_scheme.o
 .debug_aranges
                0x00000b00       0x60 build/lcdc_rgba888_mxt_9x60_wvga/production/_ext/1618192685/legato_event.o
 .debug_aranges
                0x00000b60       0x78 build/lcdc_rgba888_mxt_9x60_wvga/production/_ext/1618192685/legato_input.o
 .debug_aranges
                0x00000bd8       0xe0 build/lcdc_rgba888_mxt_9x60_wvga/production/_ext/109670485/legato_rectarray.o
 .debug_aranges
                0x00000cb8       0x98 build/lcdc_rgba888_mxt_9x60_wvga/production/_ext/109670485/legato_array.o
 .debug_aranges
                0x00000d50       0x80 build/lcdc_rgba888_mxt_9x60_wvga/production/_ext/109670485/legato_list.o
 .debug_aranges
                0x00000dd0       0x70 build/lcdc_rgba888_mxt_9x60_wvga/production/_ext/1618103421/legato_font.o
 .debug_aranges
                0x00000e40       0x18 build/lcdc_rgba888_mxt_9x60_wvga/production/_ext/644506877/le_gen_fonts.o
 .debug_aranges
                0x00000e58       0x18 build/lcdc_rgba888_mxt_9x60_wvga/production/_ext/1497821479/le_gen_images.o
 .debug_aranges
                0x00000e70       0x48 build/lcdc_rgba888_mxt_9x60_wvga/production/_ext/534613472/le_gen_screen_Screen0.o
 .debug_aranges
                0x00000eb8       0x48 build/lcdc_rgba888_mxt_9x60_wvga/production/_ext/534613472/le_gen_screen_Screen1.o
 .debug_aranges
                0x00000f00       0x40 build/lcdc_rgba888_mxt_9x60_wvga/production/_ext/706129189/le_gen_init.o
 .debug_aranges
                0x00000f40       0x18 build/lcdc_rgba888_mxt_9x60_wvga/production/_ext/706129189/le_gen_globalpalette.o
 .debug_aranges
                0x00000f58       0x18 build/lcdc_rgba888_mxt_9x60_wvga/production/_ext/706129189/le_gen_scheme.o
 .debug_aranges
                0x00000f70       0x20 build/lcdc_rgba888_mxt_9x60_wvga/production/_ext/706129189/le_gen_stringtable.o
 .debug_aranges
                0x00000f90       0x40 build/lcdc_rgba888_mxt_9x60_wvga/production/_ext/706129189/le_gen_harmony.o
 .debug_aranges
                0x00000fd0       0x58 build/lcdc_rgba888_mxt_9x60_wvga/production/_ext/2086705360/legato_imagedecoder_jpeg.o
 .debug_aranges
                0x00001028       0x80 build/lcdc_rgba888_mxt_9x60_wvga/production/_ext/2086705360/legato_imagedecoder_jpeg_common.o
 .debug_aranges
                0x000010a8       0x20 build/lcdc_rgba888_mxt_9x60_wvga/production/_ext/2086705360/jidctint.o
 .debug_aranges
                0x000010c8       0x28 build/lcdc_rgba888_mxt_9x60_wvga/production/_ext/2086794059/legato_imagedecoder_mono_read_internal.o
 .debug_aranges
                0x000010f0       0x88 build/lcdc_rgba888_mxt_9x60_wvga/production/_ext/2086794059/legato_imagedecoder_mono.o
 .debug_aranges
                0x00001178      0x270 build/lcdc_rgba888_mxt_9x60_wvga/production/_ext/1872343871/lodepng.o
 .debug_aranges
                0x000013e8       0x50 build/lcdc_rgba888_mxt_9x60_wvga/production/_ext/1872343871/legato_imagedecoder_png.o
 .debug_aranges
                0x00001438       0x38 build/lcdc_rgba888_mxt_9x60_wvga/production/_ext/1872342336/legato_imagedecoder_raw_setup.o
 .debug_aranges
                0x00001470       0x58 build/lcdc_rgba888_mxt_9x60_wvga/production/_ext/1872342336/legato_imagedecoder_raw_scale.o
 .debug_aranges
                0x000014c8       0xa8 build/lcdc_rgba888_mxt_9x60_wvga/production/_ext/1872342336/legato_imagedecoder_raw.o
 .debug_aranges
                0x00001570       0x58 build/lcdc_rgba888_mxt_9x60_wvga/production/_ext/1872342336/legato_imagedecoder_raw_read_internal.o
 .debug_aranges
                0x000015c8       0x38 build/lcdc_rgba888_mxt_9x60_wvga/production/_ext/1872342336/legato_imagedecoder_raw_write.o
 .debug_aranges
                0x00001600       0x38 build/lcdc_rgba888_mxt_9x60_wvga/production/_ext/1872342336/legato_imagedecoder_raw_blend.o
 .debug_aranges
                0x00001638       0x28 build/lcdc_rgba888_mxt_9x60_wvga/production/_ext/1872342336/legato_imagedecoder_raw_mask.o
 .debug_aranges
                0x00001660       0x28 build/lcdc_rgba888_mxt_9x60_wvga/production/_ext/1872342336/legato_imagedecoder_raw_convert.o
 .debug_aranges
                0x00001688       0x48 build/lcdc_rgba888_mxt_9x60_wvga/production/_ext/1872342336/legato_imagedecoder_raw_rotate.o
 .debug_aranges
                0x000016d0       0x38 build/lcdc_rgba888_mxt_9x60_wvga/production/_ext/1872342336/legato_imagedecoder_raw_palette_internal.o
 .debug_aranges
                0x00001708       0x78 build/lcdc_rgba888_mxt_9x60_wvga/production/_ext/1381099687/legato_image_utils.o
 .debug_aranges
                0x00001780       0x78 build/lcdc_rgba888_mxt_9x60_wvga/production/_ext/1381099687/legato_image.o
 .debug_aranges
                0x000017f8       0x48 build/lcdc_rgba888_mxt_9x60_wvga/production/_ext/28088523/legato_fixedheap.o
 .debug_aranges
                0x00001840       0x60 build/lcdc_rgba888_mxt_9x60_wvga/production/_ext/28088523/legato_memory.o
 .debug_aranges
                0x000018a0       0xa0 build/lcdc_rgba888_mxt_9x60_wvga/production/_ext/28088523/legato_variableheap.o
 .debug_aranges
                0x00001940       0x38 build/lcdc_rgba888_mxt_9x60_wvga/production/_ext/1081070089/legato_draw_rect.o
 .debug_aranges
                0x00001978       0x38 build/lcdc_rgba888_mxt_9x60_wvga/production/_ext/1081070089/legato_draw_line.o
 .debug_aranges
                0x000019b0       0xf0 build/lcdc_rgba888_mxt_9x60_wvga/production/_ext/1081070089/legato_renderer.o
 .debug_aranges
                0x00001aa0       0x88 build/lcdc_rgba888_mxt_9x60_wvga/production/_ext/1081070089/legato_draw.o
 .debug_aranges
                0x00001b28       0x58 build/lcdc_rgba888_mxt_9x60_wvga/production/_ext/1081070089/legato_draw_arc.o
 .debug_aranges
                0x00001b80       0x48 build/lcdc_rgba888_mxt_9x60_wvga/production/_ext/1081070089/legato_gpu.o
 .debug_aranges
                0x00001bc8       0x30 build/lcdc_rgba888_mxt_9x60_wvga/production/_ext/157682245/legato_string_renderer.o
 .debug_aranges
                0x00001bf8       0xb0 build/lcdc_rgba888_mxt_9x60_wvga/production/_ext/157682245/legato_stringutils.o
 .debug_aranges
                0x00001ca8       0xb8 build/lcdc_rgba888_mxt_9x60_wvga/production/_ext/157682245/legato_tablestring.o
 .debug_aranges
                0x00001d60       0x88 build/lcdc_rgba888_mxt_9x60_wvga/production/_ext/157682245/legato_string.o
 .debug_aranges
                0x00001de8       0xa0 build/lcdc_rgba888_mxt_9x60_wvga/production/_ext/157682245/legato_fixedstring.o
 .debug_aranges
                0x00001e88       0x50 build/lcdc_rgba888_mxt_9x60_wvga/production/_ext/157682245/legato_stringtable.o
 .debug_aranges
                0x00001ed8      0x110 build/lcdc_rgba888_mxt_9x60_wvga/production/_ext/1339002025/legato_widget_button.o
 .debug_aranges
                0x00001fe8       0x60 build/lcdc_rgba888_mxt_9x60_wvga/production/_ext/1339002025/legato_widget_button_skin_classic.o
 .debug_aranges
                0x00002048       0x48 build/lcdc_rgba888_mxt_9x60_wvga/production/_ext/1197524732/legato_widget_image_skin_classic.o
 .debug_aranges
                0x00002090       0x50 build/lcdc_rgba888_mxt_9x60_wvga/production/_ext/1197524732/legato_widget_image.o
 .debug_aranges
                0x000020e0       0x60 build/lcdc_rgba888_mxt_9x60_wvga/production/_ext/1195110755/legato_widget_label.o
 .debug_aranges
                0x00002140       0x48 build/lcdc_rgba888_mxt_9x60_wvga/production/_ext/1195110755/legato_widget_label_skin_classic.o
 .debug_aranges
                0x00002188       0x40 build/lcdc_rgba888_mxt_9x60_wvga/production/_ext/337100648/legato_widget_rectangle.o
 .debug_aranges
                0x000021c8       0x48 build/lcdc_rgba888_mxt_9x60_wvga/production/_ext/337100648/legato_widget_rectangle_skin_classic.o
 .debug_aranges
                0x00002210       0x30 build/lcdc_rgba888_mxt_9x60_wvga/production/_ext/261620856/legato_widget_skin_classic.o
 .debug_aranges
                0x00002240      0x2a0 build/lcdc_rgba888_mxt_9x60_wvga/production/_ext/261620856/legato_widget.o
 .debug_aranges
                0x000024e0       0xa0 build/lcdc_rgba888_mxt_9x60_wvga/production/_ext/261620856/legato_widget_skin_classic_common.o
 .debug_aranges
                0x00002580       0x38 build/lcdc_rgba888_mxt_9x60_wvga/production/_ext/4986847/plib_aic.o
 .debug_aranges
                0x000025b8       0x20 build/lcdc_rgba888_mxt_9x60_wvga/production/_ext/4988870/plib_clk.o
 .debug_aranges
                0x000025d8       0x78 build/lcdc_rgba888_mxt_9x60_wvga/production/_ext/813772974/plib_flexcom6_twi_master.o
 .debug_aranges
                0x00002650      0x298 build/lcdc_rgba888_mxt_9x60_wvga/production/_ext/154914322/plib_lcdc.o
 .debug_aranges
                0x000028e8       0x78 build/lcdc_rgba888_mxt_9x60_wvga/production/_ext/4998521/plib_mmu.o
 .debug_aranges
                0x00002960       0x60 build/lcdc_rgba888_mxt_9x60_wvga/production/_ext/5001274/plib_pio.o
 .debug_aranges
                0x000029c0       0xb8 build/lcdc_rgba888_mxt_9x60_wvga/production/_ext/1247087435/plib_tc0.o
 .debug_aranges
                0x00002a78       0x28 build/lcdc_rgba888_mxt_9x60_wvga/production/_ext/286729486/xc32_monitor.o
 .debug_aranges
                0x00002aa0       0xa0 build/lcdc_rgba888_mxt_9x60_wvga/production/_ext/1414187873/sys_input.o
 .debug_aranges
                0x00002b40       0x70 build/lcdc_rgba888_mxt_9x60_wvga/production/_ext/1826491803/sys_int.o
 .debug_aranges
                0x00002bb0      0x120 build/lcdc_rgba888_mxt_9x60_wvga/production/_ext/1812361045/sys_time.o
 .debug_aranges
                0x00002cd0       0x20 build/lcdc_rgba888_mxt_9x60_wvga/production/_ext/2052985144/initialization.o
 .debug_aranges
                0x00002cf0       0x30 build/lcdc_rgba888_mxt_9x60_wvga/production/_ext/2052985144/cstartup.o
 .debug_aranges
                0x00002d20       0x38 build/lcdc_rgba888_mxt_9x60_wvga/production/_ext/2052985144/fault_handlers.o
 .debug_aranges
                0x00002d58       0x40 build/lcdc_rgba888_mxt_9x60_wvga/production/_ext/2052985144/interrupts.o
 .debug_aranges
                0x00002d98       0x20 build/lcdc_rgba888_mxt_9x60_wvga/production/_ext/2052985144/tasks.o
 .debug_aranges
                0x00002db8       0x28 build/lcdc_rgba888_mxt_9x60_wvga/production/_ext/1360937237/app.o
 .debug_aranges
                0x00002de0       0x20 build/lcdc_rgba888_mxt_9x60_wvga/production/_ext/1360937237/main.o
 .debug_aranges
                0x00002e00       0x30 build/lcdc_rgba888_mxt_9x60_wvga/production/_ext/1360937237/app_screen0.o
 .debug_aranges
                0x00002e30       0x58 build/lcdc_rgba888_mxt_9x60_wvga/production/_ext/5003525/plib_rtc.o
 .debug_aranges
                0x00002e88       0x58 build/lcdc_rgba888_mxt_9x60_wvga/production/_ext/1360937237/app_screen1.o
 .debug_aranges
                0x00002ee0       0xc8 build/lcdc_rgba888_mxt_9x60_wvga/production/_ext/1121151461/gfx_canvas_api.o
 .debug_aranges
                0x00002fa8       0xa8 build/lcdc_rgba888_mxt_9x60_wvga/production/_ext/1121151461/gfx_canvas.o
 .debug_aranges
                0x00003050       0x20 c:/program files/microchip/xc32/v4.20/bin/bin/../../lib/gcc/pic32c/8.3.1/../../../../pic32c/lib/arm/v5te/nofp\libpic32c.a(data_init_wrapper.o)
 .debug_aranges
                0x00003070       0x20 c:/program files/microchip/xc32/v4.20/bin/bin/../../lib/gcc/pic32c/8.3.1/../../../../pic32c/lib/arm/v5te/nofp\libpic32c.a(data_init_0_1.o)
 .debug_aranges
                0x00003090       0x20 c:/program files/microchip/xc32/v4.20/bin/bin/../../lib/gcc/pic32c/8.3.1/arm/v5te/nofp\libgcc.a(_udivsi3.o)
 .debug_aranges
                0x000030b0       0x20 c:/program files/microchip/xc32/v4.20/bin/bin/../../lib/gcc/pic32c/8.3.1/arm/v5te/nofp\libgcc.a(_divsi3.o)
 .debug_aranges
                0x000030d0       0x20 c:/program files/microchip/xc32/v4.20/bin/bin/../../lib/gcc/pic32c/8.3.1/arm/v5te/nofp\libgcc.a(_dvmd_tls.o)
 .debug_aranges
                0x000030f0       0x20 c:/program files/microchip/xc32/v4.20/bin/bin/../../lib/gcc/pic32c/8.3.1/arm/v5te/nofp\libgcc.a(_arm_addsubsf3.o)
 .debug_aranges
                0x00003110       0x20 c:/program files/microchip/xc32/v4.20/bin/bin/../../lib/gcc/pic32c/8.3.1/arm/v5te/nofp\libgcc.a(_arm_muldivsf3.o)
 .debug_aranges
                0x00003130       0x20 c:/program files/microchip/xc32/v4.20/bin/bin/../../lib/gcc/pic32c/8.3.1/arm/v5te/nofp\libgcc.a(_arm_cmpsf2.o)
 .debug_aranges
                0x00003150       0x20 c:/program files/microchip/xc32/v4.20/bin/bin/../../lib/gcc/pic32c/8.3.1/arm/v5te/nofp\libgcc.a(_arm_fixsfsi.o)
 .debug_aranges
                0x00003170       0x20 c:/program files/microchip/xc32/v4.20/bin/bin/../../lib/gcc/pic32c/8.3.1/arm/v5te/nofp\libgcc.a(_arm_fixunssfsi.o)
 .debug_aranges
                0x00003190       0x20 c:/program files/microchip/xc32/v4.20/bin/bin/../../lib/gcc/pic32c/8.3.1/arm/v5te/nofp\libgcc.a(_aeabi_uldivmod.o)
 .debug_aranges
                0x000031b0       0x20 c:/program files/microchip/xc32/v4.20/bin/bin/../../lib/gcc/pic32c/8.3.1/arm/v5te/nofp\libgcc.a(_udivmoddi4.o)
 .debug_aranges
                0x000031d0       0x28 c:/program files/microchip/xc32/v4.20/bin/bin/../../lib/gcc/pic32c/8.3.1/../../../../pic32c/lib/arm/v5te/nofp\libc-musl.a(__libc_start_main.o)
 .debug_aranges
                0x000031f8       0x18 c:/program files/microchip/xc32/v4.20/bin/bin/../../lib/gcc/pic32c/8.3.1/../../../../pic32c/lib/arm/v5te/nofp\libc-musl.a(libc.o)
 .debug_aranges
                0x00003210       0x28 c:/program files/microchip/xc32/v4.20/bin/bin/../../lib/gcc/pic32c/8.3.1/../../../../pic32c/lib/arm/v5te/nofp\libc-musl.a(__sio_sprintf_doux.o)
 .debug_aranges
                0x00003238       0x20 c:/program files/microchip/xc32/v4.20/bin/bin/../../lib/gcc/pic32c/8.3.1/../../../../pic32c/lib/arm/v5te/nofp\libc-musl.a(__fmt_d.o)
 .debug_aranges
                0x00003258       0x20 c:/program files/microchip/xc32/v4.20/bin/bin/../../lib/gcc/pic32c/8.3.1/../../../../pic32c/lib/arm/v5te/nofp\libc-musl.a(__fmt_o.o)
 .debug_aranges
                0x00003278       0x20 c:/program files/microchip/xc32/v4.20/bin/bin/../../lib/gcc/pic32c/8.3.1/../../../../pic32c/lib/arm/v5te/nofp\libc-musl.a(__fmt_s.o)
 .debug_aranges
                0x00003298       0x28 c:/program files/microchip/xc32/v4.20/bin/bin/../../lib/gcc/pic32c/8.3.1/../../../../pic32c/lib/arm/v5te/nofp\libc-musl.a(__fmt_u.o)
 .debug_aranges
                0x000032c0       0x20 c:/program files/microchip/xc32/v4.20/bin/bin/../../lib/gcc/pic32c/8.3.1/../../../../pic32c/lib/arm/v5te/nofp\libc-musl.a(__fmt_x.o)
 .debug_aranges
                0x000032e0       0x20 c:/program files/microchip/xc32/v4.20/bin/bin/../../lib/gcc/pic32c/8.3.1/../../../../pic32c/lib/arm/v5te/nofp\libc-musl.a(__pop_int.o)
 .debug_aranges
                0x00003300       0x20 c:/program files/microchip/xc32/v4.20/bin/bin/../../lib/gcc/pic32c/8.3.1/../../../../pic32c/lib/arm/v5te/nofp\libc-musl.a(__pop_ptr.o)
 .debug_aranges
                0x00003320       0x50 c:/program files/microchip/xc32/v4.20/bin/bin/../../lib/gcc/pic32c/8.3.1/../../../../pic32c/lib/arm/v5te/nofp\libc-musl.a(__printf_core.o)
 .debug_aranges
                0x00003370       0x30 c:/program files/microchip/xc32/v4.20/bin/bin/../../lib/gcc/pic32c/8.3.1/../../../../pic32c/lib/arm/v5te/nofp\libc-musl.a(stdout.o)
 .debug_aranges
                0x000033a0       0x20 c:/program files/microchip/xc32/v4.20/bin/bin/../../lib/gcc/pic32c/8.3.1/../../../../pic32c/lib/arm/v5te/nofp\libc-musl.a(atoi.o)
 .debug_aranges
                0x000033c0       0x20 c:/program files/microchip/xc32/v4.20/bin/bin/../../lib/gcc/pic32c/8.3.1/../../../../pic32c/lib/arm/v5te/nofp\libc-musl.a(memcpy.o)
 .debug_aranges
                0x000033e0       0x20 c:/program files/microchip/xc32/v4.20/bin/bin/../../lib/gcc/pic32c/8.3.1/../../../../pic32c/lib/arm/v5te/nofp\libc-musl.a(memset.o)
 .debug_aranges
                0x00003400       0x20 c:/program files/microchip/xc32/v4.20/bin/bin/../../lib/gcc/pic32c/8.3.1/../../../../pic32c/lib/arm/v5te/nofp\libc-musl.a(strlen.o)
 .debug_aranges
                0x00003420       0x28 c:/program files/microchip/xc32/v4.20/bin/bin/../../lib/gcc/pic32c/8.3.1/../../../../pic32c/lib/arm/v5te/nofp\libc-musl.a(tolower.o)
 .debug_aranges
                0x00003448       0x28 c:/program files/microchip/xc32/v4.20/bin/bin/../../lib/gcc/pic32c/8.3.1/../../../../pic32c/lib/arm/v5te/nofp\libc-musl.a(toupper.o)
 .debug_aranges
                0x00003470       0x18 c:/program files/microchip/xc32/v4.20/bin/bin/../../lib/gcc/pic32c/8.3.1/../../../../pic32c/lib/arm/v5te/nofp\libc-musl.a(__environ.o)
 .debug_aranges
                0x00003488       0x18 c:/program files/microchip/xc32/v4.20/bin/bin/../../lib/gcc/pic32c/8.3.1/../../../../pic32c/lib/arm/v5te/nofp\libc-musl.a(__errno_location.o)
 .debug_aranges
                0x000034a0       0x20 c:/program files/microchip/xc32/v4.20/bin/bin/../../lib/gcc/pic32c/8.3.1/../../../../pic32c/lib/arm/v5te/nofp\libc-musl.a(__int_vfprintf.o)
 .debug_aranges
                0x000034c0       0x20 c:/program files/microchip/xc32/v4.20/bin/bin/../../lib/gcc/pic32c/8.3.1/../../../../pic32c/lib/arm/v5te/nofp\libc-musl.a(__int_vsprintf.o)
 .debug_aranges
                0x000034e0       0x20 c:/program files/microchip/xc32/v4.20/bin/bin/../../lib/gcc/pic32c/8.3.1/../../../../pic32c/lib/arm/v5te/nofp\libc-musl.a(__pop_float.o)
 .debug_aranges
                0x00003500       0x20 c:/program files/microchip/xc32/v4.20/bin/bin/../../lib/gcc/pic32c/8.3.1/../../../../pic32c/lib/arm/v5te/nofp\libc-musl.a(__int_vsnprintf.o)
 .debug_aranges
                0x00003520       0x28 c:/program files/microchip/xc32/v4.20/bin/bin/../../lib/gcc/pic32c/8.3.1/../../../../pic32c/lib/arm/v5te/nofp\libc-musl.a(__init_stdio.o)
 .debug_aranges
                0x00003548       0x28 c:/program files/microchip/xc32/v4.20/bin/bin/../../lib/gcc/pic32c/8.3.1/../../../../pic32c/lib/arm/v5te/nofp\libc-musl.a(__out.o)
 .debug_aranges
                0x00003570       0x28 c:/program files/microchip/xc32/v4.20/bin/bin/../../lib/gcc/pic32c/8.3.1/../../../../pic32c/lib/arm/v5te/nofp\libc-musl.a(__stdio_close.o)
 .debug_aranges
                0x00003598       0x30 c:/program files/microchip/xc32/v4.20/bin/bin/../../lib/gcc/pic32c/8.3.1/../../../../pic32c/lib/arm/v5te/nofp\libc-musl.a(__stdio_seek.o)
 .debug_aranges
                0x000035c8       0x30 c:/program files/microchip/xc32/v4.20/bin/bin/../../lib/gcc/pic32c/8.3.1/../../../../pic32c/lib/arm/v5te/nofp\libc-musl.a(__stdout.o)
 .debug_aranges
                0x000035f8       0x28 c:/program files/microchip/xc32/v4.20/bin/bin/../../lib/gcc/pic32c/8.3.1/../../../../pic32c/lib/arm/v5te/nofp\libc-musl.a(__fwrite.o)
 .debug_aranges
                0x00003620       0x20 c:/program files/microchip/xc32/v4.20/bin/bin/../../lib/gcc/pic32c/8.3.1/../../../../pic32c/lib/arm/v5te/nofp\libpic32c.a(close.o)
 .debug_aranges
                0x00003640       0x20 c:/program files/microchip/xc32/v4.20/bin/bin/../../lib/gcc/pic32c/8.3.1/../../../../pic32c/lib/arm/v5te/nofp\libpic32c.a(lseek.o)

.debug_ranges   0x00000000     0x44d0
 .debug_ranges  0x00000000       0x10 build/lcdc_rgba888_mxt_9x60_wvga/production/_ext/236556520/bsp.o
 .debug_ranges  0x00000010      0x130 build/lcdc_rgba888_mxt_9x60_wvga/production/_ext/103208383/drv_i2c.o
 .debug_ranges  0x00000140      0x2b0 build/lcdc_rgba888_mxt_9x60_wvga/production/_ext/1959449242/drv_maxtouch.o
 .debug_ranges  0x000003f0      0x2d0 build/lcdc_rgba888_mxt_9x60_wvga/production/_ext/1165331637/gfx_driver.o
 .debug_ranges  0x000006c0       0x60 build/lcdc_rgba888_mxt_9x60_wvga/production/_ext/129784465/drv_gfx_lcdc.o
 .debug_ranges  0x00000720      0x128 build/lcdc_rgba888_mxt_9x60_wvga/production/_ext/305146849/legato_math.o
 .debug_ranges  0x00000848      0x108 build/lcdc_rgba888_mxt_9x60_wvga/production/_ext/305146849/legato_color_blend.o
 .debug_ranges  0x00000950      0x158 build/lcdc_rgba888_mxt_9x60_wvga/production/_ext/305146849/legato_color_convert.o
 .debug_ranges  0x00000aa8       0x60 build/lcdc_rgba888_mxt_9x60_wvga/production/_ext/305146849/legato_rect.o
 .debug_ranges  0x00000b08       0x80 build/lcdc_rgba888_mxt_9x60_wvga/production/_ext/305146849/legato_utils.o
 .debug_ranges  0x00000b88       0xc8 build/lcdc_rgba888_mxt_9x60_wvga/production/_ext/305146849/legato_pixelbuffer.o
 .debug_ranges  0x00000c50       0x50 build/lcdc_rgba888_mxt_9x60_wvga/production/_ext/305146849/legato_color_lerp.o
 .debug_ranges  0x00000ca0       0x90 build/lcdc_rgba888_mxt_9x60_wvga/production/_ext/305146849/legato_color.o
 .debug_ranges  0x00000d30      0x138 build/lcdc_rgba888_mxt_9x60_wvga/production/_ext/1618192685/legato_state.o
 .debug_ranges  0x00000e68       0x20 build/lcdc_rgba888_mxt_9x60_wvga/production/_ext/1618192685/legato_scheme.o
 .debug_ranges  0x00000e88       0x68 build/lcdc_rgba888_mxt_9x60_wvga/production/_ext/1618192685/legato_event.o
 .debug_ranges  0x00000ef0       0x68 build/lcdc_rgba888_mxt_9x60_wvga/production/_ext/1618192685/legato_input.o
 .debug_ranges  0x00000f58       0xd0 build/lcdc_rgba888_mxt_9x60_wvga/production/_ext/109670485/legato_rectarray.o
 .debug_ranges  0x00001028       0x88 build/lcdc_rgba888_mxt_9x60_wvga/production/_ext/109670485/legato_array.o
 .debug_ranges  0x000010b0       0x70 build/lcdc_rgba888_mxt_9x60_wvga/production/_ext/109670485/legato_list.o
 .debug_ranges  0x00001120       0x60 build/lcdc_rgba888_mxt_9x60_wvga/production/_ext/1618103421/legato_font.o
 .debug_ranges  0x00001180       0x38 build/lcdc_rgba888_mxt_9x60_wvga/production/_ext/534613472/le_gen_screen_Screen0.o
 .debug_ranges  0x000011b8       0x38 build/lcdc_rgba888_mxt_9x60_wvga/production/_ext/534613472/le_gen_screen_Screen1.o
 .debug_ranges  0x000011f0       0x48 build/lcdc_rgba888_mxt_9x60_wvga/production/_ext/706129189/le_gen_init.o
 .debug_ranges  0x00001238       0x10 build/lcdc_rgba888_mxt_9x60_wvga/production/_ext/706129189/le_gen_stringtable.o
 .debug_ranges  0x00001248       0x30 build/lcdc_rgba888_mxt_9x60_wvga/production/_ext/706129189/le_gen_harmony.o
 .debug_ranges  0x00001278       0x48 build/lcdc_rgba888_mxt_9x60_wvga/production/_ext/2086705360/legato_imagedecoder_jpeg.o
 .debug_ranges  0x000012c0      0x1a8 build/lcdc_rgba888_mxt_9x60_wvga/production/_ext/2086705360/legato_imagedecoder_jpeg_common.o
 .debug_ranges  0x00001468       0x10 build/lcdc_rgba888_mxt_9x60_wvga/production/_ext/2086705360/jidctint.o
 .debug_ranges  0x00001478       0x18 build/lcdc_rgba888_mxt_9x60_wvga/production/_ext/2086794059/legato_imagedecoder_mono_read_internal.o
 .debug_ranges  0x00001490       0x78 build/lcdc_rgba888_mxt_9x60_wvga/production/_ext/2086794059/legato_imagedecoder_mono.o
 .debug_ranges  0x00001508      0xda0 build/lcdc_rgba888_mxt_9x60_wvga/production/_ext/1872343871/lodepng.o
 .debug_ranges  0x000022a8       0x40 build/lcdc_rgba888_mxt_9x60_wvga/production/_ext/1872343871/legato_imagedecoder_png.o
 .debug_ranges  0x000022e8       0x28 build/lcdc_rgba888_mxt_9x60_wvga/production/_ext/1872342336/legato_imagedecoder_raw_setup.o
 .debug_ranges  0x00002310       0x48 build/lcdc_rgba888_mxt_9x60_wvga/production/_ext/1872342336/legato_imagedecoder_raw_scale.o
 .debug_ranges  0x00002358       0x98 build/lcdc_rgba888_mxt_9x60_wvga/production/_ext/1872342336/legato_imagedecoder_raw.o
 .debug_ranges  0x000023f0       0x48 build/lcdc_rgba888_mxt_9x60_wvga/production/_ext/1872342336/legato_imagedecoder_raw_read_internal.o
 .debug_ranges  0x00002438       0x28 build/lcdc_rgba888_mxt_9x60_wvga/production/_ext/1872342336/legato_imagedecoder_raw_write.o
 .debug_ranges  0x00002460       0x28 build/lcdc_rgba888_mxt_9x60_wvga/production/_ext/1872342336/legato_imagedecoder_raw_blend.o
 .debug_ranges  0x00002488       0x18 build/lcdc_rgba888_mxt_9x60_wvga/production/_ext/1872342336/legato_imagedecoder_raw_mask.o
 .debug_ranges  0x000024a0       0x18 build/lcdc_rgba888_mxt_9x60_wvga/production/_ext/1872342336/legato_imagedecoder_raw_convert.o
 .debug_ranges  0x000024b8       0x38 build/lcdc_rgba888_mxt_9x60_wvga/production/_ext/1872342336/legato_imagedecoder_raw_rotate.o
 .debug_ranges  0x000024f0       0x28 build/lcdc_rgba888_mxt_9x60_wvga/production/_ext/1872342336/legato_imagedecoder_raw_palette_internal.o
 .debug_ranges  0x00002518       0x68 build/lcdc_rgba888_mxt_9x60_wvga/production/_ext/1381099687/legato_image_utils.o
 .debug_ranges  0x00002580       0x68 build/lcdc_rgba888_mxt_9x60_wvga/production/_ext/1381099687/legato_image.o
 .debug_ranges  0x000025e8       0x38 build/lcdc_rgba888_mxt_9x60_wvga/production/_ext/28088523/legato_fixedheap.o
 .debug_ranges  0x00002620       0xa8 build/lcdc_rgba888_mxt_9x60_wvga/production/_ext/28088523/legato_memory.o
 .debug_ranges  0x000026c8      0x138 build/lcdc_rgba888_mxt_9x60_wvga/production/_ext/28088523/legato_variableheap.o
 .debug_ranges  0x00002800       0x28 build/lcdc_rgba888_mxt_9x60_wvga/production/_ext/1081070089/legato_draw_rect.o
 .debug_ranges  0x00002828       0x28 build/lcdc_rgba888_mxt_9x60_wvga/production/_ext/1081070089/legato_draw_line.o
 .debug_ranges  0x00002850      0x158 build/lcdc_rgba888_mxt_9x60_wvga/production/_ext/1081070089/legato_renderer.o
 .debug_ranges  0x000029a8       0x78 build/lcdc_rgba888_mxt_9x60_wvga/production/_ext/1081070089/legato_draw.o
 .debug_ranges  0x00002a20       0xe0 build/lcdc_rgba888_mxt_9x60_wvga/production/_ext/1081070089/legato_draw_arc.o
 .debug_ranges  0x00002b00       0x38 build/lcdc_rgba888_mxt_9x60_wvga/production/_ext/1081070089/legato_gpu.o
 .debug_ranges  0x00002b38       0x58 build/lcdc_rgba888_mxt_9x60_wvga/production/_ext/157682245/legato_string_renderer.o
 .debug_ranges  0x00002b90       0xa0 build/lcdc_rgba888_mxt_9x60_wvga/production/_ext/157682245/legato_stringutils.o
 .debug_ranges  0x00002c30       0xa8 build/lcdc_rgba888_mxt_9x60_wvga/production/_ext/157682245/legato_tablestring.o
 .debug_ranges  0x00002cd8       0x78 build/lcdc_rgba888_mxt_9x60_wvga/production/_ext/157682245/legato_string.o
 .debug_ranges  0x00002d50       0x90 build/lcdc_rgba888_mxt_9x60_wvga/production/_ext/157682245/legato_fixedstring.o
 .debug_ranges  0x00002de0       0x40 build/lcdc_rgba888_mxt_9x60_wvga/production/_ext/157682245/legato_stringtable.o
 .debug_ranges  0x00002e20      0x100 build/lcdc_rgba888_mxt_9x60_wvga/production/_ext/1339002025/legato_widget_button.o
 .debug_ranges  0x00002f20       0x50 build/lcdc_rgba888_mxt_9x60_wvga/production/_ext/1339002025/legato_widget_button_skin_classic.o
 .debug_ranges  0x00002f70       0x38 build/lcdc_rgba888_mxt_9x60_wvga/production/_ext/1197524732/legato_widget_image_skin_classic.o
 .debug_ranges  0x00002fa8       0x40 build/lcdc_rgba888_mxt_9x60_wvga/production/_ext/1197524732/legato_widget_image.o
 .debug_ranges  0x00002fe8       0x50 build/lcdc_rgba888_mxt_9x60_wvga/production/_ext/1195110755/legato_widget_label.o
 .debug_ranges  0x00003038       0x38 build/lcdc_rgba888_mxt_9x60_wvga/production/_ext/1195110755/legato_widget_label_skin_classic.o
 .debug_ranges  0x00003070       0x30 build/lcdc_rgba888_mxt_9x60_wvga/production/_ext/337100648/legato_widget_rectangle.o
 .debug_ranges  0x000030a0       0x38 build/lcdc_rgba888_mxt_9x60_wvga/production/_ext/337100648/legato_widget_rectangle_skin_classic.o
 .debug_ranges  0x000030d8       0x20 build/lcdc_rgba888_mxt_9x60_wvga/production/_ext/261620856/legato_widget_skin_classic.o
 .debug_ranges  0x000030f8      0x290 build/lcdc_rgba888_mxt_9x60_wvga/production/_ext/261620856/legato_widget.o
 .debug_ranges  0x00003388       0x90 build/lcdc_rgba888_mxt_9x60_wvga/production/_ext/261620856/legato_widget_skin_classic_common.o
 .debug_ranges  0x00003418       0x40 build/lcdc_rgba888_mxt_9x60_wvga/production/_ext/4986847/plib_aic.o
 .debug_ranges  0x00003458       0x10 build/lcdc_rgba888_mxt_9x60_wvga/production/_ext/4988870/plib_clk.o
 .debug_ranges  0x00003468       0x68 build/lcdc_rgba888_mxt_9x60_wvga/production/_ext/813772974/plib_flexcom6_twi_master.o
 .debug_ranges  0x000034d0      0x288 build/lcdc_rgba888_mxt_9x60_wvga/production/_ext/154914322/plib_lcdc.o
 .debug_ranges  0x00003758      0x170 build/lcdc_rgba888_mxt_9x60_wvga/production/_ext/4998521/plib_mmu.o
 .debug_ranges  0x000038c8       0x50 build/lcdc_rgba888_mxt_9x60_wvga/production/_ext/5001274/plib_pio.o
 .debug_ranges  0x00003918       0xa8 build/lcdc_rgba888_mxt_9x60_wvga/production/_ext/1247087435/plib_tc0.o
 .debug_ranges  0x000039c0       0x18 build/lcdc_rgba888_mxt_9x60_wvga/production/_ext/286729486/xc32_monitor.o
 .debug_ranges  0x000039d8       0x90 build/lcdc_rgba888_mxt_9x60_wvga/production/_ext/1414187873/sys_input.o
 .debug_ranges  0x00003a68       0x98 build/lcdc_rgba888_mxt_9x60_wvga/production/_ext/1826491803/sys_int.o
 .debug_ranges  0x00003b00      0x158 build/lcdc_rgba888_mxt_9x60_wvga/production/_ext/1812361045/sys_time.o
 .debug_ranges  0x00003c58       0x10 build/lcdc_rgba888_mxt_9x60_wvga/production/_ext/2052985144/initialization.o
 .debug_ranges  0x00003c68       0x28 build/lcdc_rgba888_mxt_9x60_wvga/production/_ext/2052985144/cstartup.o
 .debug_ranges  0x00003c90       0x28 build/lcdc_rgba888_mxt_9x60_wvga/production/_ext/2052985144/fault_handlers.o
 .debug_ranges  0x00003cb8       0x30 build/lcdc_rgba888_mxt_9x60_wvga/production/_ext/2052985144/interrupts.o
 .debug_ranges  0x00003ce8       0x10 build/lcdc_rgba888_mxt_9x60_wvga/production/_ext/2052985144/tasks.o
 .debug_ranges  0x00003cf8       0x18 build/lcdc_rgba888_mxt_9x60_wvga/production/_ext/1360937237/app.o
 .debug_ranges  0x00003d10       0x10 build/lcdc_rgba888_mxt_9x60_wvga/production/_ext/1360937237/main.o
 .debug_ranges  0x00003d20       0x20 build/lcdc_rgba888_mxt_9x60_wvga/production/_ext/1360937237/app_screen0.o
 .debug_ranges  0x00003d40      0x250 build/lcdc_rgba888_mxt_9x60_wvga/production/_ext/5003525/plib_rtc.o
 .debug_ranges  0x00003f90       0x48 build/lcdc_rgba888_mxt_9x60_wvga/production/_ext/1360937237/app_screen1.o
 .debug_ranges  0x00003fd8       0xb8 build/lcdc_rgba888_mxt_9x60_wvga/production/_ext/1121151461/gfx_canvas_api.o
 .debug_ranges  0x00004090      0x140 build/lcdc_rgba888_mxt_9x60_wvga/production/_ext/1121151461/gfx_canvas.o
 .debug_ranges  0x000041d0       0x10 c:/program files/microchip/xc32/v4.20/bin/bin/../../lib/gcc/pic32c/8.3.1/../../../../pic32c/lib/arm/v5te/nofp\libpic32c.a(data_init_wrapper.o)
 .debug_ranges  0x000041e0       0x10 c:/program files/microchip/xc32/v4.20/bin/bin/../../lib/gcc/pic32c/8.3.1/../../../../pic32c/lib/arm/v5te/nofp\libpic32c.a(data_init_0_1.o)
 .debug_ranges  0x000041f0       0x40 c:/program files/microchip/xc32/v4.20/bin/bin/../../lib/gcc/pic32c/8.3.1/../../../../pic32c/lib/arm/v5te/nofp\libc-musl.a(__libc_start_main.o)
 .debug_ranges  0x00004230       0x18 c:/program files/microchip/xc32/v4.20/bin/bin/../../lib/gcc/pic32c/8.3.1/../../../../pic32c/lib/arm/v5te/nofp\libc-musl.a(__sio_sprintf_doux.o)
 .debug_ranges  0x00004248       0x10 c:/program files/microchip/xc32/v4.20/bin/bin/../../lib/gcc/pic32c/8.3.1/../../../../pic32c/lib/arm/v5te/nofp\libc-musl.a(__fmt_d.o)
 .debug_ranges  0x00004258       0x10 c:/program files/microchip/xc32/v4.20/bin/bin/../../lib/gcc/pic32c/8.3.1/../../../../pic32c/lib/arm/v5te/nofp\libc-musl.a(__fmt_o.o)
 .debug_ranges  0x00004268       0x10 c:/program files/microchip/xc32/v4.20/bin/bin/../../lib/gcc/pic32c/8.3.1/../../../../pic32c/lib/arm/v5te/nofp\libc-musl.a(__fmt_s.o)
 .debug_ranges  0x00004278       0x18 c:/program files/microchip/xc32/v4.20/bin/bin/../../lib/gcc/pic32c/8.3.1/../../../../pic32c/lib/arm/v5te/nofp\libc-musl.a(__fmt_u.o)
 .debug_ranges  0x00004290       0x10 c:/program files/microchip/xc32/v4.20/bin/bin/../../lib/gcc/pic32c/8.3.1/../../../../pic32c/lib/arm/v5te/nofp\libc-musl.a(__fmt_x.o)
 .debug_ranges  0x000042a0       0x10 c:/program files/microchip/xc32/v4.20/bin/bin/../../lib/gcc/pic32c/8.3.1/../../../../pic32c/lib/arm/v5te/nofp\libc-musl.a(__pop_int.o)
 .debug_ranges  0x000042b0       0x10 c:/program files/microchip/xc32/v4.20/bin/bin/../../lib/gcc/pic32c/8.3.1/../../../../pic32c/lib/arm/v5te/nofp\libc-musl.a(__pop_ptr.o)
 .debug_ranges  0x000042c0       0x68 c:/program files/microchip/xc32/v4.20/bin/bin/../../lib/gcc/pic32c/8.3.1/../../../../pic32c/lib/arm/v5te/nofp\libc-musl.a(__printf_core.o)
 .debug_ranges  0x00004328       0x20 c:/program files/microchip/xc32/v4.20/bin/bin/../../lib/gcc/pic32c/8.3.1/../../../../pic32c/lib/arm/v5te/nofp\libc-musl.a(stdout.o)
 .debug_ranges  0x00004348       0x10 c:/program files/microchip/xc32/v4.20/bin/bin/../../lib/gcc/pic32c/8.3.1/../../../../pic32c/lib/arm/v5te/nofp\libc-musl.a(atoi.o)
 .debug_ranges  0x00004358       0x10 c:/program files/microchip/xc32/v4.20/bin/bin/../../lib/gcc/pic32c/8.3.1/../../../../pic32c/lib/arm/v5te/nofp\libc-musl.a(memcpy.o)
 .debug_ranges  0x00004368       0x10 c:/program files/microchip/xc32/v4.20/bin/bin/../../lib/gcc/pic32c/8.3.1/../../../../pic32c/lib/arm/v5te/nofp\libc-musl.a(memset.o)
 .debug_ranges  0x00004378       0x10 c:/program files/microchip/xc32/v4.20/bin/bin/../../lib/gcc/pic32c/8.3.1/../../../../pic32c/lib/arm/v5te/nofp\libc-musl.a(strlen.o)
 .debug_ranges  0x00004388       0x18 c:/program files/microchip/xc32/v4.20/bin/bin/../../lib/gcc/pic32c/8.3.1/../../../../pic32c/lib/arm/v5te/nofp\libc-musl.a(tolower.o)
 .debug_ranges  0x000043a0       0x18 c:/program files/microchip/xc32/v4.20/bin/bin/../../lib/gcc/pic32c/8.3.1/../../../../pic32c/lib/arm/v5te/nofp\libc-musl.a(toupper.o)
 .debug_ranges  0x000043b8       0x10 c:/program files/microchip/xc32/v4.20/bin/bin/../../lib/gcc/pic32c/8.3.1/../../../../pic32c/lib/arm/v5te/nofp\libc-musl.a(__int_vfprintf.o)
 .debug_ranges  0x000043c8       0x10 c:/program files/microchip/xc32/v4.20/bin/bin/../../lib/gcc/pic32c/8.3.1/../../../../pic32c/lib/arm/v5te/nofp\libc-musl.a(__int_vsprintf.o)
 .debug_ranges  0x000043d8       0x10 c:/program files/microchip/xc32/v4.20/bin/bin/../../lib/gcc/pic32c/8.3.1/../../../../pic32c/lib/arm/v5te/nofp\libc-musl.a(__pop_float.o)
 .debug_ranges  0x000043e8       0x10 c:/program files/microchip/xc32/v4.20/bin/bin/../../lib/gcc/pic32c/8.3.1/../../../../pic32c/lib/arm/v5te/nofp\libc-musl.a(__int_vsnprintf.o)
 .debug_ranges  0x000043f8       0x18 c:/program files/microchip/xc32/v4.20/bin/bin/../../lib/gcc/pic32c/8.3.1/../../../../pic32c/lib/arm/v5te/nofp\libc-musl.a(__init_stdio.o)
 .debug_ranges  0x00004410       0x30 c:/program files/microchip/xc32/v4.20/bin/bin/../../lib/gcc/pic32c/8.3.1/../../../../pic32c/lib/arm/v5te/nofp\libc-musl.a(__out.o)
 .debug_ranges  0x00004440       0x18 c:/program files/microchip/xc32/v4.20/bin/bin/../../lib/gcc/pic32c/8.3.1/../../../../pic32c/lib/arm/v5te/nofp\libc-musl.a(__stdio_close.o)
 .debug_ranges  0x00004458       0x20 c:/program files/microchip/xc32/v4.20/bin/bin/../../lib/gcc/pic32c/8.3.1/../../../../pic32c/lib/arm/v5te/nofp\libc-musl.a(__stdio_seek.o)
 .debug_ranges  0x00004478       0x20 c:/program files/microchip/xc32/v4.20/bin/bin/../../lib/gcc/pic32c/8.3.1/../../../../pic32c/lib/arm/v5te/nofp\libc-musl.a(__stdout.o)
 .debug_ranges  0x00004498       0x18 c:/program files/microchip/xc32/v4.20/bin/bin/../../lib/gcc/pic32c/8.3.1/../../../../pic32c/lib/arm/v5te/nofp\libc-musl.a(__fwrite.o)
 .debug_ranges  0x000044b0       0x10 c:/program files/microchip/xc32/v4.20/bin/bin/../../lib/gcc/pic32c/8.3.1/../../../../pic32c/lib/arm/v5te/nofp\libpic32c.a(close.o)
 .debug_ranges  0x000044c0       0x10 c:/program files/microchip/xc32/v4.20/bin/bin/../../lib/gcc/pic32c/8.3.1/../../../../pic32c/lib/arm/v5te/nofp\libpic32c.a(lseek.o)

.debug_line     0x00000000    0x337d1
 .debug_line    0x00000000       0xea build/lcdc_rgba888_mxt_9x60_wvga/production/_ext/236556520/bsp.o
 .debug_line    0x000000ea      0xfb6 build/lcdc_rgba888_mxt_9x60_wvga/production/_ext/103208383/drv_i2c.o
 .debug_line    0x000010a0     0x1afc build/lcdc_rgba888_mxt_9x60_wvga/production/_ext/1959449242/drv_maxtouch.o
 .debug_line    0x00002b9c      0xe0f build/lcdc_rgba888_mxt_9x60_wvga/production/_ext/1165331637/gfx_driver.o
 .debug_line    0x000039ab      0x95f build/lcdc_rgba888_mxt_9x60_wvga/production/_ext/129784465/drv_gfx_lcdc.o
 .debug_line    0x0000430a      0xcd0 build/lcdc_rgba888_mxt_9x60_wvga/production/_ext/305146849/legato_math.o
 .debug_line    0x00004fda      0x3b6 build/lcdc_rgba888_mxt_9x60_wvga/production/_ext/305146849/legato_color_blend.o
 .debug_line    0x00005390      0x86d build/lcdc_rgba888_mxt_9x60_wvga/production/_ext/305146849/legato_color_convert.o
 .debug_line    0x00005bfd      0x697 build/lcdc_rgba888_mxt_9x60_wvga/production/_ext/305146849/legato_rect.o
 .debug_line    0x00006294      0x92d build/lcdc_rgba888_mxt_9x60_wvga/production/_ext/305146849/legato_utils.o
 .debug_line    0x00006bc1      0x7c5 build/lcdc_rgba888_mxt_9x60_wvga/production/_ext/305146849/legato_pixelbuffer.o
 .debug_line    0x00007386      0x3ea build/lcdc_rgba888_mxt_9x60_wvga/production/_ext/305146849/legato_color_lerp.o
 .debug_line    0x00007770      0x260 build/lcdc_rgba888_mxt_9x60_wvga/production/_ext/305146849/legato_color.o
 .debug_line    0x000079d0      0xe74 build/lcdc_rgba888_mxt_9x60_wvga/production/_ext/1618192685/legato_state.o
 .debug_line    0x00008844      0x266 build/lcdc_rgba888_mxt_9x60_wvga/production/_ext/1618192685/legato_scheme.o
 .debug_line    0x00008aaa      0x3f4 build/lcdc_rgba888_mxt_9x60_wvga/production/_ext/1618192685/legato_event.o
 .debug_line    0x00008e9e      0x920 build/lcdc_rgba888_mxt_9x60_wvga/production/_ext/1618192685/legato_input.o
 .debug_line    0x000097be      0xc38 build/lcdc_rgba888_mxt_9x60_wvga/production/_ext/109670485/legato_rectarray.o
 .debug_line    0x0000a3f6      0x638 build/lcdc_rgba888_mxt_9x60_wvga/production/_ext/109670485/legato_array.o
 .debug_line    0x0000aa2e      0x81e build/lcdc_rgba888_mxt_9x60_wvga/production/_ext/109670485/legato_list.o
 .debug_line    0x0000b24c      0x8d9 build/lcdc_rgba888_mxt_9x60_wvga/production/_ext/1618103421/legato_font.o
 .debug_line    0x0000bb25      0x249 build/lcdc_rgba888_mxt_9x60_wvga/production/_ext/644506877/le_gen_fonts.o
 .debug_line    0x0000bd6e      0x277 build/lcdc_rgba888_mxt_9x60_wvga/production/_ext/1497821479/le_gen_images.o
 .debug_line    0x0000bfe5      0x9bd build/lcdc_rgba888_mxt_9x60_wvga/production/_ext/534613472/le_gen_screen_Screen0.o
 .debug_line    0x0000c9a2      0xfed build/lcdc_rgba888_mxt_9x60_wvga/production/_ext/534613472/le_gen_screen_Screen1.o
 .debug_line    0x0000d98f      0x3dd build/lcdc_rgba888_mxt_9x60_wvga/production/_ext/706129189/le_gen_init.o
 .debug_line    0x0000dd6c      0x236 build/lcdc_rgba888_mxt_9x60_wvga/production/_ext/706129189/le_gen_globalpalette.o
 .debug_line    0x0000dfa2      0x1cf build/lcdc_rgba888_mxt_9x60_wvga/production/_ext/706129189/le_gen_scheme.o
 .debug_line    0x0000e171      0x2c7 build/lcdc_rgba888_mxt_9x60_wvga/production/_ext/706129189/le_gen_stringtable.o
 .debug_line    0x0000e438      0x4a5 build/lcdc_rgba888_mxt_9x60_wvga/production/_ext/706129189/le_gen_harmony.o
 .debug_line    0x0000e8dd      0x749 build/lcdc_rgba888_mxt_9x60_wvga/production/_ext/2086705360/legato_imagedecoder_jpeg.o
 .debug_line    0x0000f026     0x11b0 build/lcdc_rgba888_mxt_9x60_wvga/production/_ext/2086705360/legato_imagedecoder_jpeg_common.o
 .debug_line    0x000101d6      0x555 build/lcdc_rgba888_mxt_9x60_wvga/production/_ext/2086705360/jidctint.o
 .debug_line    0x0001072b      0x264 build/lcdc_rgba888_mxt_9x60_wvga/production/_ext/2086794059/legato_imagedecoder_mono_read_internal.o
 .debug_line    0x0001098f      0x806 build/lcdc_rgba888_mxt_9x60_wvga/production/_ext/2086794059/legato_imagedecoder_mono.o
 .debug_line    0x00011195     0x46b8 build/lcdc_rgba888_mxt_9x60_wvga/production/_ext/1872343871/lodepng.o
 .debug_line    0x0001584d      0x4f7 build/lcdc_rgba888_mxt_9x60_wvga/production/_ext/1872343871/legato_imagedecoder_png.o
 .debug_line    0x00015d44      0x3f7 build/lcdc_rgba888_mxt_9x60_wvga/production/_ext/1872342336/legato_imagedecoder_raw_setup.o
 .debug_line    0x0001613b      0x551 build/lcdc_rgba888_mxt_9x60_wvga/production/_ext/1872342336/legato_imagedecoder_raw_scale.o
 .debug_line    0x0001668c     0x10c6 build/lcdc_rgba888_mxt_9x60_wvga/production/_ext/1872342336/legato_imagedecoder_raw.o
 .debug_line    0x00017752      0x4dc build/lcdc_rgba888_mxt_9x60_wvga/production/_ext/1872342336/legato_imagedecoder_raw_read_internal.o
 .debug_line    0x00017c2e      0x349 build/lcdc_rgba888_mxt_9x60_wvga/production/_ext/1872342336/legato_imagedecoder_raw_write.o
 .debug_line    0x00017f77      0x404 build/lcdc_rgba888_mxt_9x60_wvga/production/_ext/1872342336/legato_imagedecoder_raw_blend.o
 .debug_line    0x0001837b      0x252 build/lcdc_rgba888_mxt_9x60_wvga/production/_ext/1872342336/legato_imagedecoder_raw_mask.o
 .debug_line    0x000185cd      0x2e7 build/lcdc_rgba888_mxt_9x60_wvga/production/_ext/1872342336/legato_imagedecoder_raw_convert.o
 .debug_line    0x000188b4      0x585 build/lcdc_rgba888_mxt_9x60_wvga/production/_ext/1872342336/legato_imagedecoder_raw_rotate.o
 .debug_line    0x00018e39      0x357 build/lcdc_rgba888_mxt_9x60_wvga/production/_ext/1872342336/legato_imagedecoder_raw_palette_internal.o
 .debug_line    0x00019190      0x325 build/lcdc_rgba888_mxt_9x60_wvga/production/_ext/1381099687/legato_image_utils.o
 .debug_line    0x000194b5      0x756 build/lcdc_rgba888_mxt_9x60_wvga/production/_ext/1381099687/legato_image.o
 .debug_line    0x00019c0b      0x346 build/lcdc_rgba888_mxt_9x60_wvga/production/_ext/28088523/legato_fixedheap.o
 .debug_line    0x00019f51      0x597 build/lcdc_rgba888_mxt_9x60_wvga/production/_ext/28088523/legato_memory.o
 .debug_line    0x0001a4e8      0xbe3 build/lcdc_rgba888_mxt_9x60_wvga/production/_ext/28088523/legato_variableheap.o
 .debug_line    0x0001b0cb      0x2d4 build/lcdc_rgba888_mxt_9x60_wvga/production/_ext/1081070089/legato_draw_rect.o
 .debug_line    0x0001b39f      0x451 build/lcdc_rgba888_mxt_9x60_wvga/production/_ext/1081070089/legato_draw_line.o
 .debug_line    0x0001b7f0      0xf01 build/lcdc_rgba888_mxt_9x60_wvga/production/_ext/1081070089/legato_renderer.o
 .debug_line    0x0001c6f1      0x689 build/lcdc_rgba888_mxt_9x60_wvga/production/_ext/1081070089/legato_draw.o
 .debug_line    0x0001cd7a      0x9d3 build/lcdc_rgba888_mxt_9x60_wvga/production/_ext/1081070089/legato_draw_arc.o
 .debug_line    0x0001d74d      0x7b5 build/lcdc_rgba888_mxt_9x60_wvga/production/_ext/1081070089/legato_gpu.o
 .debug_line    0x0001df02      0x699 build/lcdc_rgba888_mxt_9x60_wvga/production/_ext/157682245/legato_string_renderer.o
 .debug_line    0x0001e59b      0xbf2 build/lcdc_rgba888_mxt_9x60_wvga/production/_ext/157682245/legato_stringutils.o
 .debug_line    0x0001f18d      0x74f build/lcdc_rgba888_mxt_9x60_wvga/production/_ext/157682245/legato_tablestring.o
 .debug_line    0x0001f8dc      0x7f2 build/lcdc_rgba888_mxt_9x60_wvga/production/_ext/157682245/legato_string.o
 .debug_line    0x000200ce      0x917 build/lcdc_rgba888_mxt_9x60_wvga/production/_ext/157682245/legato_fixedstring.o
 .debug_line    0x000209e5      0x464 build/lcdc_rgba888_mxt_9x60_wvga/production/_ext/157682245/legato_stringtable.o
 .debug_line    0x00020e49      0xc34 build/lcdc_rgba888_mxt_9x60_wvga/production/_ext/1339002025/legato_widget_button.o
 .debug_line    0x00021a7d      0x953 build/lcdc_rgba888_mxt_9x60_wvga/production/_ext/1339002025/legato_widget_button_skin_classic.o
 .debug_line    0x000223d0      0x530 build/lcdc_rgba888_mxt_9x60_wvga/production/_ext/1197524732/legato_widget_image_skin_classic.o
 .debug_line    0x00022900      0x4bc build/lcdc_rgba888_mxt_9x60_wvga/production/_ext/1197524732/legato_widget_image.o
 .debug_line    0x00022dbc      0x561 build/lcdc_rgba888_mxt_9x60_wvga/production/_ext/1195110755/legato_widget_label.o
 .debug_line    0x0002331d      0x5d7 build/lcdc_rgba888_mxt_9x60_wvga/production/_ext/1195110755/legato_widget_label_skin_classic.o
 .debug_line    0x000238f4      0x3b1 build/lcdc_rgba888_mxt_9x60_wvga/production/_ext/337100648/legato_widget_rectangle.o
 .debug_line    0x00023ca5      0x605 build/lcdc_rgba888_mxt_9x60_wvga/production/_ext/337100648/legato_widget_rectangle_skin_classic.o
 .debug_line    0x000242aa      0x37b build/lcdc_rgba888_mxt_9x60_wvga/production/_ext/261620856/legato_widget_skin_classic.o
 .debug_line    0x00024625     0x18f1 build/lcdc_rgba888_mxt_9x60_wvga/production/_ext/261620856/legato_widget.o
 .debug_line    0x00025f16      0xabd build/lcdc_rgba888_mxt_9x60_wvga/production/_ext/261620856/legato_widget_skin_classic_common.o
 .debug_line    0x000269d3      0x4c4 build/lcdc_rgba888_mxt_9x60_wvga/production/_ext/4986847/plib_aic.o
 .debug_line    0x00026e97      0x160 build/lcdc_rgba888_mxt_9x60_wvga/production/_ext/4988870/plib_clk.o
 .debug_line    0x00026ff7      0x893 build/lcdc_rgba888_mxt_9x60_wvga/production/_ext/813772974/plib_flexcom6_twi_master.o
 .debug_line    0x0002788a     0x1539 build/lcdc_rgba888_mxt_9x60_wvga/production/_ext/154914322/plib_lcdc.o
 .debug_line    0x00028dc3      0x6fe build/lcdc_rgba888_mxt_9x60_wvga/production/_ext/4998521/plib_mmu.o
 .debug_line    0x000294c1      0x340 build/lcdc_rgba888_mxt_9x60_wvga/production/_ext/5001274/plib_pio.o
 .debug_line    0x00029801      0x397 build/lcdc_rgba888_mxt_9x60_wvga/production/_ext/1247087435/plib_tc0.o
 .debug_line    0x00029b98       0xdd build/lcdc_rgba888_mxt_9x60_wvga/production/_ext/286729486/xc32_monitor.o
 .debug_line    0x00029c75      0x772 build/lcdc_rgba888_mxt_9x60_wvga/production/_ext/1414187873/sys_input.o
 .debug_line    0x0002a3e7      0x564 build/lcdc_rgba888_mxt_9x60_wvga/production/_ext/1826491803/sys_int.o
 .debug_line    0x0002a94b     0x11c3 build/lcdc_rgba888_mxt_9x60_wvga/production/_ext/1812361045/sys_time.o
 .debug_line    0x0002bb0e      0x847 build/lcdc_rgba888_mxt_9x60_wvga/production/_ext/2052985144/initialization.o
 .debug_line    0x0002c355      0x106 build/lcdc_rgba888_mxt_9x60_wvga/production/_ext/2052985144/cstartup.o
 .debug_line    0x0002c45b       0xae build/lcdc_rgba888_mxt_9x60_wvga/production/_ext/2052985144/fault_handlers.o
 .debug_line    0x0002c509      0x27f build/lcdc_rgba888_mxt_9x60_wvga/production/_ext/2052985144/interrupts.o
 .debug_line    0x0002c788      0x340 build/lcdc_rgba888_mxt_9x60_wvga/production/_ext/2052985144/tasks.o
 .debug_line    0x0002cac8      0x281 build/lcdc_rgba888_mxt_9x60_wvga/production/_ext/1360937237/app.o
 .debug_line    0x0002cd49      0x1c6 build/lcdc_rgba888_mxt_9x60_wvga/production/_ext/1360937237/main.o
 .debug_line    0x0002cf0f      0x4d8 build/lcdc_rgba888_mxt_9x60_wvga/production/_ext/1360937237/app_screen0.o
 .debug_line    0x0002d3e7      0x676 build/lcdc_rgba888_mxt_9x60_wvga/production/_ext/5003525/plib_rtc.o
 .debug_line    0x0002da5d      0x793 build/lcdc_rgba888_mxt_9x60_wvga/production/_ext/1360937237/app_screen1.o
 .debug_line    0x0002e1f0      0x6c4 build/lcdc_rgba888_mxt_9x60_wvga/production/_ext/1121151461/gfx_canvas_api.o
 .debug_line    0x0002e8b4      0xc39 build/lcdc_rgba888_mxt_9x60_wvga/production/_ext/1121151461/gfx_canvas.o
 .debug_line    0x0002f4ed       0xa8 c:/program files/microchip/xc32/v4.20/bin/bin/../../lib/gcc/pic32c/8.3.1/../../../../pic32c/lib/arm/v5te/nofp\libpic32c.a(data_init_wrapper.o)
 .debug_line    0x0002f595       0xfb c:/program files/microchip/xc32/v4.20/bin/bin/../../lib/gcc/pic32c/8.3.1/../../../../pic32c/lib/arm/v5te/nofp\libpic32c.a(data_init_0_1.o)
 .debug_line    0x0002f690       0xb3 c:/program files/microchip/xc32/v4.20/bin/bin/../../lib/gcc/pic32c/8.3.1/arm/v5te/nofp\libgcc.a(_udivsi3.o)
 .debug_line    0x0002f743       0xbf c:/program files/microchip/xc32/v4.20/bin/bin/../../lib/gcc/pic32c/8.3.1/arm/v5te/nofp\libgcc.a(_divsi3.o)
 .debug_line    0x0002f802       0x97 c:/program files/microchip/xc32/v4.20/bin/bin/../../lib/gcc/pic32c/8.3.1/arm/v5te/nofp\libgcc.a(_dvmd_tls.o)
 .debug_line    0x0002f899      0x136 c:/program files/microchip/xc32/v4.20/bin/bin/../../lib/gcc/pic32c/8.3.1/arm/v5te/nofp\libgcc.a(_arm_addsubsf3.o)
 .debug_line    0x0002f9cf      0x159 c:/program files/microchip/xc32/v4.20/bin/bin/../../lib/gcc/pic32c/8.3.1/arm/v5te/nofp\libgcc.a(_arm_muldivsf3.o)
 .debug_line    0x0002fb28       0xdc c:/program files/microchip/xc32/v4.20/bin/bin/../../lib/gcc/pic32c/8.3.1/arm/v5te/nofp\libgcc.a(_arm_cmpsf2.o)
 .debug_line    0x0002fc04       0xae c:/program files/microchip/xc32/v4.20/bin/bin/../../lib/gcc/pic32c/8.3.1/arm/v5te/nofp\libgcc.a(_arm_fixsfsi.o)
 .debug_line    0x0002fcb2       0xac c:/program files/microchip/xc32/v4.20/bin/bin/../../lib/gcc/pic32c/8.3.1/arm/v5te/nofp\libgcc.a(_arm_fixunssfsi.o)
 .debug_line    0x0002fd5e       0x97 c:/program files/microchip/xc32/v4.20/bin/bin/../../lib/gcc/pic32c/8.3.1/arm/v5te/nofp\libgcc.a(_aeabi_uldivmod.o)
 .debug_line    0x0002fdf5      0x185 c:/program files/microchip/xc32/v4.20/bin/bin/../../lib/gcc/pic32c/8.3.1/arm/v5te/nofp\libgcc.a(_udivmoddi4.o)
 .debug_line    0x0002ff7a      0x1d1 c:/program files/microchip/xc32/v4.20/bin/bin/../../lib/gcc/pic32c/8.3.1/../../../../pic32c/lib/arm/v5te/nofp\libc-musl.a(__libc_start_main.o)
 .debug_line    0x0003014b       0xbb c:/program files/microchip/xc32/v4.20/bin/bin/../../lib/gcc/pic32c/8.3.1/../../../../pic32c/lib/arm/v5te/nofp\libc-musl.a(libc.o)
 .debug_line    0x00030206      0x1b1 c:/program files/microchip/xc32/v4.20/bin/bin/../../lib/gcc/pic32c/8.3.1/../../../../pic32c/lib/arm/v5te/nofp\libc-musl.a(__sio_sprintf_doux.o)
 .debug_line    0x000303b7      0x212 c:/program files/microchip/xc32/v4.20/bin/bin/../../lib/gcc/pic32c/8.3.1/../../../../pic32c/lib/arm/v5te/nofp\libc-musl.a(__fmt_d.o)
 .debug_line    0x000305c9      0x1c8 c:/program files/microchip/xc32/v4.20/bin/bin/../../lib/gcc/pic32c/8.3.1/../../../../pic32c/lib/arm/v5te/nofp\libc-musl.a(__fmt_o.o)
 .debug_line    0x00030791      0x212 c:/program files/microchip/xc32/v4.20/bin/bin/../../lib/gcc/pic32c/8.3.1/../../../../pic32c/lib/arm/v5te/nofp\libc-musl.a(__fmt_s.o)
 .debug_line    0x000309a3      0x246 c:/program files/microchip/xc32/v4.20/bin/bin/../../lib/gcc/pic32c/8.3.1/../../../../pic32c/lib/arm/v5te/nofp\libc-musl.a(__fmt_u.o)
 .debug_line    0x00030be9      0x2e2 c:/program files/microchip/xc32/v4.20/bin/bin/../../lib/gcc/pic32c/8.3.1/../../../../pic32c/lib/arm/v5te/nofp\libc-musl.a(__fmt_x.o)
 .debug_line    0x00030ecb      0x214 c:/program files/microchip/xc32/v4.20/bin/bin/../../lib/gcc/pic32c/8.3.1/../../../../pic32c/lib/arm/v5te/nofp\libc-musl.a(__pop_int.o)
 .debug_line    0x000310df      0x1e7 c:/program files/microchip/xc32/v4.20/bin/bin/../../lib/gcc/pic32c/8.3.1/../../../../pic32c/lib/arm/v5te/nofp\libc-musl.a(__pop_ptr.o)
 .debug_line    0x000312c6      0x6c8 c:/program files/microchip/xc32/v4.20/bin/bin/../../lib/gcc/pic32c/8.3.1/../../../../pic32c/lib/arm/v5te/nofp\libc-musl.a(__printf_core.o)
 .debug_line    0x0003198e      0x18d c:/program files/microchip/xc32/v4.20/bin/bin/../../lib/gcc/pic32c/8.3.1/../../../../pic32c/lib/arm/v5te/nofp\libc-musl.a(stdout.o)
 .debug_line    0x00031b1b      0x162 c:/program files/microchip/xc32/v4.20/bin/bin/../../lib/gcc/pic32c/8.3.1/../../../../pic32c/lib/arm/v5te/nofp\libc-musl.a(atoi.o)
 .debug_line    0x00031c7d       0xe5 c:/program files/microchip/xc32/v4.20/bin/bin/../../lib/gcc/pic32c/8.3.1/../../../../pic32c/lib/arm/v5te/nofp\libc-musl.a(memcpy.o)
 .debug_line    0x00031d62       0xe3 c:/program files/microchip/xc32/v4.20/bin/bin/../../lib/gcc/pic32c/8.3.1/../../../../pic32c/lib/arm/v5te/nofp\libc-musl.a(memset.o)
 .debug_line    0x00031e45       0xe3 c:/program files/microchip/xc32/v4.20/bin/bin/../../lib/gcc/pic32c/8.3.1/../../../../pic32c/lib/arm/v5te/nofp\libc-musl.a(strlen.o)
 .debug_line    0x00031f28      0x163 c:/program files/microchip/xc32/v4.20/bin/bin/../../lib/gcc/pic32c/8.3.1/../../../../pic32c/lib/arm/v5te/nofp\libc-musl.a(tolower.o)
 .debug_line    0x0003208b      0x163 c:/program files/microchip/xc32/v4.20/bin/bin/../../lib/gcc/pic32c/8.3.1/../../../../pic32c/lib/arm/v5te/nofp\libc-musl.a(toupper.o)
 .debug_line    0x000321ee      0x107 c:/program files/microchip/xc32/v4.20/bin/bin/../../lib/gcc/pic32c/8.3.1/../../../../pic32c/lib/arm/v5te/nofp\libc-musl.a(__environ.o)
 .debug_line    0x000322f5       0xa0 c:/program files/microchip/xc32/v4.20/bin/bin/../../lib/gcc/pic32c/8.3.1/../../../../pic32c/lib/arm/v5te/nofp\libc-musl.a(__errno_location.o)
 .debug_line    0x00032395      0x17a c:/program files/microchip/xc32/v4.20/bin/bin/../../lib/gcc/pic32c/8.3.1/../../../../pic32c/lib/arm/v5te/nofp\libc-musl.a(__int_vfprintf.o)
 .debug_line    0x0003250f      0x159 c:/program files/microchip/xc32/v4.20/bin/bin/../../lib/gcc/pic32c/8.3.1/../../../../pic32c/lib/arm/v5te/nofp\libc-musl.a(__int_vsprintf.o)
 .debug_line    0x00032668      0x171 c:/program files/microchip/xc32/v4.20/bin/bin/../../lib/gcc/pic32c/8.3.1/../../../../pic32c/lib/arm/v5te/nofp\libc-musl.a(__pop_float.o)
 .debug_line    0x000327d9      0x1d0 c:/program files/microchip/xc32/v4.20/bin/bin/../../lib/gcc/pic32c/8.3.1/../../../../pic32c/lib/arm/v5te/nofp\libc-musl.a(__int_vsnprintf.o)
 .debug_line    0x000329a9       0xce c:/program files/microchip/xc32/v4.20/bin/bin/../../lib/gcc/pic32c/8.3.1/../../../../pic32c/lib/arm/v5te/nofp\libc-musl.a(__init_stdio.o)
 .debug_line    0x00032a77      0x22a c:/program files/microchip/xc32/v4.20/bin/bin/../../lib/gcc/pic32c/8.3.1/../../../../pic32c/lib/arm/v5te/nofp\libc-musl.a(__out.o)
 .debug_line    0x00032ca1      0x2fa c:/program files/microchip/xc32/v4.20/bin/bin/../../lib/gcc/pic32c/8.3.1/../../../../pic32c/lib/arm/v5te/nofp\libc-musl.a(__stdio_close.o)
 .debug_line    0x00032f9b      0x32c c:/program files/microchip/xc32/v4.20/bin/bin/../../lib/gcc/pic32c/8.3.1/../../../../pic32c/lib/arm/v5te/nofp\libc-musl.a(__stdio_seek.o)
 .debug_line    0x000332c7      0x1e2 c:/program files/microchip/xc32/v4.20/bin/bin/../../lib/gcc/pic32c/8.3.1/../../../../pic32c/lib/arm/v5te/nofp\libc-musl.a(__stdout.o)
 .debug_line    0x000334a9      0x1f0 c:/program files/microchip/xc32/v4.20/bin/bin/../../lib/gcc/pic32c/8.3.1/../../../../pic32c/lib/arm/v5te/nofp\libc-musl.a(__fwrite.o)
 .debug_line    0x00033699       0x9c c:/program files/microchip/xc32/v4.20/bin/bin/../../lib/gcc/pic32c/8.3.1/../../../../pic32c/lib/arm/v5te/nofp\libpic32c.a(close.o)
 .debug_line    0x00033735       0x9c c:/program files/microchip/xc32/v4.20/bin/bin/../../lib/gcc/pic32c/8.3.1/../../../../pic32c/lib/arm/v5te/nofp\libpic32c.a(lseek.o)

.debug_str      0x00000000     0xe272
 .debug_str     0x00000000        0x0 build/lcdc_rgba888_mxt_9x60_wvga/production/_ext/236556520/bsp.o
 .debug_str     0x00000000      0x19f build/lcdc_rgba888_mxt_9x60_wvga/production/_ext/103208383/drv_i2c.o
 .debug_str     0x0000019f      0x361 build/lcdc_rgba888_mxt_9x60_wvga/production/_ext/1959449242/drv_maxtouch.o
 .debug_str     0x00000500       0xc2 build/lcdc_rgba888_mxt_9x60_wvga/production/_ext/1165331637/gfx_driver.o
 .debug_str     0x000005c2      0x6bc build/lcdc_rgba888_mxt_9x60_wvga/production/_ext/129784465/drv_gfx_lcdc.o
 .debug_str     0x00000c7e       0x64 build/lcdc_rgba888_mxt_9x60_wvga/production/_ext/305146849/legato_math.o
 .debug_str     0x00000ce2        0x9 build/lcdc_rgba888_mxt_9x60_wvga/production/_ext/305146849/legato_color_blend.o
 .debug_str     0x00000ceb       0xb7 build/lcdc_rgba888_mxt_9x60_wvga/production/_ext/305146849/legato_color_convert.o
 .debug_str     0x00000da2       0x17 build/lcdc_rgba888_mxt_9x60_wvga/production/_ext/305146849/legato_rect.o
 .debug_str     0x00000db9      0x28d build/lcdc_rgba888_mxt_9x60_wvga/production/_ext/305146849/legato_utils.o
 .debug_str     0x00001046       0x92 build/lcdc_rgba888_mxt_9x60_wvga/production/_ext/305146849/legato_pixelbuffer.o
 .debug_str     0x000010d8       0x2e build/lcdc_rgba888_mxt_9x60_wvga/production/_ext/305146849/legato_color_lerp.o
 .debug_str     0x00001106       0x34 build/lcdc_rgba888_mxt_9x60_wvga/production/_ext/305146849/legato_color.o
 .debug_str     0x0000113a      0x847 build/lcdc_rgba888_mxt_9x60_wvga/production/_ext/1618192685/legato_state.o
 .debug_str     0x00001981       0xf8 build/lcdc_rgba888_mxt_9x60_wvga/production/_ext/1618192685/legato_scheme.o
 .debug_str     0x00001a79      0x1cc build/lcdc_rgba888_mxt_9x60_wvga/production/_ext/1618192685/legato_event.o
 .debug_str     0x00001c45      0x6fb build/lcdc_rgba888_mxt_9x60_wvga/production/_ext/1618192685/legato_input.o
 .debug_str     0x00002340       0x8e build/lcdc_rgba888_mxt_9x60_wvga/production/_ext/109670485/legato_rectarray.o
 .debug_str     0x000023ce       0x1c build/lcdc_rgba888_mxt_9x60_wvga/production/_ext/109670485/legato_array.o
 .debug_str     0x000023ea       0x22 build/lcdc_rgba888_mxt_9x60_wvga/production/_ext/109670485/legato_list.o
 .debug_str     0x0000240c      0x219 build/lcdc_rgba888_mxt_9x60_wvga/production/_ext/1618103421/legato_font.o
 .debug_str     0x00002625       0xc0 build/lcdc_rgba888_mxt_9x60_wvga/production/_ext/644506877/le_gen_fonts.o
 .debug_str     0x000026e5       0xeb build/lcdc_rgba888_mxt_9x60_wvga/production/_ext/1497821479/le_gen_images.o
 .debug_str     0x000027d0      0x89d build/lcdc_rgba888_mxt_9x60_wvga/production/_ext/534613472/le_gen_screen_Screen0.o
 .debug_str     0x0000306d      0x89d build/lcdc_rgba888_mxt_9x60_wvga/production/_ext/534613472/le_gen_screen_Screen1.o
 .debug_str     0x0000390a      0x18b build/lcdc_rgba888_mxt_9x60_wvga/production/_ext/706129189/le_gen_init.o
 .debug_str     0x00003a95       0xb4 build/lcdc_rgba888_mxt_9x60_wvga/production/_ext/706129189/le_gen_globalpalette.o
 .debug_str     0x00003b49       0xdc build/lcdc_rgba888_mxt_9x60_wvga/production/_ext/706129189/le_gen_scheme.o
 .debug_str     0x00003c25      0x201 build/lcdc_rgba888_mxt_9x60_wvga/production/_ext/706129189/le_gen_stringtable.o
 .debug_str     0x00003e26      0x1c3 build/lcdc_rgba888_mxt_9x60_wvga/production/_ext/706129189/le_gen_harmony.o
 .debug_str     0x00003fe9      0x251 build/lcdc_rgba888_mxt_9x60_wvga/production/_ext/2086705360/legato_imagedecoder_jpeg.o
 .debug_str     0x0000423a       0xd4 build/lcdc_rgba888_mxt_9x60_wvga/production/_ext/2086705360/legato_imagedecoder_jpeg_common.o
 .debug_str     0x0000430e        0x9 build/lcdc_rgba888_mxt_9x60_wvga/production/_ext/2086705360/jidctint.o
 .debug_str     0x00004317       0xce build/lcdc_rgba888_mxt_9x60_wvga/production/_ext/2086794059/legato_imagedecoder_mono_read_internal.o
 .debug_str     0x000043e5      0x214 build/lcdc_rgba888_mxt_9x60_wvga/production/_ext/2086794059/legato_imagedecoder_mono.o
 .debug_str     0x000045f9      0x29c build/lcdc_rgba888_mxt_9x60_wvga/production/_ext/1872343871/lodepng.o
 .debug_str     0x00004895      0x1a8 build/lcdc_rgba888_mxt_9x60_wvga/production/_ext/1872343871/legato_imagedecoder_png.o
 .debug_str     0x00004a3d       0xca build/lcdc_rgba888_mxt_9x60_wvga/production/_ext/1872342336/legato_imagedecoder_raw_setup.o
 .debug_str     0x00004b07      0x110 build/lcdc_rgba888_mxt_9x60_wvga/production/_ext/1872342336/legato_imagedecoder_raw_scale.o
 .debug_str     0x00004c17      0x5a6 build/lcdc_rgba888_mxt_9x60_wvga/production/_ext/1872342336/legato_imagedecoder_raw.o
 .debug_str     0x000051bd      0x1fd build/lcdc_rgba888_mxt_9x60_wvga/production/_ext/1872342336/legato_imagedecoder_raw_read_internal.o
 .debug_str     0x000053ba      0x18e build/lcdc_rgba888_mxt_9x60_wvga/production/_ext/1872342336/legato_imagedecoder_raw_write.o
 .debug_str     0x00005548      0x1bb build/lcdc_rgba888_mxt_9x60_wvga/production/_ext/1872342336/legato_imagedecoder_raw_blend.o
 .debug_str     0x00005703       0xc4 build/lcdc_rgba888_mxt_9x60_wvga/production/_ext/1872342336/legato_imagedecoder_raw_mask.o
 .debug_str     0x000057c7      0x16f build/lcdc_rgba888_mxt_9x60_wvga/production/_ext/1872342336/legato_imagedecoder_raw_convert.o
 .debug_str     0x00005936       0xe6 build/lcdc_rgba888_mxt_9x60_wvga/production/_ext/1872342336/legato_imagedecoder_raw_rotate.o
 .debug_str     0x00005a1c      0x17f build/lcdc_rgba888_mxt_9x60_wvga/production/_ext/1872342336/legato_imagedecoder_raw_palette_internal.o
 .debug_str     0x00005b9b       0x2a build/lcdc_rgba888_mxt_9x60_wvga/production/_ext/1381099687/legato_image_utils.o
 .debug_str     0x00005bc5      0x1b6 build/lcdc_rgba888_mxt_9x60_wvga/production/_ext/1381099687/legato_image.o
 .debug_str     0x00005d7b       0x34 build/lcdc_rgba888_mxt_9x60_wvga/production/_ext/28088523/legato_fixedheap.o
 .debug_str     0x00005daf      0x1c3 build/lcdc_rgba888_mxt_9x60_wvga/production/_ext/28088523/legato_memory.o
 .debug_str     0x00005f72       0x4c build/lcdc_rgba888_mxt_9x60_wvga/production/_ext/28088523/legato_variableheap.o
 .debug_str     0x00005fbe      0x151 build/lcdc_rgba888_mxt_9x60_wvga/production/_ext/1081070089/legato_draw_rect.o
 .debug_str     0x0000610f      0x15e build/lcdc_rgba888_mxt_9x60_wvga/production/_ext/1081070089/legato_draw_line.o
 .debug_str     0x0000626d      0xa2b build/lcdc_rgba888_mxt_9x60_wvga/production/_ext/1081070089/legato_renderer.o
 .debug_str     0x00006c98      0x1dd build/lcdc_rgba888_mxt_9x60_wvga/production/_ext/1081070089/legato_draw.o
 .debug_str     0x00006e75      0x1e0 build/lcdc_rgba888_mxt_9x60_wvga/production/_ext/1081070089/legato_draw_arc.o
 .debug_str     0x00007055      0x17f build/lcdc_rgba888_mxt_9x60_wvga/production/_ext/1081070089/legato_gpu.o
 .debug_str     0x000071d4      0x268 build/lcdc_rgba888_mxt_9x60_wvga/production/_ext/157682245/legato_string_renderer.o
 .debug_str     0x0000743c       0xc8 build/lcdc_rgba888_mxt_9x60_wvga/production/_ext/157682245/legato_stringutils.o
 .debug_str     0x00007504      0x290 build/lcdc_rgba888_mxt_9x60_wvga/production/_ext/157682245/legato_tablestring.o
 .debug_str     0x00007794      0x175 build/lcdc_rgba888_mxt_9x60_wvga/production/_ext/157682245/legato_string.o
 .debug_str     0x00007909      0x16c build/lcdc_rgba888_mxt_9x60_wvga/production/_ext/157682245/legato_fixedstring.o
 .debug_str     0x00007a75      0x16c build/lcdc_rgba888_mxt_9x60_wvga/production/_ext/157682245/legato_stringtable.o
 .debug_str     0x00007be1      0x87e build/lcdc_rgba888_mxt_9x60_wvga/production/_ext/1339002025/legato_widget_button.o
 .debug_str     0x0000845f      0x843 build/lcdc_rgba888_mxt_9x60_wvga/production/_ext/1339002025/legato_widget_button_skin_classic.o
 .debug_str     0x00008ca2      0x6cb build/lcdc_rgba888_mxt_9x60_wvga/production/_ext/1197524732/legato_widget_image_skin_classic.o
 .debug_str     0x0000936d      0x67f build/lcdc_rgba888_mxt_9x60_wvga/production/_ext/1197524732/legato_widget_image.o
 .debug_str     0x000099ec      0x66a build/lcdc_rgba888_mxt_9x60_wvga/production/_ext/1195110755/legato_widget_label.o
 .debug_str     0x0000a056      0x764 build/lcdc_rgba888_mxt_9x60_wvga/production/_ext/1195110755/legato_widget_label_skin_classic.o
 .debug_str     0x0000a7ba      0x592 build/lcdc_rgba888_mxt_9x60_wvga/production/_ext/337100648/legato_widget_rectangle.o
 .debug_str     0x0000ad4c      0x66b build/lcdc_rgba888_mxt_9x60_wvga/production/_ext/337100648/legato_widget_rectangle_skin_classic.o
 .debug_str     0x0000b3b7      0x298 build/lcdc_rgba888_mxt_9x60_wvga/production/_ext/261620856/legato_widget_skin_classic.o
 .debug_str     0x0000b64f      0x365 build/lcdc_rgba888_mxt_9x60_wvga/production/_ext/261620856/legato_widget.o
 .debug_str     0x0000b9b4      0x2ae build/lcdc_rgba888_mxt_9x60_wvga/production/_ext/261620856/legato_widget_skin_classic_common.o
 .debug_str     0x0000bc62       0xd4 build/lcdc_rgba888_mxt_9x60_wvga/production/_ext/4986847/plib_aic.o
 .debug_str     0x0000bd36        0x0 build/lcdc_rgba888_mxt_9x60_wvga/production/_ext/4988870/plib_clk.o
 .debug_str     0x0000bd36       0x11 build/lcdc_rgba888_mxt_9x60_wvga/production/_ext/813772974/plib_flexcom6_twi_master.o
 .debug_str     0x0000bd47      0x106 build/lcdc_rgba888_mxt_9x60_wvga/production/_ext/154914322/plib_lcdc.o
 .debug_str     0x0000be4d        0xd build/lcdc_rgba888_mxt_9x60_wvga/production/_ext/4998521/plib_mmu.o
 .debug_str     0x0000be5a        0xa build/lcdc_rgba888_mxt_9x60_wvga/production/_ext/5001274/plib_pio.o
 .debug_str     0x0000be64       0x28 build/lcdc_rgba888_mxt_9x60_wvga/production/_ext/1247087435/plib_tc0.o
 .debug_str     0x0000be8c        0x0 build/lcdc_rgba888_mxt_9x60_wvga/production/_ext/286729486/xc32_monitor.o
 .debug_str     0x0000be8c        0x6 build/lcdc_rgba888_mxt_9x60_wvga/production/_ext/1414187873/sys_input.o
 .debug_str     0x0000be92       0x64 build/lcdc_rgba888_mxt_9x60_wvga/production/_ext/1826491803/sys_int.o
 .debug_str     0x0000bef6      0x14b build/lcdc_rgba888_mxt_9x60_wvga/production/_ext/1812361045/sys_time.o
 .debug_str     0x0000c041      0x243 build/lcdc_rgba888_mxt_9x60_wvga/production/_ext/2052985144/initialization.o
 .debug_str     0x0000c284       0x90 build/lcdc_rgba888_mxt_9x60_wvga/production/_ext/2052985144/cstartup.o
 .debug_str     0x0000c314        0x0 build/lcdc_rgba888_mxt_9x60_wvga/production/_ext/2052985144/fault_handlers.o
 .debug_str     0x0000c314       0xe9 build/lcdc_rgba888_mxt_9x60_wvga/production/_ext/2052985144/interrupts.o
 .debug_str     0x0000c3fd      0x12c build/lcdc_rgba888_mxt_9x60_wvga/production/_ext/2052985144/tasks.o
 .debug_str     0x0000c529      0x13d build/lcdc_rgba888_mxt_9x60_wvga/production/_ext/1360937237/app.o
 .debug_str     0x0000c666       0xed build/lcdc_rgba888_mxt_9x60_wvga/production/_ext/1360937237/main.o
 .debug_str     0x0000c753      0x6da build/lcdc_rgba888_mxt_9x60_wvga/production/_ext/1360937237/app_screen0.o
 .debug_str     0x0000ce2d       0x26 build/lcdc_rgba888_mxt_9x60_wvga/production/_ext/5003525/plib_rtc.o
 .debug_str     0x0000ce53      0x7e9 build/lcdc_rgba888_mxt_9x60_wvga/production/_ext/1360937237/app_screen1.o
 .debug_str     0x0000d63c      0x12c build/lcdc_rgba888_mxt_9x60_wvga/production/_ext/1121151461/gfx_canvas_api.o
 .debug_str     0x0000d768      0x200 build/lcdc_rgba888_mxt_9x60_wvga/production/_ext/1121151461/gfx_canvas.o
 .debug_str     0x0000d968        0x0 c:/program files/microchip/xc32/v4.20/bin/bin/../../lib/gcc/pic32c/8.3.1/../../../../pic32c/lib/arm/v5te/nofp\libpic32c.a(data_init_wrapper.o)
 .debug_str     0x0000d968        0x0 c:/program files/microchip/xc32/v4.20/bin/bin/../../lib/gcc/pic32c/8.3.1/../../../../pic32c/lib/arm/v5te/nofp\libpic32c.a(data_init_0_1.o)
 .debug_str     0x0000d968       0xe5 c:/program files/microchip/xc32/v4.20/bin/bin/../../lib/gcc/pic32c/8.3.1/arm/v5te/nofp\libgcc.a(_udivsi3.o)
 .debug_str     0x0000da4d       0xe5 c:/program files/microchip/xc32/v4.20/bin/bin/../../lib/gcc/pic32c/8.3.1/arm/v5te/nofp\libgcc.a(_divsi3.o)
 .debug_str     0x0000db32       0xe5 c:/program files/microchip/xc32/v4.20/bin/bin/../../lib/gcc/pic32c/8.3.1/arm/v5te/nofp\libgcc.a(_dvmd_tls.o)
 .debug_str     0x0000dc17       0xe6 c:/program files/microchip/xc32/v4.20/bin/bin/../../lib/gcc/pic32c/8.3.1/arm/v5te/nofp\libgcc.a(_arm_addsubsf3.o)
 .debug_str     0x0000dcfd       0xe6 c:/program files/microchip/xc32/v4.20/bin/bin/../../lib/gcc/pic32c/8.3.1/arm/v5te/nofp\libgcc.a(_arm_muldivsf3.o)
 .debug_str     0x0000dde3       0xe6 c:/program files/microchip/xc32/v4.20/bin/bin/../../lib/gcc/pic32c/8.3.1/arm/v5te/nofp\libgcc.a(_arm_cmpsf2.o)
 .debug_str     0x0000dec9       0xe6 c:/program files/microchip/xc32/v4.20/bin/bin/../../lib/gcc/pic32c/8.3.1/arm/v5te/nofp\libgcc.a(_arm_fixsfsi.o)
 .debug_str     0x0000dfaf       0xe6 c:/program files/microchip/xc32/v4.20/bin/bin/../../lib/gcc/pic32c/8.3.1/arm/v5te/nofp\libgcc.a(_arm_fixunssfsi.o)
 .debug_str     0x0000e095       0xe1 c:/program files/microchip/xc32/v4.20/bin/bin/../../lib/gcc/pic32c/8.3.1/arm/v5te/nofp\libgcc.a(_aeabi_uldivmod.o)
 .debug_str     0x0000e176        0x0 c:/program files/microchip/xc32/v4.20/bin/bin/../../lib/gcc/pic32c/8.3.1/arm/v5te/nofp\libgcc.a(_udivmoddi4.o)
 .debug_str     0x0000e176        0x0 c:/program files/microchip/xc32/v4.20/bin/bin/../../lib/gcc/pic32c/8.3.1/../../../../pic32c/lib/arm/v5te/nofp\libc-musl.a(__libc_start_main.o)
 .debug_str     0x0000e176        0x0 c:/program files/microchip/xc32/v4.20/bin/bin/../../lib/gcc/pic32c/8.3.1/../../../../pic32c/lib/arm/v5te/nofp\libc-musl.a(libc.o)
 .debug_str     0x0000e176       0x78 c:/program files/microchip/xc32/v4.20/bin/bin/../../lib/gcc/pic32c/8.3.1/../../../../pic32c/lib/arm/v5te/nofp\libc-musl.a(__sio_sprintf_doux.o)
 .debug_str     0x0000e1ee        0x0 c:/program files/microchip/xc32/v4.20/bin/bin/../../lib/gcc/pic32c/8.3.1/../../../../pic32c/lib/arm/v5te/nofp\libc-musl.a(__fmt_d.o)
 .debug_str     0x0000e1ee        0x0 c:/program files/microchip/xc32/v4.20/bin/bin/../../lib/gcc/pic32c/8.3.1/../../../../pic32c/lib/arm/v5te/nofp\libc-musl.a(__fmt_o.o)
 .debug_str     0x0000e1ee        0x0 c:/program files/microchip/xc32/v4.20/bin/bin/../../lib/gcc/pic32c/8.3.1/../../../../pic32c/lib/arm/v5te/nofp\libc-musl.a(__fmt_s.o)
 .debug_str     0x0000e1ee        0x6 c:/program files/microchip/xc32/v4.20/bin/bin/../../lib/gcc/pic32c/8.3.1/../../../../pic32c/lib/arm/v5te/nofp\libc-musl.a(__fmt_u.o)
 .debug_str     0x0000e1f4        0x0 c:/program files/microchip/xc32/v4.20/bin/bin/../../lib/gcc/pic32c/8.3.1/../../../../pic32c/lib/arm/v5te/nofp\libc-musl.a(__fmt_x.o)
 .debug_str     0x0000e1f4        0x0 c:/program files/microchip/xc32/v4.20/bin/bin/../../lib/gcc/pic32c/8.3.1/../../../../pic32c/lib/arm/v5te/nofp\libc-musl.a(__pop_int.o)
 .debug_str     0x0000e1f4        0x0 c:/program files/microchip/xc32/v4.20/bin/bin/../../lib/gcc/pic32c/8.3.1/../../../../pic32c/lib/arm/v5te/nofp\libc-musl.a(__pop_ptr.o)
 .debug_str     0x0000e1f4       0x20 c:/program files/microchip/xc32/v4.20/bin/bin/../../lib/gcc/pic32c/8.3.1/../../../../pic32c/lib/arm/v5te/nofp\libc-musl.a(__printf_core.o)
 .debug_str     0x0000e214       0x11 c:/program files/microchip/xc32/v4.20/bin/bin/../../lib/gcc/pic32c/8.3.1/../../../../pic32c/lib/arm/v5te/nofp\libc-musl.a(stdout.o)
 .debug_str     0x0000e225        0x0 c:/program files/microchip/xc32/v4.20/bin/bin/../../lib/gcc/pic32c/8.3.1/../../../../pic32c/lib/arm/v5te/nofp\libc-musl.a(atoi.o)
 .debug_str     0x0000e225        0x0 c:/program files/microchip/xc32/v4.20/bin/bin/../../lib/gcc/pic32c/8.3.1/../../../../pic32c/lib/arm/v5te/nofp\libc-musl.a(memcpy.o)
 .debug_str     0x0000e225        0x0 c:/program files/microchip/xc32/v4.20/bin/bin/../../lib/gcc/pic32c/8.3.1/../../../../pic32c/lib/arm/v5te/nofp\libc-musl.a(memset.o)
 .debug_str     0x0000e225        0x0 c:/program files/microchip/xc32/v4.20/bin/bin/../../lib/gcc/pic32c/8.3.1/../../../../pic32c/lib/arm/v5te/nofp\libc-musl.a(strlen.o)
 .debug_str     0x0000e225        0x0 c:/program files/microchip/xc32/v4.20/bin/bin/../../lib/gcc/pic32c/8.3.1/../../../../pic32c/lib/arm/v5te/nofp\libc-musl.a(tolower.o)
 .debug_str     0x0000e225        0x0 c:/program files/microchip/xc32/v4.20/bin/bin/../../lib/gcc/pic32c/8.3.1/../../../../pic32c/lib/arm/v5te/nofp\libc-musl.a(toupper.o)
 .debug_str     0x0000e225        0x0 c:/program files/microchip/xc32/v4.20/bin/bin/../../lib/gcc/pic32c/8.3.1/../../../../pic32c/lib/arm/v5te/nofp\libc-musl.a(__environ.o)
 .debug_str     0x0000e225        0x0 c:/program files/microchip/xc32/v4.20/bin/bin/../../lib/gcc/pic32c/8.3.1/../../../../pic32c/lib/arm/v5te/nofp\libc-musl.a(__errno_location.o)
 .debug_str     0x0000e225        0xe c:/program files/microchip/xc32/v4.20/bin/bin/../../lib/gcc/pic32c/8.3.1/../../../../pic32c/lib/arm/v5te/nofp\libc-musl.a(__int_vfprintf.o)
 .debug_str     0x0000e233        0xc c:/program files/microchip/xc32/v4.20/bin/bin/../../lib/gcc/pic32c/8.3.1/../../../../pic32c/lib/arm/v5te/nofp\libc-musl.a(__int_vsprintf.o)
 .debug_str     0x0000e23f        0x0 c:/program files/microchip/xc32/v4.20/bin/bin/../../lib/gcc/pic32c/8.3.1/../../../../pic32c/lib/arm/v5te/nofp\libc-musl.a(__pop_float.o)
 .debug_str     0x0000e23f        0xb c:/program files/microchip/xc32/v4.20/bin/bin/../../lib/gcc/pic32c/8.3.1/../../../../pic32c/lib/arm/v5te/nofp\libc-musl.a(__int_vsnprintf.o)
 .debug_str     0x0000e24a        0x0 c:/program files/microchip/xc32/v4.20/bin/bin/../../lib/gcc/pic32c/8.3.1/../../../../pic32c/lib/arm/v5te/nofp\libc-musl.a(__init_stdio.o)
 .debug_str     0x0000e24a        0x0 c:/program files/microchip/xc32/v4.20/bin/bin/../../lib/gcc/pic32c/8.3.1/../../../../pic32c/lib/arm/v5te/nofp\libc-musl.a(__out.o)
 .debug_str     0x0000e24a        0x0 c:/program files/microchip/xc32/v4.20/bin/bin/../../lib/gcc/pic32c/8.3.1/../../../../pic32c/lib/arm/v5te/nofp\libc-musl.a(__stdio_close.o)
 .debug_str     0x0000e24a        0x7 c:/program files/microchip/xc32/v4.20/bin/bin/../../lib/gcc/pic32c/8.3.1/../../../../pic32c/lib/arm/v5te/nofp\libc-musl.a(__stdio_seek.o)
 .debug_str     0x0000e251       0x11 c:/program files/microchip/xc32/v4.20/bin/bin/../../lib/gcc/pic32c/8.3.1/../../../../pic32c/lib/arm/v5te/nofp\libc-musl.a(__stdout.o)
 .debug_str     0x0000e262       0x10 c:/program files/microchip/xc32/v4.20/bin/bin/../../lib/gcc/pic32c/8.3.1/../../../../pic32c/lib/arm/v5te/nofp\libc-musl.a(__fwrite.o)
 .debug_str     0x0000e272        0x0 c:/program files/microchip/xc32/v4.20/bin/bin/../../lib/gcc/pic32c/8.3.1/../../../../pic32c/lib/arm/v5te/nofp\libpic32c.a(close.o)
 .debug_str     0x0000e272        0x0 c:/program files/microchip/xc32/v4.20/bin/bin/../../lib/gcc/pic32c/8.3.1/../../../../pic32c/lib/arm/v5te/nofp\libpic32c.a(lseek.o)

.debug_frame    0x00000000     0x8c94
 .debug_frame   0x00000000       0x20 build/lcdc_rgba888_mxt_9x60_wvga/production/_ext/236556520/bsp.o
 .debug_frame   0x00000020      0x264 build/lcdc_rgba888_mxt_9x60_wvga/production/_ext/103208383/drv_i2c.o
 .debug_frame   0x00000284      0x2c4 build/lcdc_rgba888_mxt_9x60_wvga/production/_ext/1959449242/drv_maxtouch.o
 .debug_frame   0x00000548      0x4c4 build/lcdc_rgba888_mxt_9x60_wvga/production/_ext/1165331637/gfx_driver.o
 .debug_frame   0x00000a0c      0x128 build/lcdc_rgba888_mxt_9x60_wvga/production/_ext/129784465/drv_gfx_lcdc.o
 .debug_frame   0x00000b34      0x3a8 build/lcdc_rgba888_mxt_9x60_wvga/production/_ext/305146849/legato_math.o
 .debug_frame   0x00000edc       0x68 build/lcdc_rgba888_mxt_9x60_wvga/production/_ext/305146849/legato_color_blend.o
 .debug_frame   0x00000f44      0x2d0 build/lcdc_rgba888_mxt_9x60_wvga/production/_ext/305146849/legato_color_convert.o
 .debug_frame   0x00001214      0x114 build/lcdc_rgba888_mxt_9x60_wvga/production/_ext/305146849/legato_rect.o
 .debug_frame   0x00001328      0x1d4 build/lcdc_rgba888_mxt_9x60_wvga/production/_ext/305146849/legato_utils.o
 .debug_frame   0x000014fc      0x25c build/lcdc_rgba888_mxt_9x60_wvga/production/_ext/305146849/legato_pixelbuffer.o
 .debug_frame   0x00001758      0x128 build/lcdc_rgba888_mxt_9x60_wvga/production/_ext/305146849/legato_color_lerp.o
 .debug_frame   0x00001880       0x60 build/lcdc_rgba888_mxt_9x60_wvga/production/_ext/305146849/legato_color.o
 .debug_frame   0x000018e0      0x428 build/lcdc_rgba888_mxt_9x60_wvga/production/_ext/1618192685/legato_state.o
 .debug_frame   0x00001d08       0x54 build/lcdc_rgba888_mxt_9x60_wvga/production/_ext/1618192685/legato_scheme.o
 .debug_frame   0x00001d5c       0xd8 build/lcdc_rgba888_mxt_9x60_wvga/production/_ext/1618192685/legato_event.o
 .debug_frame   0x00001e34      0x144 build/lcdc_rgba888_mxt_9x60_wvga/production/_ext/1618192685/legato_input.o
 .debug_frame   0x00001f78      0x3d0 build/lcdc_rgba888_mxt_9x60_wvga/production/_ext/109670485/legato_rectarray.o
 .debug_frame   0x00002348      0x188 build/lcdc_rgba888_mxt_9x60_wvga/production/_ext/109670485/legato_array.o
 .debug_frame   0x000024d0      0x18c build/lcdc_rgba888_mxt_9x60_wvga/production/_ext/109670485/legato_list.o
 .debug_frame   0x0000265c      0x190 build/lcdc_rgba888_mxt_9x60_wvga/production/_ext/1618103421/legato_font.o
 .debug_frame   0x000027ec       0xa0 build/lcdc_rgba888_mxt_9x60_wvga/production/_ext/534613472/le_gen_screen_Screen0.o
 .debug_frame   0x0000288c       0xa8 build/lcdc_rgba888_mxt_9x60_wvga/production/_ext/534613472/le_gen_screen_Screen1.o
 .debug_frame   0x00002934       0x70 build/lcdc_rgba888_mxt_9x60_wvga/production/_ext/706129189/le_gen_init.o
 .debug_frame   0x000029a4       0x28 build/lcdc_rgba888_mxt_9x60_wvga/production/_ext/706129189/le_gen_stringtable.o
 .debug_frame   0x000029cc       0x90 build/lcdc_rgba888_mxt_9x60_wvga/production/_ext/706129189/le_gen_harmony.o
 .debug_frame   0x00002a5c       0xec build/lcdc_rgba888_mxt_9x60_wvga/production/_ext/2086705360/legato_imagedecoder_jpeg.o
 .debug_frame   0x00002b48      0x1c0 build/lcdc_rgba888_mxt_9x60_wvga/production/_ext/2086705360/legato_imagedecoder_jpeg_common.o
 .debug_frame   0x00002d08       0x40 build/lcdc_rgba888_mxt_9x60_wvga/production/_ext/2086705360/jidctint.o
 .debug_frame   0x00002d48       0x40 build/lcdc_rgba888_mxt_9x60_wvga/production/_ext/2086794059/legato_imagedecoder_mono_read_internal.o
 .debug_frame   0x00002d88      0x190 build/lcdc_rgba888_mxt_9x60_wvga/production/_ext/2086794059/legato_imagedecoder_mono.o
 .debug_frame   0x00002f18      0x888 build/lcdc_rgba888_mxt_9x60_wvga/production/_ext/1872343871/lodepng.o
 .debug_frame   0x000037a0       0xbc build/lcdc_rgba888_mxt_9x60_wvga/production/_ext/1872343871/legato_imagedecoder_png.o
 .debug_frame   0x0000385c       0x70 build/lcdc_rgba888_mxt_9x60_wvga/production/_ext/1872342336/legato_imagedecoder_raw_setup.o
 .debug_frame   0x000038cc       0xe0 build/lcdc_rgba888_mxt_9x60_wvga/production/_ext/1872342336/legato_imagedecoder_raw_scale.o
 .debug_frame   0x000039ac      0x25c build/lcdc_rgba888_mxt_9x60_wvga/production/_ext/1872342336/legato_imagedecoder_raw.o
 .debug_frame   0x00003c08      0x100 build/lcdc_rgba888_mxt_9x60_wvga/production/_ext/1872342336/legato_imagedecoder_raw_read_internal.o
 .debug_frame   0x00003d08       0x70 build/lcdc_rgba888_mxt_9x60_wvga/production/_ext/1872342336/legato_imagedecoder_raw_write.o
 .debug_frame   0x00003d78       0x6c build/lcdc_rgba888_mxt_9x60_wvga/production/_ext/1872342336/legato_imagedecoder_raw_blend.o
 .debug_frame   0x00003de4       0x38 build/lcdc_rgba888_mxt_9x60_wvga/production/_ext/1872342336/legato_imagedecoder_raw_mask.o
 .debug_frame   0x00003e1c       0x44 build/lcdc_rgba888_mxt_9x60_wvga/production/_ext/1872342336/legato_imagedecoder_raw_convert.o
 .debug_frame   0x00003e60       0xc4 build/lcdc_rgba888_mxt_9x60_wvga/production/_ext/1872342336/legato_imagedecoder_raw_rotate.o
 .debug_frame   0x00003f24       0x68 build/lcdc_rgba888_mxt_9x60_wvga/production/_ext/1872342336/legato_imagedecoder_raw_palette_internal.o
 .debug_frame   0x00003f8c      0x100 build/lcdc_rgba888_mxt_9x60_wvga/production/_ext/1381099687/legato_image_utils.o
 .debug_frame   0x0000408c      0x1dc build/lcdc_rgba888_mxt_9x60_wvga/production/_ext/1381099687/legato_image.o
 .debug_frame   0x00004268       0x94 build/lcdc_rgba888_mxt_9x60_wvga/production/_ext/28088523/legato_fixedheap.o
 .debug_frame   0x000042fc      0x104 build/lcdc_rgba888_mxt_9x60_wvga/production/_ext/28088523/legato_memory.o
 .debug_frame   0x00004400      0x1c8 build/lcdc_rgba888_mxt_9x60_wvga/production/_ext/28088523/legato_variableheap.o
 .debug_frame   0x000045c8       0xb0 build/lcdc_rgba888_mxt_9x60_wvga/production/_ext/1081070089/legato_draw_rect.o
 .debug_frame   0x00004678       0xbc build/lcdc_rgba888_mxt_9x60_wvga/production/_ext/1081070089/legato_draw_line.o
 .debug_frame   0x00004734      0x2bc build/lcdc_rgba888_mxt_9x60_wvga/production/_ext/1081070089/legato_renderer.o
 .debug_frame   0x000049f0      0x1f4 build/lcdc_rgba888_mxt_9x60_wvga/production/_ext/1081070089/legato_draw.o
 .debug_frame   0x00004be4      0x15c build/lcdc_rgba888_mxt_9x60_wvga/production/_ext/1081070089/legato_draw_arc.o
 .debug_frame   0x00004d40       0xf4 build/lcdc_rgba888_mxt_9x60_wvga/production/_ext/1081070089/legato_gpu.o
 .debug_frame   0x00004e34       0xa0 build/lcdc_rgba888_mxt_9x60_wvga/production/_ext/157682245/legato_string_renderer.o
 .debug_frame   0x00004ed4      0x2ac build/lcdc_rgba888_mxt_9x60_wvga/production/_ext/157682245/legato_stringutils.o
 .debug_frame   0x00005180      0x1e8 build/lcdc_rgba888_mxt_9x60_wvga/production/_ext/157682245/legato_tablestring.o
 .debug_frame   0x00005368      0x1a8 build/lcdc_rgba888_mxt_9x60_wvga/production/_ext/157682245/legato_string.o
 .debug_frame   0x00005510      0x258 build/lcdc_rgba888_mxt_9x60_wvga/production/_ext/157682245/legato_fixedstring.o
 .debug_frame   0x00005768       0xc8 build/lcdc_rgba888_mxt_9x60_wvga/production/_ext/157682245/legato_stringtable.o
 .debug_frame   0x00005830      0x2e4 build/lcdc_rgba888_mxt_9x60_wvga/production/_ext/1339002025/legato_widget_button.o
 .debug_frame   0x00005b14      0x11c build/lcdc_rgba888_mxt_9x60_wvga/production/_ext/1339002025/legato_widget_button_skin_classic.o
 .debug_frame   0x00005c30       0xb0 build/lcdc_rgba888_mxt_9x60_wvga/production/_ext/1197524732/legato_widget_image_skin_classic.o
 .debug_frame   0x00005ce0       0xc4 build/lcdc_rgba888_mxt_9x60_wvga/production/_ext/1197524732/legato_widget_image.o
 .debug_frame   0x00005da4       0xf4 build/lcdc_rgba888_mxt_9x60_wvga/production/_ext/1195110755/legato_widget_label.o
 .debug_frame   0x00005e98       0xb8 build/lcdc_rgba888_mxt_9x60_wvga/production/_ext/1195110755/legato_widget_label_skin_classic.o
 .debug_frame   0x00005f50       0x84 build/lcdc_rgba888_mxt_9x60_wvga/production/_ext/337100648/legato_widget_rectangle.o
 .debug_frame   0x00005fd4       0xb0 build/lcdc_rgba888_mxt_9x60_wvga/production/_ext/337100648/legato_widget_rectangle_skin_classic.o
 .debug_frame   0x00006084       0x58 build/lcdc_rgba888_mxt_9x60_wvga/production/_ext/261620856/legato_widget_skin_classic.o
 .debug_frame   0x000060dc      0x7e8 build/lcdc_rgba888_mxt_9x60_wvga/production/_ext/261620856/legato_widget.o
 .debug_frame   0x000068c4      0x29c build/lcdc_rgba888_mxt_9x60_wvga/production/_ext/261620856/legato_widget_skin_classic_common.o
 .debug_frame   0x00006b60       0x64 build/lcdc_rgba888_mxt_9x60_wvga/production/_ext/4986847/plib_aic.o
 .debug_frame   0x00006bc4       0x2c build/lcdc_rgba888_mxt_9x60_wvga/production/_ext/4988870/plib_clk.o
 .debug_frame   0x00006bf0      0x114 build/lcdc_rgba888_mxt_9x60_wvga/production/_ext/813772974/plib_flexcom6_twi_master.o
 .debug_frame   0x00006d04      0x518 build/lcdc_rgba888_mxt_9x60_wvga/production/_ext/154914322/plib_lcdc.o
 .debug_frame   0x0000721c       0xf8 build/lcdc_rgba888_mxt_9x60_wvga/production/_ext/4998521/plib_mmu.o
 .debug_frame   0x00007314       0xa0 build/lcdc_rgba888_mxt_9x60_wvga/production/_ext/5001274/plib_pio.o
 .debug_frame   0x000073b4      0x168 build/lcdc_rgba888_mxt_9x60_wvga/production/_ext/1247087435/plib_tc0.o
 .debug_frame   0x0000751c       0x30 build/lcdc_rgba888_mxt_9x60_wvga/production/_ext/286729486/xc32_monitor.o
 .debug_frame   0x0000754c      0x190 build/lcdc_rgba888_mxt_9x60_wvga/production/_ext/1414187873/sys_input.o
 .debug_frame   0x000076dc      0x118 build/lcdc_rgba888_mxt_9x60_wvga/production/_ext/1826491803/sys_int.o
 .debug_frame   0x000077f4      0x3c4 build/lcdc_rgba888_mxt_9x60_wvga/production/_ext/1812361045/sys_time.o
 .debug_frame   0x00007bb8       0x28 build/lcdc_rgba888_mxt_9x60_wvga/production/_ext/2052985144/initialization.o
 .debug_frame   0x00007be0       0x50 build/lcdc_rgba888_mxt_9x60_wvga/production/_ext/2052985144/fault_handlers.o
 .debug_frame   0x00007c30       0x68 build/lcdc_rgba888_mxt_9x60_wvga/production/_ext/2052985144/interrupts.o
 .debug_frame   0x00007c98       0x28 build/lcdc_rgba888_mxt_9x60_wvga/production/_ext/2052985144/tasks.o
 .debug_frame   0x00007cc0       0x40 build/lcdc_rgba888_mxt_9x60_wvga/production/_ext/1360937237/app.o
 .debug_frame   0x00007d00       0x28 build/lcdc_rgba888_mxt_9x60_wvga/production/_ext/1360937237/main.o
 .debug_frame   0x00007d28       0x50 build/lcdc_rgba888_mxt_9x60_wvga/production/_ext/1360937237/app_screen0.o
 .debug_frame   0x00007d78       0xc0 build/lcdc_rgba888_mxt_9x60_wvga/production/_ext/5003525/plib_rtc.o
 .debug_frame   0x00007e38       0xe0 build/lcdc_rgba888_mxt_9x60_wvga/production/_ext/1360937237/app_screen1.o
 .debug_frame   0x00007f18      0x238 build/lcdc_rgba888_mxt_9x60_wvga/production/_ext/1121151461/gfx_canvas_api.o
 .debug_frame   0x00008150      0x214 build/lcdc_rgba888_mxt_9x60_wvga/production/_ext/1121151461/gfx_canvas.o
 .debug_frame   0x00008364       0x20 c:/program files/microchip/xc32/v4.20/bin/bin/../../lib/gcc/pic32c/8.3.1/../../../../pic32c/lib/arm/v5te/nofp\libpic32c.a(data_init_wrapper.o)
 .debug_frame   0x00008384       0x28 c:/program files/microchip/xc32/v4.20/bin/bin/../../lib/gcc/pic32c/8.3.1/../../../../pic32c/lib/arm/v5te/nofp\libpic32c.a(data_init_0_1.o)
 .debug_frame   0x000083ac       0x20 c:/program files/microchip/xc32/v4.20/bin/bin/../../lib/gcc/pic32c/8.3.1/arm/v5te/nofp\libgcc.a(_udivsi3.o)
 .debug_frame   0x000083cc       0x20 c:/program files/microchip/xc32/v4.20/bin/bin/../../lib/gcc/pic32c/8.3.1/arm/v5te/nofp\libgcc.a(_divsi3.o)
 .debug_frame   0x000083ec       0x4c c:/program files/microchip/xc32/v4.20/bin/bin/../../lib/gcc/pic32c/8.3.1/arm/v5te/nofp\libgcc.a(_arm_addsubsf3.o)
 .debug_frame   0x00008438       0x38 c:/program files/microchip/xc32/v4.20/bin/bin/../../lib/gcc/pic32c/8.3.1/arm/v5te/nofp\libgcc.a(_arm_muldivsf3.o)
 .debug_frame   0x00008470       0xc8 c:/program files/microchip/xc32/v4.20/bin/bin/../../lib/gcc/pic32c/8.3.1/arm/v5te/nofp\libgcc.a(_arm_cmpsf2.o)
 .debug_frame   0x00008538       0x24 c:/program files/microchip/xc32/v4.20/bin/bin/../../lib/gcc/pic32c/8.3.1/arm/v5te/nofp\libgcc.a(_arm_fixsfsi.o)
 .debug_frame   0x0000855c       0x24 c:/program files/microchip/xc32/v4.20/bin/bin/../../lib/gcc/pic32c/8.3.1/arm/v5te/nofp\libgcc.a(_arm_fixunssfsi.o)
 .debug_frame   0x00008580       0x2c c:/program files/microchip/xc32/v4.20/bin/bin/../../lib/gcc/pic32c/8.3.1/arm/v5te/nofp\libgcc.a(_aeabi_uldivmod.o)
 .debug_frame   0x000085ac       0x34 c:/program files/microchip/xc32/v4.20/bin/bin/../../lib/gcc/pic32c/8.3.1/arm/v5te/nofp\libgcc.a(_udivmoddi4.o)
 .debug_frame   0x000085e0       0x3c c:/program files/microchip/xc32/v4.20/bin/bin/../../lib/gcc/pic32c/8.3.1/../../../../pic32c/lib/arm/v5te/nofp\libc-musl.a(__libc_start_main.o)
 .debug_frame   0x0000861c       0x58 c:/program files/microchip/xc32/v4.20/bin/bin/../../lib/gcc/pic32c/8.3.1/../../../../pic32c/lib/arm/v5te/nofp\libc-musl.a(__sio_sprintf_doux.o)
 .debug_frame   0x00008674       0x3c c:/program files/microchip/xc32/v4.20/bin/bin/../../lib/gcc/pic32c/8.3.1/../../../../pic32c/lib/arm/v5te/nofp\libc-musl.a(__fmt_d.o)
 .debug_frame   0x000086b0       0x34 c:/program files/microchip/xc32/v4.20/bin/bin/../../lib/gcc/pic32c/8.3.1/../../../../pic32c/lib/arm/v5te/nofp\libc-musl.a(__fmt_o.o)
 .debug_frame   0x000086e4       0x38 c:/program files/microchip/xc32/v4.20/bin/bin/../../lib/gcc/pic32c/8.3.1/../../../../pic32c/lib/arm/v5te/nofp\libc-musl.a(__fmt_s.o)
 .debug_frame   0x0000871c       0x5c c:/program files/microchip/xc32/v4.20/bin/bin/../../lib/gcc/pic32c/8.3.1/../../../../pic32c/lib/arm/v5te/nofp\libc-musl.a(__fmt_u.o)
 .debug_frame   0x00008778       0x40 c:/program files/microchip/xc32/v4.20/bin/bin/../../lib/gcc/pic32c/8.3.1/../../../../pic32c/lib/arm/v5te/nofp\libc-musl.a(__fmt_x.o)
 .debug_frame   0x000087b8       0x20 c:/program files/microchip/xc32/v4.20/bin/bin/../../lib/gcc/pic32c/8.3.1/../../../../pic32c/lib/arm/v5te/nofp\libc-musl.a(__pop_int.o)
 .debug_frame   0x000087d8       0x20 c:/program files/microchip/xc32/v4.20/bin/bin/../../lib/gcc/pic32c/8.3.1/../../../../pic32c/lib/arm/v5te/nofp\libc-musl.a(__pop_ptr.o)
 .debug_frame   0x000087f8       0xd0 c:/program files/microchip/xc32/v4.20/bin/bin/../../lib/gcc/pic32c/8.3.1/../../../../pic32c/lib/arm/v5te/nofp\libc-musl.a(__printf_core.o)
 .debug_frame   0x000088c8       0x48 c:/program files/microchip/xc32/v4.20/bin/bin/../../lib/gcc/pic32c/8.3.1/../../../../pic32c/lib/arm/v5te/nofp\libc-musl.a(stdout.o)
 .debug_frame   0x00008910       0x28 c:/program files/microchip/xc32/v4.20/bin/bin/../../lib/gcc/pic32c/8.3.1/../../../../pic32c/lib/arm/v5te/nofp\libc-musl.a(atoi.o)
 .debug_frame   0x00008938       0x20 c:/program files/microchip/xc32/v4.20/bin/bin/../../lib/gcc/pic32c/8.3.1/../../../../pic32c/lib/arm/v5te/nofp\libc-musl.a(memcpy.o)
 .debug_frame   0x00008958       0x20 c:/program files/microchip/xc32/v4.20/bin/bin/../../lib/gcc/pic32c/8.3.1/../../../../pic32c/lib/arm/v5te/nofp\libc-musl.a(memset.o)
 .debug_frame   0x00008978       0x20 c:/program files/microchip/xc32/v4.20/bin/bin/../../lib/gcc/pic32c/8.3.1/../../../../pic32c/lib/arm/v5te/nofp\libc-musl.a(strlen.o)
 .debug_frame   0x00008998       0x30 c:/program files/microchip/xc32/v4.20/bin/bin/../../lib/gcc/pic32c/8.3.1/../../../../pic32c/lib/arm/v5te/nofp\libc-musl.a(tolower.o)
 .debug_frame   0x000089c8       0x30 c:/program files/microchip/xc32/v4.20/bin/bin/../../lib/gcc/pic32c/8.3.1/../../../../pic32c/lib/arm/v5te/nofp\libc-musl.a(toupper.o)
 .debug_frame   0x000089f8       0x2c c:/program files/microchip/xc32/v4.20/bin/bin/../../lib/gcc/pic32c/8.3.1/../../../../pic32c/lib/arm/v5te/nofp\libc-musl.a(__int_vfprintf.o)
 .debug_frame   0x00008a24       0x20 c:/program files/microchip/xc32/v4.20/bin/bin/../../lib/gcc/pic32c/8.3.1/../../../../pic32c/lib/arm/v5te/nofp\libc-musl.a(__int_vsprintf.o)
 .debug_frame   0x00008a44       0x20 c:/program files/microchip/xc32/v4.20/bin/bin/../../lib/gcc/pic32c/8.3.1/../../../../pic32c/lib/arm/v5te/nofp\libc-musl.a(__pop_float.o)
 .debug_frame   0x00008a64       0x30 c:/program files/microchip/xc32/v4.20/bin/bin/../../lib/gcc/pic32c/8.3.1/../../../../pic32c/lib/arm/v5te/nofp\libc-musl.a(__int_vsnprintf.o)
 .debug_frame   0x00008a94       0x38 c:/program files/microchip/xc32/v4.20/bin/bin/../../lib/gcc/pic32c/8.3.1/../../../../pic32c/lib/arm/v5te/nofp\libc-musl.a(__init_stdio.o)
 .debug_frame   0x00008acc       0x3c c:/program files/microchip/xc32/v4.20/bin/bin/../../lib/gcc/pic32c/8.3.1/../../../../pic32c/lib/arm/v5te/nofp\libc-musl.a(__out.o)
 .debug_frame   0x00008b08       0x60 c:/program files/microchip/xc32/v4.20/bin/bin/../../lib/gcc/pic32c/8.3.1/../../../../pic32c/lib/arm/v5te/nofp\libc-musl.a(__stdio_close.o)
 .debug_frame   0x00008b68       0x6c c:/program files/microchip/xc32/v4.20/bin/bin/../../lib/gcc/pic32c/8.3.1/../../../../pic32c/lib/arm/v5te/nofp\libc-musl.a(__stdio_seek.o)
 .debug_frame   0x00008bd4       0x40 c:/program files/microchip/xc32/v4.20/bin/bin/../../lib/gcc/pic32c/8.3.1/../../../../pic32c/lib/arm/v5te/nofp\libc-musl.a(__stdout.o)
 .debug_frame   0x00008c14       0x40 c:/program files/microchip/xc32/v4.20/bin/bin/../../lib/gcc/pic32c/8.3.1/../../../../pic32c/lib/arm/v5te/nofp\libc-musl.a(__fwrite.o)
 .debug_frame   0x00008c54       0x20 c:/program files/microchip/xc32/v4.20/bin/bin/../../lib/gcc/pic32c/8.3.1/../../../../pic32c/lib/arm/v5te/nofp\libpic32c.a(close.o)
 .debug_frame   0x00008c74       0x20 c:/program files/microchip/xc32/v4.20/bin/bin/../../lib/gcc/pic32c/8.3.1/../../../../pic32c/lib/arm/v5te/nofp\libpic32c.a(lseek.o)

.debug_loc      0x00000000    0x3e947
 .debug_loc     0x00000000     0x17f1 build/lcdc_rgba888_mxt_9x60_wvga/production/_ext/103208383/drv_i2c.o
 .debug_loc     0x000017f1     0x29b1 build/lcdc_rgba888_mxt_9x60_wvga/production/_ext/1959449242/drv_maxtouch.o
 .debug_loc     0x000041a2     0x2c35 build/lcdc_rgba888_mxt_9x60_wvga/production/_ext/1165331637/gfx_driver.o
 .debug_loc     0x00006dd7      0xacb build/lcdc_rgba888_mxt_9x60_wvga/production/_ext/129784465/drv_gfx_lcdc.o
 .debug_loc     0x000078a2     0x1843 build/lcdc_rgba888_mxt_9x60_wvga/production/_ext/305146849/legato_math.o
 .debug_loc     0x000090e5      0x98c build/lcdc_rgba888_mxt_9x60_wvga/production/_ext/305146849/legato_color_blend.o
 .debug_loc     0x00009a71     0x19b1 build/lcdc_rgba888_mxt_9x60_wvga/production/_ext/305146849/legato_color_convert.o
 .debug_loc     0x0000b422      0xe98 build/lcdc_rgba888_mxt_9x60_wvga/production/_ext/305146849/legato_rect.o
 .debug_loc     0x0000c2ba      0xf3f build/lcdc_rgba888_mxt_9x60_wvga/production/_ext/305146849/legato_utils.o
 .debug_loc     0x0000d1f9     0x13da build/lcdc_rgba888_mxt_9x60_wvga/production/_ext/305146849/legato_pixelbuffer.o
 .debug_loc     0x0000e5d3     0x12fd build/lcdc_rgba888_mxt_9x60_wvga/production/_ext/305146849/legato_color_lerp.o
 .debug_loc     0x0000f8d0      0x50f build/lcdc_rgba888_mxt_9x60_wvga/production/_ext/305146849/legato_color.o
 .debug_loc     0x0000fddf     0x1192 build/lcdc_rgba888_mxt_9x60_wvga/production/_ext/1618192685/legato_state.o
 .debug_loc     0x00010f71      0x12d build/lcdc_rgba888_mxt_9x60_wvga/production/_ext/1618192685/legato_scheme.o
 .debug_loc     0x0001109e      0x1a6 build/lcdc_rgba888_mxt_9x60_wvga/production/_ext/1618192685/legato_event.o
 .debug_loc     0x00011244      0x95f build/lcdc_rgba888_mxt_9x60_wvga/production/_ext/1618192685/legato_input.o
 .debug_loc     0x00011ba3     0x1445 build/lcdc_rgba888_mxt_9x60_wvga/production/_ext/109670485/legato_rectarray.o
 .debug_loc     0x00012fe8      0x8d5 build/lcdc_rgba888_mxt_9x60_wvga/production/_ext/109670485/legato_array.o
 .debug_loc     0x000138bd      0xe08 build/lcdc_rgba888_mxt_9x60_wvga/production/_ext/109670485/legato_list.o
 .debug_loc     0x000146c5     0x12fc build/lcdc_rgba888_mxt_9x60_wvga/production/_ext/1618103421/legato_font.o
 .debug_loc     0x000159c1      0x11d build/lcdc_rgba888_mxt_9x60_wvga/production/_ext/534613472/le_gen_screen_Screen0.o
 .debug_loc     0x00015ade      0x11d build/lcdc_rgba888_mxt_9x60_wvga/production/_ext/534613472/le_gen_screen_Screen1.o
 .debug_loc     0x00015bfb       0x40 build/lcdc_rgba888_mxt_9x60_wvga/production/_ext/706129189/le_gen_init.o
 .debug_loc     0x00015c3b       0x20 build/lcdc_rgba888_mxt_9x60_wvga/production/_ext/706129189/le_gen_stringtable.o
 .debug_loc     0x00015c5b      0x127 build/lcdc_rgba888_mxt_9x60_wvga/production/_ext/706129189/le_gen_harmony.o
 .debug_loc     0x00015d82      0x63b build/lcdc_rgba888_mxt_9x60_wvga/production/_ext/2086705360/legato_imagedecoder_jpeg.o
 .debug_loc     0x000163bd      0xe55 build/lcdc_rgba888_mxt_9x60_wvga/production/_ext/2086705360/legato_imagedecoder_jpeg_common.o
 .debug_loc     0x00017212     0x18f1 build/lcdc_rgba888_mxt_9x60_wvga/production/_ext/2086705360/jidctint.o
 .debug_loc     0x00018b03       0xcf build/lcdc_rgba888_mxt_9x60_wvga/production/_ext/2086794059/legato_imagedecoder_mono_read_internal.o
 .debug_loc     0x00018bd2      0x5c1 build/lcdc_rgba888_mxt_9x60_wvga/production/_ext/2086794059/legato_imagedecoder_mono.o
 .debug_loc     0x00019193     0x9ff0 build/lcdc_rgba888_mxt_9x60_wvga/production/_ext/1872343871/lodepng.o
 .debug_loc     0x00023183      0x36c build/lcdc_rgba888_mxt_9x60_wvga/production/_ext/1872343871/legato_imagedecoder_png.o
 .debug_loc     0x000234ef      0x147 build/lcdc_rgba888_mxt_9x60_wvga/production/_ext/1872342336/legato_imagedecoder_raw_setup.o
 .debug_loc     0x00023636      0x28b build/lcdc_rgba888_mxt_9x60_wvga/production/_ext/1872342336/legato_imagedecoder_raw_scale.o
 .debug_loc     0x000238c1      0xe04 build/lcdc_rgba888_mxt_9x60_wvga/production/_ext/1872342336/legato_imagedecoder_raw.o
 .debug_loc     0x000246c5      0x3db build/lcdc_rgba888_mxt_9x60_wvga/production/_ext/1872342336/legato_imagedecoder_raw_read_internal.o
 .debug_loc     0x00024aa0      0x114 build/lcdc_rgba888_mxt_9x60_wvga/production/_ext/1872342336/legato_imagedecoder_raw_write.o
 .debug_loc     0x00024bb4      0x1d9 build/lcdc_rgba888_mxt_9x60_wvga/production/_ext/1872342336/legato_imagedecoder_raw_blend.o
 .debug_loc     0x00024d8d       0x6a build/lcdc_rgba888_mxt_9x60_wvga/production/_ext/1872342336/legato_imagedecoder_raw_mask.o
 .debug_loc     0x00024df7       0xb3 build/lcdc_rgba888_mxt_9x60_wvga/production/_ext/1872342336/legato_imagedecoder_raw_convert.o
 .debug_loc     0x00024eaa      0x2e0 build/lcdc_rgba888_mxt_9x60_wvga/production/_ext/1872342336/legato_imagedecoder_raw_rotate.o
 .debug_loc     0x0002518a      0x101 build/lcdc_rgba888_mxt_9x60_wvga/production/_ext/1872342336/legato_imagedecoder_raw_palette_internal.o
 .debug_loc     0x0002528b      0x553 build/lcdc_rgba888_mxt_9x60_wvga/production/_ext/1381099687/legato_image_utils.o
 .debug_loc     0x000257de      0xb36 build/lcdc_rgba888_mxt_9x60_wvga/production/_ext/1381099687/legato_image.o
 .debug_loc     0x00026314      0x2fc build/lcdc_rgba888_mxt_9x60_wvga/production/_ext/28088523/legato_fixedheap.o
 .debug_loc     0x00026610      0x6fc build/lcdc_rgba888_mxt_9x60_wvga/production/_ext/28088523/legato_memory.o
 .debug_loc     0x00026d0c     0x1573 build/lcdc_rgba888_mxt_9x60_wvga/production/_ext/28088523/legato_variableheap.o
 .debug_loc     0x0002827f      0x51b build/lcdc_rgba888_mxt_9x60_wvga/production/_ext/1081070089/legato_draw_rect.o
 .debug_loc     0x0002879a      0x87b build/lcdc_rgba888_mxt_9x60_wvga/production/_ext/1081070089/legato_draw_line.o
 .debug_loc     0x00029015      0xc6c build/lcdc_rgba888_mxt_9x60_wvga/production/_ext/1081070089/legato_renderer.o
 .debug_loc     0x00029c81      0xf57 build/lcdc_rgba888_mxt_9x60_wvga/production/_ext/1081070089/legato_draw.o
 .debug_loc     0x0002abd8     0x1143 build/lcdc_rgba888_mxt_9x60_wvga/production/_ext/1081070089/legato_draw_arc.o
 .debug_loc     0x0002bd1b      0x862 build/lcdc_rgba888_mxt_9x60_wvga/production/_ext/1081070089/legato_gpu.o
 .debug_loc     0x0002c57d      0x67b build/lcdc_rgba888_mxt_9x60_wvga/production/_ext/157682245/legato_string_renderer.o
 .debug_loc     0x0002cbf8     0x22b9 build/lcdc_rgba888_mxt_9x60_wvga/production/_ext/157682245/legato_stringutils.o
 .debug_loc     0x0002eeb1      0x7cf build/lcdc_rgba888_mxt_9x60_wvga/production/_ext/157682245/legato_tablestring.o
 .debug_loc     0x0002f680      0x983 build/lcdc_rgba888_mxt_9x60_wvga/production/_ext/157682245/legato_string.o
 .debug_loc     0x00030003      0xca5 build/lcdc_rgba888_mxt_9x60_wvga/production/_ext/157682245/legato_fixedstring.o
 .debug_loc     0x00030ca8      0x61b build/lcdc_rgba888_mxt_9x60_wvga/production/_ext/157682245/legato_stringtable.o
 .debug_loc     0x000312c3      0xa94 build/lcdc_rgba888_mxt_9x60_wvga/production/_ext/1339002025/legato_widget_button.o
 .debug_loc     0x00031d57      0x4c7 build/lcdc_rgba888_mxt_9x60_wvga/production/_ext/1339002025/legato_widget_button_skin_classic.o
 .debug_loc     0x0003221e      0x25d build/lcdc_rgba888_mxt_9x60_wvga/production/_ext/1197524732/legato_widget_image_skin_classic.o
 .debug_loc     0x0003247b      0x235 build/lcdc_rgba888_mxt_9x60_wvga/production/_ext/1197524732/legato_widget_image.o
 .debug_loc     0x000326b0      0x309 build/lcdc_rgba888_mxt_9x60_wvga/production/_ext/1195110755/legato_widget_label.o
 .debug_loc     0x000329b9      0x290 build/lcdc_rgba888_mxt_9x60_wvga/production/_ext/1195110755/legato_widget_label_skin_classic.o
 .debug_loc     0x00032c49      0x1a7 build/lcdc_rgba888_mxt_9x60_wvga/production/_ext/337100648/legato_widget_rectangle.o
 .debug_loc     0x00032df0      0x21a build/lcdc_rgba888_mxt_9x60_wvga/production/_ext/337100648/legato_widget_rectangle_skin_classic.o
 .debug_loc     0x0003300a      0x148 build/lcdc_rgba888_mxt_9x60_wvga/production/_ext/261620856/legato_widget_skin_classic.o
 .debug_loc     0x00033152     0x244a build/lcdc_rgba888_mxt_9x60_wvga/production/_ext/261620856/legato_widget.o
 .debug_loc     0x0003559c      0xc51 build/lcdc_rgba888_mxt_9x60_wvga/production/_ext/261620856/legato_widget_skin_classic_common.o
 .debug_loc     0x000361ed      0x142 build/lcdc_rgba888_mxt_9x60_wvga/production/_ext/4986847/plib_aic.o
 .debug_loc     0x0003632f       0x4e build/lcdc_rgba888_mxt_9x60_wvga/production/_ext/4988870/plib_clk.o
 .debug_loc     0x0003637d      0x700 build/lcdc_rgba888_mxt_9x60_wvga/production/_ext/813772974/plib_flexcom6_twi_master.o
 .debug_loc     0x00036a7d      0x9c8 build/lcdc_rgba888_mxt_9x60_wvga/production/_ext/154914322/plib_lcdc.o
 .debug_loc     0x00037445      0x584 build/lcdc_rgba888_mxt_9x60_wvga/production/_ext/4998521/plib_mmu.o
 .debug_loc     0x000379c9       0x94 build/lcdc_rgba888_mxt_9x60_wvga/production/_ext/5001274/plib_pio.o
 .debug_loc     0x00037a5d       0xac build/lcdc_rgba888_mxt_9x60_wvga/production/_ext/1247087435/plib_tc0.o
 .debug_loc     0x00037b09       0x4a build/lcdc_rgba888_mxt_9x60_wvga/production/_ext/286729486/xc32_monitor.o
 .debug_loc     0x00037b53      0x70e build/lcdc_rgba888_mxt_9x60_wvga/production/_ext/1414187873/sys_input.o
 .debug_loc     0x00038261      0x53a build/lcdc_rgba888_mxt_9x60_wvga/production/_ext/1826491803/sys_int.o
 .debug_loc     0x0003879b     0x1c6f build/lcdc_rgba888_mxt_9x60_wvga/production/_ext/1812361045/sys_time.o
 .debug_loc     0x0003a40a       0xf8 build/lcdc_rgba888_mxt_9x60_wvga/production/_ext/2052985144/initialization.o
 .debug_loc     0x0003a502       0x20 build/lcdc_rgba888_mxt_9x60_wvga/production/_ext/2052985144/interrupts.o
 .debug_loc     0x0003a522       0x20 build/lcdc_rgba888_mxt_9x60_wvga/production/_ext/2052985144/tasks.o
 .debug_loc     0x0003a542       0x40 build/lcdc_rgba888_mxt_9x60_wvga/production/_ext/1360937237/app.o
 .debug_loc     0x0003a582       0x20 build/lcdc_rgba888_mxt_9x60_wvga/production/_ext/1360937237/main.o
 .debug_loc     0x0003a5a2       0x65 build/lcdc_rgba888_mxt_9x60_wvga/production/_ext/1360937237/app_screen0.o
 .debug_loc     0x0003a607      0x4f2 build/lcdc_rgba888_mxt_9x60_wvga/production/_ext/5003525/plib_rtc.o
 .debug_loc     0x0003aaf9      0x11c build/lcdc_rgba888_mxt_9x60_wvga/production/_ext/1360937237/app_screen1.o
 .debug_loc     0x0003ac15      0xbff build/lcdc_rgba888_mxt_9x60_wvga/production/_ext/1121151461/gfx_canvas_api.o
 .debug_loc     0x0003b814      0xc7c build/lcdc_rgba888_mxt_9x60_wvga/production/_ext/1121151461/gfx_canvas.o
 .debug_loc     0x0003c490       0x14 c:/program files/microchip/xc32/v4.20/bin/bin/../../lib/gcc/pic32c/8.3.1/../../../../pic32c/lib/arm/v5te/nofp\libpic32c.a(data_init_0_1.o)
 .debug_loc     0x0003c4a4      0x318 c:/program files/microchip/xc32/v4.20/bin/bin/../../lib/gcc/pic32c/8.3.1/arm/v5te/nofp\libgcc.a(_udivmoddi4.o)
 .debug_loc     0x0003c7bc       0x51 c:/program files/microchip/xc32/v4.20/bin/bin/../../lib/gcc/pic32c/8.3.1/../../../../pic32c/lib/arm/v5te/nofp\libc-musl.a(__libc_start_main.o)
 .debug_loc     0x0003c80d       0xb6 c:/program files/microchip/xc32/v4.20/bin/bin/../../lib/gcc/pic32c/8.3.1/../../../../pic32c/lib/arm/v5te/nofp\libc-musl.a(__sio_sprintf_doux.o)
 .debug_loc     0x0003c8c3      0x1cf c:/program files/microchip/xc32/v4.20/bin/bin/../../lib/gcc/pic32c/8.3.1/../../../../pic32c/lib/arm/v5te/nofp\libc-musl.a(__fmt_d.o)
 .debug_loc     0x0003ca92      0x10a c:/program files/microchip/xc32/v4.20/bin/bin/../../lib/gcc/pic32c/8.3.1/../../../../pic32c/lib/arm/v5te/nofp\libc-musl.a(__fmt_o.o)
 .debug_loc     0x0003cb9c      0x1db c:/program files/microchip/xc32/v4.20/bin/bin/../../lib/gcc/pic32c/8.3.1/../../../../pic32c/lib/arm/v5te/nofp\libc-musl.a(__fmt_s.o)
 .debug_loc     0x0003cd77      0x26f c:/program files/microchip/xc32/v4.20/bin/bin/../../lib/gcc/pic32c/8.3.1/../../../../pic32c/lib/arm/v5te/nofp\libc-musl.a(__fmt_u.o)
 .debug_loc     0x0003cfe6      0x256 c:/program files/microchip/xc32/v4.20/bin/bin/../../lib/gcc/pic32c/8.3.1/../../../../pic32c/lib/arm/v5te/nofp\libc-musl.a(__fmt_x.o)
 .debug_loc     0x0003d23c      0x2c8 c:/program files/microchip/xc32/v4.20/bin/bin/../../lib/gcc/pic32c/8.3.1/../../../../pic32c/lib/arm/v5te/nofp\libc-musl.a(__pop_int.o)
 .debug_loc     0x0003d504      0x181 c:/program files/microchip/xc32/v4.20/bin/bin/../../lib/gcc/pic32c/8.3.1/../../../../pic32c/lib/arm/v5te/nofp\libc-musl.a(__pop_ptr.o)
 .debug_loc     0x0003d685      0x594 c:/program files/microchip/xc32/v4.20/bin/bin/../../lib/gcc/pic32c/8.3.1/../../../../pic32c/lib/arm/v5te/nofp\libc-musl.a(__printf_core.o)
 .debug_loc     0x0003dc19       0x20 c:/program files/microchip/xc32/v4.20/bin/bin/../../lib/gcc/pic32c/8.3.1/../../../../pic32c/lib/arm/v5te/nofp\libc-musl.a(stdout.o)
 .debug_loc     0x0003dc39       0xe7 c:/program files/microchip/xc32/v4.20/bin/bin/../../lib/gcc/pic32c/8.3.1/../../../../pic32c/lib/arm/v5te/nofp\libc-musl.a(atoi.o)
 .debug_loc     0x0003dd20       0xc5 c:/program files/microchip/xc32/v4.20/bin/bin/../../lib/gcc/pic32c/8.3.1/../../../../pic32c/lib/arm/v5te/nofp\libc-musl.a(memcpy.o)
 .debug_loc     0x0003dde5       0x56 c:/program files/microchip/xc32/v4.20/bin/bin/../../lib/gcc/pic32c/8.3.1/../../../../pic32c/lib/arm/v5te/nofp\libc-musl.a(memset.o)
 .debug_loc     0x0003de3b       0x47 c:/program files/microchip/xc32/v4.20/bin/bin/../../lib/gcc/pic32c/8.3.1/../../../../pic32c/lib/arm/v5te/nofp\libc-musl.a(strlen.o)
 .debug_loc     0x0003de82       0x4a c:/program files/microchip/xc32/v4.20/bin/bin/../../lib/gcc/pic32c/8.3.1/../../../../pic32c/lib/arm/v5te/nofp\libc-musl.a(tolower.o)
 .debug_loc     0x0003decc       0x4a c:/program files/microchip/xc32/v4.20/bin/bin/../../lib/gcc/pic32c/8.3.1/../../../../pic32c/lib/arm/v5te/nofp\libc-musl.a(toupper.o)
 .debug_loc     0x0003df16       0x88 c:/program files/microchip/xc32/v4.20/bin/bin/../../lib/gcc/pic32c/8.3.1/../../../../pic32c/lib/arm/v5te/nofp\libc-musl.a(__int_vfprintf.o)
 .debug_loc     0x0003df9e       0x6c c:/program files/microchip/xc32/v4.20/bin/bin/../../lib/gcc/pic32c/8.3.1/../../../../pic32c/lib/arm/v5te/nofp\libc-musl.a(__int_vsprintf.o)
 .debug_loc     0x0003e00a       0xa6 c:/program files/microchip/xc32/v4.20/bin/bin/../../lib/gcc/pic32c/8.3.1/../../../../pic32c/lib/arm/v5te/nofp\libc-musl.a(__pop_float.o)
 .debug_loc     0x0003e0b0      0x12a c:/program files/microchip/xc32/v4.20/bin/bin/../../lib/gcc/pic32c/8.3.1/../../../../pic32c/lib/arm/v5te/nofp\libc-musl.a(__int_vsnprintf.o)
 .debug_loc     0x0003e1da       0x20 c:/program files/microchip/xc32/v4.20/bin/bin/../../lib/gcc/pic32c/8.3.1/../../../../pic32c/lib/arm/v5te/nofp\libc-musl.a(__init_stdio.o)
 .debug_loc     0x0003e1fa      0x1ae c:/program files/microchip/xc32/v4.20/bin/bin/../../lib/gcc/pic32c/8.3.1/../../../../pic32c/lib/arm/v5te/nofp\libc-musl.a(__out.o)
 .debug_loc     0x0003e3a8      0x20e c:/program files/microchip/xc32/v4.20/bin/bin/../../lib/gcc/pic32c/8.3.1/../../../../pic32c/lib/arm/v5te/nofp\libc-musl.a(__stdio_close.o)
 .debug_loc     0x0003e5b6      0x262 c:/program files/microchip/xc32/v4.20/bin/bin/../../lib/gcc/pic32c/8.3.1/../../../../pic32c/lib/arm/v5te/nofp\libc-musl.a(__stdio_seek.o)
 .debug_loc     0x0003e818       0x25 c:/program files/microchip/xc32/v4.20/bin/bin/../../lib/gcc/pic32c/8.3.1/../../../../pic32c/lib/arm/v5te/nofp\libc-musl.a(__stdout.o)
 .debug_loc     0x0003e83d      0x10a c:/program files/microchip/xc32/v4.20/bin/bin/../../lib/gcc/pic32c/8.3.1/../../../../pic32c/lib/arm/v5te/nofp\libc-musl.a(__fwrite.o)

.note.GNU-stack
                0x00000000        0x0
 .note.GNU-stack
                0x00000000        0x0 c:/program files/microchip/xc32/v4.20/bin/bin/../../lib/gcc/pic32c/8.3.1/../../../../pic32c/lib/arm/v5te/nofp\libc-musl.a(__libc_start_main.o)
 .note.GNU-stack
                0x00000000        0x0 c:/program files/microchip/xc32/v4.20/bin/bin/../../lib/gcc/pic32c/8.3.1/../../../../pic32c/lib/arm/v5te/nofp\libc-musl.a(libc.o)
 .note.GNU-stack
                0x00000000        0x0 c:/program files/microchip/xc32/v4.20/bin/bin/../../lib/gcc/pic32c/8.3.1/../../../../pic32c/lib/arm/v5te/nofp\libc-musl.a(__sio_sprintf_doux.o)
 .note.GNU-stack
                0x00000000        0x0 c:/program files/microchip/xc32/v4.20/bin/bin/../../lib/gcc/pic32c/8.3.1/../../../../pic32c/lib/arm/v5te/nofp\libc-musl.a(__fmt_d.o)
 .note.GNU-stack
                0x00000000        0x0 c:/program files/microchip/xc32/v4.20/bin/bin/../../lib/gcc/pic32c/8.3.1/../../../../pic32c/lib/arm/v5te/nofp\libc-musl.a(__fmt_o.o)
 .note.GNU-stack
                0x00000000        0x0 c:/program files/microchip/xc32/v4.20/bin/bin/../../lib/gcc/pic32c/8.3.1/../../../../pic32c/lib/arm/v5te/nofp\libc-musl.a(__fmt_s.o)
 .note.GNU-stack
                0x00000000        0x0 c:/program files/microchip/xc32/v4.20/bin/bin/../../lib/gcc/pic32c/8.3.1/../../../../pic32c/lib/arm/v5te/nofp\libc-musl.a(__fmt_u.o)
 .note.GNU-stack
                0x00000000        0x0 c:/program files/microchip/xc32/v4.20/bin/bin/../../lib/gcc/pic32c/8.3.1/../../../../pic32c/lib/arm/v5te/nofp\libc-musl.a(__fmt_x.o)
 .note.GNU-stack
                0x00000000        0x0 c:/program files/microchip/xc32/v4.20/bin/bin/../../lib/gcc/pic32c/8.3.1/../../../../pic32c/lib/arm/v5te/nofp\libc-musl.a(__pop_int.o)
 .note.GNU-stack
                0x00000000        0x0 c:/program files/microchip/xc32/v4.20/bin/bin/../../lib/gcc/pic32c/8.3.1/../../../../pic32c/lib/arm/v5te/nofp\libc-musl.a(__pop_ptr.o)
 .note.GNU-stack
                0x00000000        0x0 c:/program files/microchip/xc32/v4.20/bin/bin/../../lib/gcc/pic32c/8.3.1/../../../../pic32c/lib/arm/v5te/nofp\libc-musl.a(__printf_core.o)
 .note.GNU-stack
                0x00000000        0x0 c:/program files/microchip/xc32/v4.20/bin/bin/../../lib/gcc/pic32c/8.3.1/../../../../pic32c/lib/arm/v5te/nofp\libc-musl.a(stdout.o)
 .note.GNU-stack
                0x00000000        0x0 c:/program files/microchip/xc32/v4.20/bin/bin/../../lib/gcc/pic32c/8.3.1/../../../../pic32c/lib/arm/v5te/nofp\libc-musl.a(atoi.o)
 .note.GNU-stack
                0x00000000        0x0 c:/program files/microchip/xc32/v4.20/bin/bin/../../lib/gcc/pic32c/8.3.1/../../../../pic32c/lib/arm/v5te/nofp\libc-musl.a(memcpy.o)
 .note.GNU-stack
                0x00000000        0x0 c:/program files/microchip/xc32/v4.20/bin/bin/../../lib/gcc/pic32c/8.3.1/../../../../pic32c/lib/arm/v5te/nofp\libc-musl.a(memset.o)
 .note.GNU-stack
                0x00000000        0x0 c:/program files/microchip/xc32/v4.20/bin/bin/../../lib/gcc/pic32c/8.3.1/../../../../pic32c/lib/arm/v5te/nofp\libc-musl.a(strlen.o)
 .note.GNU-stack
                0x00000000        0x0 c:/program files/microchip/xc32/v4.20/bin/bin/../../lib/gcc/pic32c/8.3.1/../../../../pic32c/lib/arm/v5te/nofp\libc-musl.a(tolower.o)
 .note.GNU-stack
                0x00000000        0x0 c:/program files/microchip/xc32/v4.20/bin/bin/../../lib/gcc/pic32c/8.3.1/../../../../pic32c/lib/arm/v5te/nofp\libc-musl.a(toupper.o)
 .note.GNU-stack
                0x00000000        0x0 c:/program files/microchip/xc32/v4.20/bin/bin/../../lib/gcc/pic32c/8.3.1/../../../../pic32c/lib/arm/v5te/nofp\libc-musl.a(__environ.o)
 .note.GNU-stack
                0x00000000        0x0 c:/program files/microchip/xc32/v4.20/bin/bin/../../lib/gcc/pic32c/8.3.1/../../../../pic32c/lib/arm/v5te/nofp\libc-musl.a(__errno_location.o)
 .note.GNU-stack
                0x00000000        0x0 c:/program files/microchip/xc32/v4.20/bin/bin/../../lib/gcc/pic32c/8.3.1/../../../../pic32c/lib/arm/v5te/nofp\libc-musl.a(__int_vfprintf.o)
 .note.GNU-stack
                0x00000000        0x0 c:/program files/microchip/xc32/v4.20/bin/bin/../../lib/gcc/pic32c/8.3.1/../../../../pic32c/lib/arm/v5te/nofp\libc-musl.a(__int_vsprintf.o)
 .note.GNU-stack
                0x00000000        0x0 c:/program files/microchip/xc32/v4.20/bin/bin/../../lib/gcc/pic32c/8.3.1/../../../../pic32c/lib/arm/v5te/nofp\libc-musl.a(__pop_float.o)
 .note.GNU-stack
                0x00000000        0x0 c:/program files/microchip/xc32/v4.20/bin/bin/../../lib/gcc/pic32c/8.3.1/../../../../pic32c/lib/arm/v5te/nofp\libc-musl.a(__int_vsnprintf.o)
 .note.GNU-stack
                0x00000000        0x0 c:/program files/microchip/xc32/v4.20/bin/bin/../../lib/gcc/pic32c/8.3.1/../../../../pic32c/lib/arm/v5te/nofp\libc-musl.a(__init_stdio.o)
 .note.GNU-stack
                0x00000000        0x0 c:/program files/microchip/xc32/v4.20/bin/bin/../../lib/gcc/pic32c/8.3.1/../../../../pic32c/lib/arm/v5te/nofp\libc-musl.a(__out.o)
 .note.GNU-stack
                0x00000000        0x0 c:/program files/microchip/xc32/v4.20/bin/bin/../../lib/gcc/pic32c/8.3.1/../../../../pic32c/lib/arm/v5te/nofp\libc-musl.a(__stdio_close.o)
 .note.GNU-stack
                0x00000000        0x0 c:/program files/microchip/xc32/v4.20/bin/bin/../../lib/gcc/pic32c/8.3.1/../../../../pic32c/lib/arm/v5te/nofp\libc-musl.a(__stdio_seek.o)
 .note.GNU-stack
                0x00000000        0x0 c:/program files/microchip/xc32/v4.20/bin/bin/../../lib/gcc/pic32c/8.3.1/../../../../pic32c/lib/arm/v5te/nofp\libc-musl.a(__stdout.o)
 .note.GNU-stack
                0x00000000        0x0 c:/program files/microchip/xc32/v4.20/bin/bin/../../lib/gcc/pic32c/8.3.1/../../../../pic32c/lib/arm/v5te/nofp\libc-musl.a(__fwrite.o)

__xc_reference_data
                0x00000000       0x68
 __xc_reference_data
                0x00000000        0x4 c:/program files/microchip/xc32/v4.20/bin/bin/../../lib/gcc/pic32c/8.3.1/../../../../pic32c/lib/arm/v5te/nofp\libc-musl.a(stdout.o)
                0x00000000                __stdout_needs_init
 __xc_reference_data
                0x00000004       0x10 c:/program files/microchip/xc32/v4.20/bin/bin/../../lib/gcc/pic32c/8.3.1/../../../../pic32c/lib/arm/v5te/nofp\libc-musl.a(__io_init_needed.o)
                0x00000004                __io_init_needed
                0x00000010                __io_init_needs_file
 __xc_reference_data
                0x00000014        0xc c:/program files/microchip/xc32/v4.20/bin/bin/../../lib/gcc/pic32c/8.3.1/../../../../pic32c/lib/arm/v5te/nofp\libc-musl.a(__io_file_needed.o)
                0x00000014                __io_file_needed
 __xc_reference_data
                0x00000020       0x40 c:/program files/microchip/xc32/v4.20/bin/bin/../../lib/gcc/pic32c/8.3.1/../../../../pic32c/lib/arm/v5te/nofp\libc-musl.a(__io_std_needed.o)
                0x00000020                __io_std_needed
 __xc_reference_data
                0x00000060        0x4 c:/program files/microchip/xc32/v4.20/bin/bin/../../lib/gcc/pic32c/8.3.1/../../../../pic32c/lib/arm/v5te/nofp\libc-musl.a(__stdout.o)
                0x00000060                __stdout_needs_file
 __xc_reference_data
                0x00000064        0x4 c:/program files/microchip/xc32/v4.20/bin/bin/../../lib/gcc/pic32c/8.3.1/../../../../pic32c/lib/arm/v5te/nofp\libc-musl.a(__fwrite.o)
                0x00000064                __fwrite_needs_std

.stack          0x24392d60      0x100
 .stack         0x24392d60      0x100 stack

.eh_frame%z1    0x00000000        0x0
 .eh_frame      0x00000000        0x0 c:/program files/microchip/xc32/v4.20/bin/bin/../../lib/gcc/pic32c/8.3.1/arm/v5te/nofp/crtbegin.o
